inline.NumInlined: 29982
inline.NumDeleted: 10454
begin_hunk_0_@_ZN6duckdb25BoxRendererImplementation19ComputeRenderWidthsERNS_6vectorINS_20RenderDataCollectionELb1ESaIS2_EEEmm:bb.a
  br i1 %.not.i32.i.i.i, label %_ZNSt8_Rb_treeImSt4pairIKmN6duckdb6vectorImLb1ESaImEEEESt10_Select1stIS6_ESt4lessImESaIS6_EE5eraseERS1_.exit.i, label %.lr.ph.i25.i.i.i, !llvm.loop !467

bb.gi:                                            ; preds = %bb.gg, %.lr.ph.i.i.i
  %.sink.i.i.i = phi i64 [ 24, %.lr.ph.i.i.i ], [ 16, %bb.gg ]
  %.123.i.i.i = phi ptr [ %.02243.i.i.i, %.lr.ph.i.i.i ], [ %.044.i.i.i, %bb.gg ] ; 3 uses
  %i.zk = getelementptr inbounds nuw i8, ptr %.044.i.i.i, i64 %.sink.i.i.i
  %.0.i.i.i388 = load ptr, ptr %i.zk, align 8, !tbaa !454 ; 2 uses
  %.not.i.i.i389 = icmp eq ptr %.0.i.i.i388, null
  br i1 %.not.i.i.i389, label %_ZNSt8_Rb_treeImSt4pairIKmN6duckdb6vectorImLb1ESaImEEEESt10_Select1stIS6_ESt4lessImESaIS6_EE5eraseERS1_.exit.i, label %.lr.ph.i.i.i, !llvm.loop !468
end_hunk_0
begin_hunk_1_@_ZN6duckdb10RenderTree16SanitizeKeyNamesEv:bb.a
  %i.ph = getelementptr inbounds nuw i8, ptr %.0.us.i.i.i, i64 16
  %i.pi = load i64, ptr %i.ph, align 8, !tbaa !139
  %.not.i.i.i.i.i.us.i.i.i = icmp eq i64 %i.pi, 0
  br i1 %.not.i.i.i.i.i.us.i.i.i, label %25, label %bb.ch

bb.ch:                                            ; preds = %bb.cg, %.split.us.i.i.i
  %i.pj = load ptr, ptr %.0.us.i.i.i, align 8, !tbaa !120 ; 3 uses
end_hunk_1
begin_hunk_2_@_ZN6duckdb10RenderTree16SanitizeKeyNamesEv:bb.a

_ZNKSt10_HashtableINSt7__cxx1112basic_stringIcSt11char_traitsIcESaIcEEESt4pairIKS5_mESaIS8_ENSt8__detail10_Select1stEN6duckdb29CaseInsensitiveStringEqualityENSC_33CaseInsensitiveStringHashFunctionENSA_18_Mod_range_hashingENSA_20_Default_ranged_hashENSA_20_Prime_rehash_policyENSA_17_Hashtable_traitsILb1ELb0ELb1EEEE12_M_find_nodeEmRS7_m.exit.i: ; preds = %bb.ck
  %.not.i208 = icmp eq ptr %.0.i.i.i, null
  br i1 %.not.i208, label %_ZNKSt10_HashtableINSt7__cxx1112basic_stringIcSt11char_traitsIcESaIcEEESt4pairIKS5_mESaIS8_ENSt8__detail10_Select1stEN6duckdb29CaseInsensitiveStringEqualityENSC_33CaseInsensitiveStringHashFunctionENSA_18_Mod_range_hashingENSA_20_Default_ranged_hashENSA_20_Prime_rehash_policyENSA_17_Hashtable_traitsILb1ELb0ELb1EEEE12_M_find_nodeEmRS7_m.exit.thread.i, label %.thread31.i

.thread31.i:                                      ; preds = %_ZNKSt10_HashtableINSt7__cxx1112basic_stringIcSt11char_traitsIcESaIcEEESt4pairIKS5_mESaIS8_ENSt8__detail10_Select1stEN6duckdb29CaseInsensitiveStringEqualityENSC_33CaseInsensitiveStringHashFunctionENSA_18_Mod_range_hashingENSA_20_Default_ranged_hashENSA_20_Prime_rehash_policyENSA_17_Hashtable_traitsILb1ELb0ELb1EEEE12_M_find_nodeEmRS7_m.exit.i
  %24 = getelementptr inbounds nuw i8, ptr %.0.i.i.i, i64 40
  br label %.noexc177

25:                                               ; preds = %bb.cg
  %26 = getelementptr inbounds nuw i8, ptr %.0.us.i.i.i, i64 40
  br label %.noexc177

_ZNKSt10_HashtableINSt7__cxx1112basic_stringIcSt11char_traitsIcESaIcEEESt4pairIKS5_mESaIS8_ENSt8__detail10_Select1stEN6duckdb29CaseInsensitiveStringEqualityENSC_33CaseInsensitiveStringHashFunctionENSA_18_Mod_range_hashingENSA_20_Default_ranged_hashENSA_20_Prime_rehash_policyENSA_17_Hashtable_traitsILb1ELb0ELb1EEEE12_M_find_nodeEmRS7_m.exit.thread.i: ; preds = %bb.cl, %.loopexit.i.i.i, %bb.ci, %bb.ch, %_ZNKSt10_HashtableINSt7__cxx1112basic_stringIcSt11char_traitsIcESaIcEEESt4pairIKS5_mESaIS8_ENSt8__detail10_Select1stEN6duckdb29CaseInsensitiveStringEqualityENSC_33CaseInsensitiveStringHashFunctionENSA_18_Mod_range_hashingENSA_20_Default_ranged_hashENSA_20_Prime_rehash_policyENSA_17_Hashtable_traitsILb1ELb0ELb1EEEE12_M_find_nodeEmRS7_m.exit.i, %_ZNKSt8__detail15_Hash_code_baseINSt7__cxx1112basic_stringIcSt11char_traitsIcESaIcEEESt4pairIKS6_mENS_10_Select1stEN6duckdb33CaseInsensitiveStringHashFunctionENS_18_Mod_range_hashingENS_20_Default_ranged_hashELb1EE12_M_hash_codeERS8_.exit.i
  call void @llvm.lifetime.start.p0(ptr nonnull %1) #60
end_hunk_2
begin_hunk_3_@_ZN6duckdb10RenderTree16SanitizeKeyNamesEv:bb.a
          to label %_ZNSt10_HashtableINSt7__cxx1112basic_stringIcSt11char_traitsIcESaIcEEESt4pairIKS5_mESaIS8_ENSt8__detail10_Select1stEN6duckdb29CaseInsensitiveStringEqualityENSC_33CaseInsensitiveStringHashFunctionENSA_18_Mod_range_hashingENSA_20_Default_ranged_hashENSA_20_Prime_rehash_policyENSA_17_Hashtable_traitsILb1ELb0ELb1EEEE12_Scoped_nodeD2Ev.exit.i unwind label %bb.cs

_ZNSt10_HashtableINSt7__cxx1112basic_stringIcSt11char_traitsIcESaIcEEESt4pairIKS5_mESaIS8_ENSt8__detail10_Select1stEN6duckdb29CaseInsensitiveStringEqualityENSC_33CaseInsensitiveStringHashFunctionENSA_18_Mod_range_hashingENSA_20_Default_ranged_hashENSA_20_Prime_rehash_policyENSA_17_Hashtable_traitsILb1ELb0ELb1EEEE12_Scoped_nodeD2Ev.exit.i: ; preds = %.noexc209
  %27 = getelementptr inbounds nuw i8, ptr %i.rb, i64 40
  call void @llvm.lifetime.end.p0(ptr nonnull %1) #60
  %.pre378 = load ptr, ptr %i.aw, align 8, !tbaa !3620
  br label %.noexc177
end_hunk_3
begin_hunk_4_@_ZN6duckdb10RenderTree16SanitizeKeyNamesEv:bb.a
  call void @llvm.lifetime.end.p0(ptr nonnull %1) #60
  br label %.body210

.noexc177:                                        ; preds = %_ZNSt10_HashtableINSt7__cxx1112basic_stringIcSt11char_traitsIcESaIcEEESt4pairIKS5_mESaIS8_ENSt8__detail10_Select1stEN6duckdb29CaseInsensitiveStringEqualityENSC_33CaseInsensitiveStringHashFunctionENSA_18_Mod_range_hashingENSA_20_Default_ranged_hashENSA_20_Prime_rehash_policyENSA_17_Hashtable_traitsILb1ELb0ELb1EEEE12_Scoped_nodeD2Ev.exit.i, %25, %.thread31.i
  %i.rd = phi ptr [ %.pre378, %_ZNSt10_HashtableINSt7__cxx1112basic_stringIcSt11char_traitsIcESaIcEEESt4pairIKS5_mESaIS8_ENSt8__detail10_Select1stEN6duckdb29CaseInsensitiveStringEqualityENSC_33CaseInsensitiveStringHashFunctionENSA_18_Mod_range_hashingENSA_20_Default_ranged_hashENSA_20_Prime_rehash_policyENSA_17_Hashtable_traitsILb1ELb0ELb1EEEE12_Scoped_nodeD2Ev.exit.i ], [ %i.os, %25 ], [ %i.os, %.thread31.i ] ; 10 uses
  %.1.i.a = phi ptr [ %27, %_ZNSt10_HashtableINSt7__cxx1112basic_stringIcSt11char_traitsIcESaIcEEESt4pairIKS5_mESaIS8_ENSt8__detail10_Select1stEN6duckdb29CaseInsensitiveStringEqualityENSC_33CaseInsensitiveStringHashFunctionENSA_18_Mod_range_hashingENSA_20_Default_ranged_hashENSA_20_Prime_rehash_policyENSA_17_Hashtable_traitsILb1ELb0ELb1EEEE12_Scoped_nodeD2Ev.exit.i ], [ %26, %25 ], [ %24, %.thread31.i ]
  store i64 %i.or, ptr %.1.i.a, align 8, !tbaa !33
  %i.re = load ptr, ptr %i.ay, align 16, !tbaa !3628
  %.not.i.i.i = icmp eq ptr %i.rd, %i.re
  br i1 %.not.i.i.i, label %bb.cw, label %bb.ct
end_hunk_4
begin_hunk_5_@_ZNSt8__detail9_Map_baseINSt7__cxx1112basic_stringIcSt11char_traitsIcESaIcEEESt4pairIKS6_bESaIS9_ENS_10_Select1stEN6duckdb29CaseInsensitiveStringEqualityENSC_33CaseInsensitiveStringHashFunctionENS_18_Mod_range_hashingENS_20_Default_ranged_hashENS_20_Prime_rehash_policyENS_17_Hashtable_traitsILb1ELb0ELb1EEELb1EEixEOS6_:bb.a
  %i.av = getelementptr inbounds nuw i8, ptr %.0.us.i.i, i64 16
  %i.aw = load i64, ptr %i.av, align 8, !tbaa !139
  %.not.i.i.i.i.i.us.i.i = icmp eq i64 %i.aw, 0
  br i1 %.not.i.i.i.i.i.us.i.i, label %4, label %bb.d

bb.d:                                             ; preds = %bb.c, %.split.us.i.i
  %i.ax = load ptr, ptr %.0.us.i.i, align 8, !tbaa !120 ; 3 uses
end_hunk_5
begin_hunk_6_@_ZNSt8__detail9_Map_baseINSt7__cxx1112basic_stringIcSt11char_traitsIcESaIcEEESt4pairIKS6_bESaIS9_ENS_10_Select1stEN6duckdb29CaseInsensitiveStringEqualityENSC_33CaseInsensitiveStringHashFunctionENS_18_Mod_range_hashingENS_20_Default_ranged_hashENS_20_Prime_rehash_policyENS_17_Hashtable_traitsILb1ELb0ELb1EEELb1EEixEOS6_:bb.a

_ZNKSt10_HashtableINSt7__cxx1112basic_stringIcSt11char_traitsIcESaIcEEESt4pairIKS5_bESaIS8_ENSt8__detail10_Select1stEN6duckdb29CaseInsensitiveStringEqualityENSC_33CaseInsensitiveStringHashFunctionENSA_18_Mod_range_hashingENSA_20_Default_ranged_hashENSA_20_Prime_rehash_policyENSA_17_Hashtable_traitsILb1ELb0ELb1EEEE12_M_find_nodeEmRS7_m.exit: ; preds = %bb.g
  %.not = icmp eq ptr %.0.i.i, null
  br i1 %.not, label %_ZNKSt10_HashtableINSt7__cxx1112basic_stringIcSt11char_traitsIcESaIcEEESt4pairIKS5_bESaIS8_ENSt8__detail10_Select1stEN6duckdb29CaseInsensitiveStringEqualityENSC_33CaseInsensitiveStringHashFunctionENSA_18_Mod_range_hashingENSA_20_Default_ranged_hashENSA_20_Prime_rehash_policyENSA_17_Hashtable_traitsILb1ELb0ELb1EEEE12_M_find_nodeEmRS7_m.exit.thread, label %.thread34

.thread34:                                        ; preds = %_ZNKSt10_HashtableINSt7__cxx1112basic_stringIcSt11char_traitsIcESaIcEEESt4pairIKS5_bESaIS8_ENSt8__detail10_Select1stEN6duckdb29CaseInsensitiveStringEqualityENSC_33CaseInsensitiveStringHashFunctionENSA_18_Mod_range_hashingENSA_20_Default_ranged_hashENSA_20_Prime_rehash_policyENSA_17_Hashtable_traitsILb1ELb0ELb1EEEE12_M_find_nodeEmRS7_m.exit
  %3 = getelementptr inbounds nuw i8, ptr %.0.i.i, i64 40
  br label %bb.k

4:                                                ; preds = %bb.c
  %5 = getelementptr inbounds nuw i8, ptr %.0.us.i.i, i64 40
  br label %bb.k

_ZNKSt10_HashtableINSt7__cxx1112basic_stringIcSt11char_traitsIcESaIcEEESt4pairIKS5_bESaIS8_ENSt8__detail10_Select1stEN6duckdb29CaseInsensitiveStringEqualityENSC_33CaseInsensitiveStringHashFunctionENSA_18_Mod_range_hashingENSA_20_Default_ranged_hashENSA_20_Prime_rehash_policyENSA_17_Hashtable_traitsILb1ELb0ELb1EEEE12_M_find_nodeEmRS7_m.exit.thread: ; preds = %bb.h, %.loopexit.i.i, %bb.d, %bb.e, %_ZNKSt8__detail15_Hash_code_baseINSt7__cxx1112basic_stringIcSt11char_traitsIcESaIcEEESt4pairIKS6_bENS_10_Select1stEN6duckdb33CaseInsensitiveStringHashFunctionENS_18_Mod_range_hashingENS_20_Default_ranged_hashELb1EE12_M_hash_codeERS8_.exit, %_ZNKSt10_HashtableINSt7__cxx1112basic_stringIcSt11char_traitsIcESaIcEEESt4pairIKS5_bESaIS8_ENSt8__detail10_Select1stEN6duckdb29CaseInsensitiveStringEqualityENSC_33CaseInsensitiveStringHashFunctionENSA_18_Mod_range_hashingENSA_20_Default_ranged_hashENSA_20_Prime_rehash_policyENSA_17_Hashtable_traitsILb1ELb0ELb1EEEE12_M_find_nodeEmRS7_m.exit
  call void @llvm.lifetime.start.p0(ptr nonnull %2) #60
end_hunk_6
begin_hunk_7_@_ZNSt8__detail9_Map_baseINSt7__cxx1112basic_stringIcSt11char_traitsIcESaIcEEESt4pairIKS6_bESaIS9_ENS_10_Select1stEN6duckdb29CaseInsensitiveStringEqualityENSC_33CaseInsensitiveStringHashFunctionENS_18_Mod_range_hashingENS_20_Default_ranged_hashENS_20_Prime_rehash_policyENS_17_Hashtable_traitsILb1ELb0ELb1EEELb1EEixEOS6_:bb.a
          to label %_ZNSt10_HashtableINSt7__cxx1112basic_stringIcSt11char_traitsIcESaIcEEESt4pairIKS5_bESaIS8_ENSt8__detail10_Select1stEN6duckdb29CaseInsensitiveStringEqualityENSC_33CaseInsensitiveStringHashFunctionENSA_18_Mod_range_hashingENSA_20_Default_ranged_hashENSA_20_Prime_rehash_policyENSA_17_Hashtable_traitsILb1ELb0ELb1EEEE12_Scoped_nodeD2Ev.exit unwind label %bb.j

_ZNSt10_HashtableINSt7__cxx1112basic_stringIcSt11char_traitsIcESaIcEEESt4pairIKS5_bESaIS8_ENSt8__detail10_Select1stEN6duckdb29CaseInsensitiveStringEqualityENSC_33CaseInsensitiveStringHashFunctionENSA_18_Mod_range_hashingENSA_20_Default_ranged_hashENSA_20_Prime_rehash_policyENSA_17_Hashtable_traitsILb1ELb0ELb1EEEE12_Scoped_nodeD2Ev.exit: ; preds = %_ZNSt10_HashtableINSt7__cxx1112basic_stringIcSt11char_traitsIcESaIcEEESt4pairIKS5_bESaIS8_ENSt8__detail10_Select1stEN6duckdb29CaseInsensitiveStringEqualityENSC_33CaseInsensitiveStringHashFunctionENSA_18_Mod_range_hashingENSA_20_Default_ranged_hashENSA_20_Prime_rehash_policyENSA_17_Hashtable_traitsILb1ELb0ELb1EEEE12_Scoped_nodeC2IJRKSt21piecewise_construct_tSt5tupleIJOS5_EESQ_IJEEEEEPNSA_16_Hashtable_allocISaINSA_10_Hash_nodeIS8_Lb1EEEEEEDpOT_.exit
  %6 = getelementptr inbounds nuw i8, ptr %i.ch, i64 40
  call void @llvm.lifetime.end.p0(ptr nonnull %2) #60
  br label %bb.k

end_hunk_7
begin_hunk_8_@_ZNSt8__detail9_Map_baseINSt7__cxx1112basic_stringIcSt11char_traitsIcESaIcEEESt4pairIKS6_bESaIS9_ENS_10_Select1stEN6duckdb29CaseInsensitiveStringEqualityENSC_33CaseInsensitiveStringHashFunctionENS_18_Mod_range_hashingENS_20_Default_ranged_hashENS_20_Prime_rehash_policyENS_17_Hashtable_traitsILb1ELb0ELb1EEELb1EEixEOS6_:bb.a
  call void @llvm.lifetime.end.p0(ptr nonnull %2) #60
  resume { ptr, i32 } %i.ci

bb.k:                                             ; preds = %4, %.thread34, %_ZNSt10_HashtableINSt7__cxx1112basic_stringIcSt11char_traitsIcESaIcEEESt4pairIKS5_bESaIS8_ENSt8__detail10_Select1stEN6duckdb29CaseInsensitiveStringEqualityENSC_33CaseInsensitiveStringHashFunctionENSA_18_Mod_range_hashingENSA_20_Default_ranged_hashENSA_20_Prime_rehash_policyENSA_17_Hashtable_traitsILb1ELb0ELb1EEEE12_Scoped_nodeD2Ev.exit
  %.1.a = phi ptr [ %6, %_ZNSt10_HashtableINSt7__cxx1112basic_stringIcSt11char_traitsIcESaIcEEESt4pairIKS5_bESaIS8_ENSt8__detail10_Select1stEN6duckdb29CaseInsensitiveStringEqualityENSC_33CaseInsensitiveStringHashFunctionENSA_18_Mod_range_hashingENSA_20_Default_ranged_hashENSA_20_Prime_rehash_policyENSA_17_Hashtable_traitsILb1ELb0ELb1EEEE12_Scoped_nodeD2Ev.exit ], [ %5, %4 ], [ %3, %.thread34 ]
  ret ptr %.1.a
}

; Function Attrs: mustprogress uwtable
end_hunk_8
begin_hunk_9_@_ZNSt8__detail9_Map_baseINSt7__cxx1112basic_stringIcSt11char_traitsIcESaIcEEESt4pairIKS6_S7_IbmEESaISA_ENS_10_Select1stEN6duckdb29CaseInsensitiveStringEqualityENSD_33CaseInsensitiveStringHashFunctionENS_18_Mod_range_hashingENS_20_Default_ranged_hashENS_20_Prime_rehash_policyENS_17_Hashtable_traitsILb1ELb0ELb1EEELb1EEixEOS6_:bb.a
  %i.av = getelementptr inbounds nuw i8, ptr %.0.us.i.i, i64 16
  %i.aw = load i64, ptr %i.av, align 8, !tbaa !139
  %.not.i.i.i.i.i.us.i.i = icmp eq i64 %i.aw, 0
  br i1 %.not.i.i.i.i.i.us.i.i, label %4, label %bb.d

bb.d:                                             ; preds = %bb.c, %.split.us.i.i
  %i.ax = load ptr, ptr %.0.us.i.i, align 8, !tbaa !120 ; 3 uses
end_hunk_9
begin_hunk_10_@_ZNSt8__detail9_Map_baseINSt7__cxx1112basic_stringIcSt11char_traitsIcESaIcEEESt4pairIKS6_S7_IbmEESaISA_ENS_10_Select1stEN6duckdb29CaseInsensitiveStringEqualityENSD_33CaseInsensitiveStringHashFunctionENS_18_Mod_range_hashingENS_20_Default_ranged_hashENS_20_Prime_rehash_policyENS_17_Hashtable_traitsILb1ELb0ELb1EEELb1EEixEOS6_:bb.a

_ZNKSt10_HashtableINSt7__cxx1112basic_stringIcSt11char_traitsIcESaIcEEESt4pairIKS5_S6_IbmEESaIS9_ENSt8__detail10_Select1stEN6duckdb29CaseInsensitiveStringEqualityENSD_33CaseInsensitiveStringHashFunctionENSB_18_Mod_range_hashingENSB_20_Default_ranged_hashENSB_20_Prime_rehash_policyENSB_17_Hashtable_traitsILb1ELb0ELb1EEEE12_M_find_nodeEmRS7_m.exit: ; preds = %bb.g
  %.not = icmp eq ptr %.0.i.i, null
  br i1 %.not, label %_ZNKSt10_HashtableINSt7__cxx1112basic_stringIcSt11char_traitsIcESaIcEEESt4pairIKS5_S6_IbmEESaIS9_ENSt8__detail10_Select1stEN6duckdb29CaseInsensitiveStringEqualityENSD_33CaseInsensitiveStringHashFunctionENSB_18_Mod_range_hashingENSB_20_Default_ranged_hashENSB_20_Prime_rehash_policyENSB_17_Hashtable_traitsILb1ELb0ELb1EEEE12_M_find_nodeEmRS7_m.exit.thread, label %.thread34

.thread34:                                        ; preds = %_ZNKSt10_HashtableINSt7__cxx1112basic_stringIcSt11char_traitsIcESaIcEEESt4pairIKS5_S6_IbmEESaIS9_ENSt8__detail10_Select1stEN6duckdb29CaseInsensitiveStringEqualityENSD_33CaseInsensitiveStringHashFunctionENSB_18_Mod_range_hashingENSB_20_Default_ranged_hashENSB_20_Prime_rehash_policyENSB_17_Hashtable_traitsILb1ELb0ELb1EEEE12_M_find_nodeEmRS7_m.exit
  %3 = getelementptr inbounds nuw i8, ptr %.0.i.i, i64 40
  br label %bb.k

4:                                                ; preds = %bb.c
  %5 = getelementptr inbounds nuw i8, ptr %.0.us.i.i, i64 40
  br label %bb.k

_ZNKSt10_HashtableINSt7__cxx1112basic_stringIcSt11char_traitsIcESaIcEEESt4pairIKS5_S6_IbmEESaIS9_ENSt8__detail10_Select1stEN6duckdb29CaseInsensitiveStringEqualityENSD_33CaseInsensitiveStringHashFunctionENSB_18_Mod_range_hashingENSB_20_Default_ranged_hashENSB_20_Prime_rehash_policyENSB_17_Hashtable_traitsILb1ELb0ELb1EEEE12_M_find_nodeEmRS7_m.exit.thread: ; preds = %bb.h, %.loopexit.i.i, %bb.d, %bb.e, %_ZNKSt8__detail15_Hash_code_baseINSt7__cxx1112basic_stringIcSt11char_traitsIcESaIcEEESt4pairIKS6_S7_IbmEENS_10_Select1stEN6duckdb33CaseInsensitiveStringHashFunctionENS_18_Mod_range_hashingENS_20_Default_ranged_hashELb1EE12_M_hash_codeERS8_.exit, %_ZNKSt10_HashtableINSt7__cxx1112basic_stringIcSt11char_traitsIcESaIcEEESt4pairIKS5_S6_IbmEESaIS9_ENSt8__detail10_Select1stEN6duckdb29CaseInsensitiveStringEqualityENSD_33CaseInsensitiveStringHashFunctionENSB_18_Mod_range_hashingENSB_20_Default_ranged_hashENSB_20_Prime_rehash_policyENSB_17_Hashtable_traitsILb1ELb0ELb1EEEE12_M_find_nodeEmRS7_m.exit
  call void @llvm.lifetime.start.p0(ptr nonnull %2) #60
end_hunk_10
begin_hunk_11_@_ZNSt8__detail9_Map_baseINSt7__cxx1112basic_stringIcSt11char_traitsIcESaIcEEESt4pairIKS6_S7_IbmEESaISA_ENS_10_Select1stEN6duckdb29CaseInsensitiveStringEqualityENSD_33CaseInsensitiveStringHashFunctionENS_18_Mod_range_hashingENS_20_Default_ranged_hashENS_20_Prime_rehash_policyENS_17_Hashtable_traitsILb1ELb0ELb1EEELb1EEixEOS6_:bb.a
          to label %_ZNSt10_HashtableINSt7__cxx1112basic_stringIcSt11char_traitsIcESaIcEEESt4pairIKS5_S6_IbmEESaIS9_ENSt8__detail10_Select1stEN6duckdb29CaseInsensitiveStringEqualityENSD_33CaseInsensitiveStringHashFunctionENSB_18_Mod_range_hashingENSB_20_Default_ranged_hashENSB_20_Prime_rehash_policyENSB_17_Hashtable_traitsILb1ELb0ELb1EEEE12_Scoped_nodeD2Ev.exit unwind label %bb.j

_ZNSt10_HashtableINSt7__cxx1112basic_stringIcSt11char_traitsIcESaIcEEESt4pairIKS5_S6_IbmEESaIS9_ENSt8__detail10_Select1stEN6duckdb29CaseInsensitiveStringEqualityENSD_33CaseInsensitiveStringHashFunctionENSB_18_Mod_range_hashingENSB_20_Default_ranged_hashENSB_20_Prime_rehash_policyENSB_17_Hashtable_traitsILb1ELb0ELb1EEEE12_Scoped_nodeD2Ev.exit: ; preds = %_ZNSt10_HashtableINSt7__cxx1112basic_stringIcSt11char_traitsIcESaIcEEESt4pairIKS5_S6_IbmEESaIS9_ENSt8__detail10_Select1stEN6duckdb29CaseInsensitiveStringEqualityENSD_33CaseInsensitiveStringHashFunctionENSB_18_Mod_range_hashingENSB_20_Default_ranged_hashENSB_20_Prime_rehash_policyENSB_17_Hashtable_traitsILb1ELb0ELb1EEEE12_Scoped_nodeC2IJRKSt21piecewise_construct_tSt5tupleIJOS5_EESR_IJEEEEEPNSB_16_Hashtable_allocISaINSB_10_Hash_nodeIS9_Lb1EEEEEEDpOT_.exit
  %6 = getelementptr inbounds nuw i8, ptr %i.ci, i64 40
  call void @llvm.lifetime.end.p0(ptr nonnull %2) #60
  br label %bb.k

end_hunk_11
begin_hunk_12_@_ZNSt8__detail9_Map_baseINSt7__cxx1112basic_stringIcSt11char_traitsIcESaIcEEESt4pairIKS6_S7_IbmEESaISA_ENS_10_Select1stEN6duckdb29CaseInsensitiveStringEqualityENSD_33CaseInsensitiveStringHashFunctionENS_18_Mod_range_hashingENS_20_Default_ranged_hashENS_20_Prime_rehash_policyENS_17_Hashtable_traitsILb1ELb0ELb1EEELb1EEixEOS6_:bb.a
  call void @llvm.lifetime.end.p0(ptr nonnull %2) #60
  resume { ptr, i32 } %i.cj

bb.k:                                             ; preds = %4, %.thread34, %_ZNSt10_HashtableINSt7__cxx1112basic_stringIcSt11char_traitsIcESaIcEEESt4pairIKS5_S6_IbmEESaIS9_ENSt8__detail10_Select1stEN6duckdb29CaseInsensitiveStringEqualityENSD_33CaseInsensitiveStringHashFunctionENSB_18_Mod_range_hashingENSB_20_Default_ranged_hashENSB_20_Prime_rehash_policyENSB_17_Hashtable_traitsILb1ELb0ELb1EEEE12_Scoped_nodeD2Ev.exit
  %.1.a = phi ptr [ %6, %_ZNSt10_HashtableINSt7__cxx1112basic_stringIcSt11char_traitsIcESaIcEEESt4pairIKS5_S6_IbmEESaIS9_ENSt8__detail10_Select1stEN6duckdb29CaseInsensitiveStringEqualityENSD_33CaseInsensitiveStringHashFunctionENSB_18_Mod_range_hashingENSB_20_Default_ranged_hashENSB_20_Prime_rehash_policyENSB_17_Hashtable_traitsILb1ELb0ELb1EEEE12_Scoped_nodeD2Ev.exit ], [ %5, %4 ], [ %3, %.thread34 ]
  ret ptr %.1.a
}

; Function Attrs: mustprogress uwtable
end_hunk_12
begin_hunk_13_@_ZNSt8__detail9_Map_baseINSt7__cxx1112basic_stringIcSt11char_traitsIcESaIcEEESt4pairIKS6_mESaIS9_ENS_10_Select1stEN6duckdb29CaseInsensitiveStringEqualityENSC_33CaseInsensitiveStringHashFunctionENS_18_Mod_range_hashingENS_20_Default_ranged_hashENS_20_Prime_rehash_policyENS_17_Hashtable_traitsILb1ELb0ELb1EEELb1EEixERS8_:bb.a
  %i.av = getelementptr inbounds nuw i8, ptr %.0.us.i.i, i64 16
  %i.aw = load i64, ptr %i.av, align 8, !tbaa !139
  %.not.i.i.i.i.i.us.i.i = icmp eq i64 %i.aw, 0
  br i1 %.not.i.i.i.i.i.us.i.i, label %6, label %bb.d

bb.d:                                             ; preds = %bb.c, %.split.us.i.i
  %i.ax = load ptr, ptr %.0.us.i.i, align 8, !tbaa !120 ; 3 uses
end_hunk_13
begin_hunk_14_@_ZNSt8__detail9_Map_baseINSt7__cxx1112basic_stringIcSt11char_traitsIcESaIcEEESt4pairIKS6_mESaIS9_ENS_10_Select1stEN6duckdb29CaseInsensitiveStringEqualityENSC_33CaseInsensitiveStringHashFunctionENS_18_Mod_range_hashingENS_20_Default_ranged_hashENS_20_Prime_rehash_policyENS_17_Hashtable_traitsILb1ELb0ELb1EEELb1EEixERS8_:bb.a

_ZNKSt10_HashtableINSt7__cxx1112basic_stringIcSt11char_traitsIcESaIcEEESt4pairIKS5_mESaIS8_ENSt8__detail10_Select1stEN6duckdb29CaseInsensitiveStringEqualityENSC_33CaseInsensitiveStringHashFunctionENSA_18_Mod_range_hashingENSA_20_Default_ranged_hashENSA_20_Prime_rehash_policyENSA_17_Hashtable_traitsILb1ELb0ELb1EEEE12_M_find_nodeEmRS7_m.exit: ; preds = %bb.g
  %.not = icmp eq ptr %.0.i.i, null
  br i1 %.not, label %_ZNKSt10_HashtableINSt7__cxx1112basic_stringIcSt11char_traitsIcESaIcEEESt4pairIKS5_mESaIS8_ENSt8__detail10_Select1stEN6duckdb29CaseInsensitiveStringEqualityENSC_33CaseInsensitiveStringHashFunctionENSA_18_Mod_range_hashingENSA_20_Default_ranged_hashENSA_20_Prime_rehash_policyENSA_17_Hashtable_traitsILb1ELb0ELb1EEEE12_M_find_nodeEmRS7_m.exit.thread, label %.thread31

.thread31:                                        ; preds = %_ZNKSt10_HashtableINSt7__cxx1112basic_stringIcSt11char_traitsIcESaIcEEESt4pairIKS5_mESaIS8_ENSt8__detail10_Select1stEN6duckdb29CaseInsensitiveStringEqualityENSC_33CaseInsensitiveStringHashFunctionENSA_18_Mod_range_hashingENSA_20_Default_ranged_hashENSA_20_Prime_rehash_policyENSA_17_Hashtable_traitsILb1ELb0ELb1EEEE12_M_find_nodeEmRS7_m.exit
  %5 = getelementptr inbounds nuw i8, ptr %.0.i.i, i64 40
  br label %bb.j

6:                                                ; preds = %bb.c
  %7 = getelementptr inbounds nuw i8, ptr %.0.us.i.i, i64 40
  br label %bb.j

_ZNKSt10_HashtableINSt7__cxx1112basic_stringIcSt11char_traitsIcESaIcEEESt4pairIKS5_mESaIS8_ENSt8__detail10_Select1stEN6duckdb29CaseInsensitiveStringEqualityENSC_33CaseInsensitiveStringHashFunctionENSA_18_Mod_range_hashingENSA_20_Default_ranged_hashENSA_20_Prime_rehash_policyENSA_17_Hashtable_traitsILb1ELb0ELb1EEEE12_M_find_nodeEmRS7_m.exit.thread: ; preds = %bb.h, %.loopexit.i.i, %bb.d, %bb.e, %_ZNKSt8__detail15_Hash_code_baseINSt7__cxx1112basic_stringIcSt11char_traitsIcESaIcEEESt4pairIKS6_mENS_10_Select1stEN6duckdb33CaseInsensitiveStringHashFunctionENS_18_Mod_range_hashingENS_20_Default_ranged_hashELb1EE12_M_hash_codeERS8_.exit, %_ZNKSt10_HashtableINSt7__cxx1112basic_stringIcSt11char_traitsIcESaIcEEESt4pairIKS5_mESaIS8_ENSt8__detail10_Select1stEN6duckdb29CaseInsensitiveStringEqualityENSC_33CaseInsensitiveStringHashFunctionENSA_18_Mod_range_hashingENSA_20_Default_ranged_hashENSA_20_Prime_rehash_policyENSA_17_Hashtable_traitsILb1ELb0ELb1EEEE12_M_find_nodeEmRS7_m.exit
  call void @llvm.lifetime.start.p0(ptr nonnull %2) #60
end_hunk_14
begin_hunk_15_@_ZNSt8__detail9_Map_baseINSt7__cxx1112basic_stringIcSt11char_traitsIcESaIcEEESt4pairIKS6_mESaIS9_ENS_10_Select1stEN6duckdb29CaseInsensitiveStringEqualityENSC_33CaseInsensitiveStringHashFunctionENS_18_Mod_range_hashingENS_20_Default_ranged_hashENS_20_Prime_rehash_policyENS_17_Hashtable_traitsILb1ELb0ELb1EEELb1EEixERS8_:bb.a
          to label %_ZNSt10_HashtableINSt7__cxx1112basic_stringIcSt11char_traitsIcESaIcEEESt4pairIKS5_mESaIS8_ENSt8__detail10_Select1stEN6duckdb29CaseInsensitiveStringEqualityENSC_33CaseInsensitiveStringHashFunctionENSA_18_Mod_range_hashingENSA_20_Default_ranged_hashENSA_20_Prime_rehash_policyENSA_17_Hashtable_traitsILb1ELb0ELb1EEEE12_Scoped_nodeD2Ev.exit unwind label %bb.i

_ZNSt10_HashtableINSt7__cxx1112basic_stringIcSt11char_traitsIcESaIcEEESt4pairIKS5_mESaIS8_ENSt8__detail10_Select1stEN6duckdb29CaseInsensitiveStringEqualityENSC_33CaseInsensitiveStringHashFunctionENSA_18_Mod_range_hashingENSA_20_Default_ranged_hashENSA_20_Prime_rehash_policyENSA_17_Hashtable_traitsILb1ELb0ELb1EEEE12_Scoped_nodeD2Ev.exit: ; preds = %_ZNKSt10_HashtableINSt7__cxx1112basic_stringIcSt11char_traitsIcESaIcEEESt4pairIKS5_mESaIS8_ENSt8__detail10_Select1stEN6duckdb29CaseInsensitiveStringEqualityENSC_33CaseInsensitiveStringHashFunctionENSA_18_Mod_range_hashingENSA_20_Default_ranged_hashENSA_20_Prime_rehash_policyENSA_17_Hashtable_traitsILb1ELb0ELb1EEEE12_M_find_nodeEmRS7_m.exit.thread
  %8 = getelementptr inbounds nuw i8, ptr %i.by, i64 40
  call void @llvm.lifetime.end.p0(ptr nonnull %2) #60
  br label %bb.j

end_hunk_15
begin_hunk_16_@_ZNSt8__detail9_Map_baseINSt7__cxx1112basic_stringIcSt11char_traitsIcESaIcEEESt4pairIKS6_mESaIS9_ENS_10_Select1stEN6duckdb29CaseInsensitiveStringEqualityENSC_33CaseInsensitiveStringHashFunctionENS_18_Mod_range_hashingENS_20_Default_ranged_hashENS_20_Prime_rehash_policyENS_17_Hashtable_traitsILb1ELb0ELb1EEELb1EEixERS8_:bb.a
  call void @llvm.lifetime.end.p0(ptr nonnull %2) #60
  resume { ptr, i32 } %i.bz

bb.j:                                             ; preds = %6, %.thread31, %_ZNSt10_HashtableINSt7__cxx1112basic_stringIcSt11char_traitsIcESaIcEEESt4pairIKS5_mESaIS8_ENSt8__detail10_Select1stEN6duckdb29CaseInsensitiveStringEqualityENSC_33CaseInsensitiveStringHashFunctionENSA_18_Mod_range_hashingENSA_20_Default_ranged_hashENSA_20_Prime_rehash_policyENSA_17_Hashtable_traitsILb1ELb0ELb1EEEE12_Scoped_nodeD2Ev.exit
  %.1.a = phi ptr [ %8, %_ZNSt10_HashtableINSt7__cxx1112basic_stringIcSt11char_traitsIcESaIcEEESt4pairIKS5_mESaIS8_ENSt8__detail10_Select1stEN6duckdb29CaseInsensitiveStringEqualityENSC_33CaseInsensitiveStringHashFunctionENSA_18_Mod_range_hashingENSA_20_Default_ranged_hashENSA_20_Prime_rehash_policyENSA_17_Hashtable_traitsILb1ELb0ELb1EEEE12_Scoped_nodeD2Ev.exit ], [ %7, %6 ], [ %5, %.thread31 ]
  ret ptr %.1.a
}

; Function Attrs: mustprogress uwtable
end_hunk_16
