inline.NumInlined: 20898
inline.NumDeleted: 6710
begin_hunk_0_@_ZN5folly3f146detail8F14TableINS1_20ValueContainerPolicyIPKN8facebook5velox6BufferEvvvvEEE19tryEmplaceValueImplIS8_JS8_EEESt4pairINS1_11F14ItemIterIPNS1_8F14ChunkIS8_EEEEbESC_ImmERKT_DpOT0_:bb.a
_ZN5folly3f146detail8F14TableINS1_20ValueContainerPolicyIPKN8facebook5velox6BufferEvvvvEEE13insertAtBlankIJS8_EEEvNS1_11F14ItemIterIPNS1_8F14ChunkIS8_EEEESt4pairImmEDpOT_.exit: ; preds = %_ZN5folly3f146detail8F14ChunkIPKN8facebook5velox6BufferEE6setTagEmm.exit, %bb.o
  %i.cb = load i64, ptr %i.a, align 8, !tbaa !1823 ; 2 uses
  %i.cc = and i64 %i.cb, -256
  %6 = add i64 %i.cc, 256
  %7 = and i64 %i.cb, 255
  %i.cd = or disjoint i64 %6, %7
  store i64 %i.cd, ptr %i.a, align 8, !tbaa !1823
  br label %bb.p

end_hunk_0
begin_hunk_1_@_ZN8facebook5velox9functions12_GLOBAL__N_111SetWithNullINS2_18WrappedVectorEntryEE6insertEPKNS0_13DecodedVectorEi:bb.a
  store i32 %.0.i, ptr %.sroa.7.0..sroa_idx, align 8, !tbaa !3, !noalias !3224
  %i.dh = load i64, ptr %i.x, align 8, !tbaa !1823, !noalias !3224 ; 2 uses
  %i.di = and i64 %i.dh, -256
  %3 = add i64 %i.di, 256
  %4 = and i64 %i.dh, 255
  %i.dj = or disjoint i64 %3, %4
  store i64 %i.dj, ptr %i.x, align 8, !tbaa !1823, !noalias !3224
  br label %_ZN5folly3f146detail11F14BasicSetINS1_21VectorContainerPolicyIN8facebook5velox9functions12_GLOBAL__N_118WrappedVectorEntryEvNS7_11SetWithNullIS8_E4HashENSA_7EqualToEvSt17integral_constantIbLb1EEEEE6insertEOS8_.exit

end_hunk_1
begin_hunk_2_@_ZN5folly3f146detail8F14TableINS1_20ValueContainerPolicyIbvvvvEEE19tryEmplaceValueImplIbJbEEESt4pairINS1_11F14ItemIterIPNS1_8F14ChunkIbEEEEbES7_ImmERKT_DpOT0_:bb.a
_ZN5folly3f146detail8F14TableINS1_20ValueContainerPolicyIbvvvvEEE13insertAtBlankIJbEEEvNS1_11F14ItemIterIPNS1_8F14ChunkIbEEEESt4pairImmEDpOT_.exit: ; preds = %_ZN5folly3f146detail8F14ChunkIbE6setTagEmm.exit, %bb.o
  %i.by = load i64, ptr %i.a, align 8, !tbaa !1823 ; 2 uses
  %i.bz = and i64 %i.by, -256
  %6 = add i64 %i.bz, 256
  %7 = and i64 %i.by, 255
  %i.ca = or disjoint i64 %6, %7
  store i64 %i.ca, ptr %i.a, align 8, !tbaa !1823
  br label %bb.p

end_hunk_2
begin_hunk_3_@_ZN5folly3f146detail8F14TableINS1_20ValueContainerPolicyIivvvvEEE19tryEmplaceValueImplIiJiEEESt4pairINS1_11F14ItemIterIPNS1_8F14ChunkIiEEEEbES7_ImmERKT_DpOT0_:bb.a
_ZN5folly3f146detail8F14TableINS1_20ValueContainerPolicyIivvvvEEE13insertAtBlankIJiEEEvNS1_11F14ItemIterIPNS1_8F14ChunkIiEEEESt4pairImmEDpOT_.exit: ; preds = %_ZN5folly3f146detail8F14ChunkIiE6setTagEmm.exit, %bb.o
  %i.ca = load i64, ptr %i.a, align 8, !tbaa !1823 ; 2 uses
  %i.cb = and i64 %i.ca, -256
  %6 = add i64 %i.cb, 256
  %7 = and i64 %i.ca, 255
  %i.cc = or disjoint i64 %6, %7
  store i64 %i.cc, ptr %i.a, align 8, !tbaa !1823
  br label %bb.p

end_hunk_3
begin_hunk_4_@_ZN5folly3f146detail8F14TableINS1_20ValueContainerPolicyIavvvvEEE19tryEmplaceValueImplIaJaEEESt4pairINS1_11F14ItemIterIPNS1_8F14ChunkIaEEEEbES7_ImmERKT_DpOT0_:bb.a
_ZN5folly3f146detail8F14TableINS1_20ValueContainerPolicyIavvvvEEE13insertAtBlankIJaEEEvNS1_11F14ItemIterIPNS1_8F14ChunkIaEEEESt4pairImmEDpOT_.exit: ; preds = %_ZN5folly3f146detail8F14ChunkIaE6setTagEmm.exit, %bb.o
  %i.by = load i64, ptr %i.a, align 8, !tbaa !1823 ; 2 uses
  %i.bz = and i64 %i.by, -256
  %6 = add i64 %i.bz, 256
  %7 = and i64 %i.by, 255
  %i.ca = or disjoint i64 %6, %7
  store i64 %i.ca, ptr %i.a, align 8, !tbaa !1823
  br label %bb.p

end_hunk_4
begin_hunk_5_@_ZN5folly3f146detail8F14TableINS1_20ValueContainerPolicyIsvvvvEEE19tryEmplaceValueImplIsJsEEESt4pairINS1_11F14ItemIterIPNS1_8F14ChunkIsEEEEbES7_ImmERKT_DpOT0_:bb.a
_ZN5folly3f146detail8F14TableINS1_20ValueContainerPolicyIsvvvvEEE13insertAtBlankIJsEEEvNS1_11F14ItemIterIPNS1_8F14ChunkIsEEEESt4pairImmEDpOT_.exit: ; preds = %_ZN5folly3f146detail8F14ChunkIsE6setTagEmm.exit, %bb.o
  %i.ca = load i64, ptr %i.a, align 8, !tbaa !1823 ; 2 uses
  %i.cb = and i64 %i.ca, -256
  %6 = add i64 %i.cb, 256
  %7 = and i64 %i.ca, 255
  %i.cc = or disjoint i64 %6, %7
  store i64 %i.cc, ptr %i.a, align 8, !tbaa !1823
  br label %bb.p

end_hunk_5
begin_hunk_6_@_ZN5folly3f146detail8F14TableINS1_20ValueContainerPolicyIlvvvvEEE19tryEmplaceValueImplIlJlEEESt4pairINS1_11F14ItemIterIPNS1_8F14ChunkIlEEEEbES7_ImmERKT_DpOT0_:bb.a
_ZN5folly3f146detail8F14TableINS1_20ValueContainerPolicyIlvvvvEEE13insertAtBlankIJlEEEvNS1_11F14ItemIterIPNS1_8F14ChunkIlEEEESt4pairImmEDpOT_.exit: ; preds = %_ZN5folly3f146detail8F14ChunkIlE6setTagEmm.exit, %bb.o
  %i.cb = load i64, ptr %i.a, align 8, !tbaa !1823 ; 2 uses
  %i.cc = and i64 %i.cb, -256
  %6 = add i64 %i.cc, 256
  %7 = and i64 %i.cb, 255
  %i.cd = or disjoint i64 %6, %7
  store i64 %i.cd, ptr %i.a, align 8, !tbaa !1823
  br label %bb.p

end_hunk_6
begin_hunk_7_@_ZN5folly3f146detail8F14TableINS1_20ValueContainerPolicyInvvvvEEE19tryEmplaceValueImplInJnEEESt4pairINS1_11F14ItemIterIPNS1_8F14ChunkInEEEEbES7_ImmERKT_DpOT0_:bb.a
_ZN5folly3f146detail8F14TableINS1_20ValueContainerPolicyInvvvvEEE13insertAtBlankIJnEEEvNS1_11F14ItemIterIPNS1_8F14ChunkInEEEESt4pairImmEDpOT_.exit: ; preds = %_ZN5folly3f146detail8F14ChunkInE6setTagEmm.exit, %bb.n
  %i.bz = load i64, ptr %i.a, align 8, !tbaa !1823 ; 2 uses
  %i.ca = and i64 %i.bz, -256
  %6 = add i64 %i.ca, 256
  %7 = and i64 %i.bz, 255
  %i.cb = or disjoint i64 %6, %7
  store i64 %i.cb, ptr %i.a, align 8, !tbaa !1823
  br label %.loopexit

end_hunk_7
begin_hunk_8_@_ZNK8facebook5velox9functions12_GLOBAL__N_121ArraysOverlapFunctionIfE5applyERKNS0_17SelectivityVectorERSt6vectorISt10shared_ptrINS0_10BaseVectorEESaISB_EERKS9_IKNS0_4TypeEERNS0_4exec7EvalCtxERSB_:bb.a
_ZN5folly3f146detail8F14TableINS1_20ValueContainerPolicyIfvN8facebook5velox4util14floating_point12NaNAwareHashIfLb1EEENS7_14NaNAwareEqualsIfLb1EEEvEEE13insertAtBlankIJfEEEvNS1_11F14ItemIterIPNS1_8F14ChunkIfEEEESt4pairImmEDpOT_.exit.i.i.i.i.i: ; preds = %bb.dw, %_ZN5folly3f146detail8F14ChunkIfE6setTagEmm.exit.i.i.i.i.i
  %i.xq = load i64, ptr %i.hr, align 8, !tbaa !1823, !noalias !3922 ; 2 uses
  %i.xr = and i64 %i.xq, -256
  %16 = add i64 %i.xr, 256
  %17 = and i64 %i.xq, 255
  %i.xs = or disjoint i64 %16, %17
  store i64 %i.xs, ptr %i.hr, align 8, !tbaa !1823, !noalias !3922
  br label %_ZN5folly3f146detail8F14TableINS1_20ValueContainerPolicyIfvN8facebook5velox4util14floating_point12NaNAwareHashIfLb1EEENS7_14NaNAwareEqualsIfLb1EEEvEEE19tryEmplaceValueImplIfJfEEESt4pairINS1_11F14ItemIterIPNS1_8F14ChunkIfEEEEbESF_ImmERKT_DpOT0_.exit.i.i.i.i

end_hunk_8
begin_hunk_9_@_ZN5folly3f146detail8F14TableINS1_20ValueContainerPolicyIfvN8facebook5velox4util14floating_point12NaNAwareHashIfLb1EEENS7_14NaNAwareEqualsIfLb1EEEvEEE19tryEmplaceValueImplIfJfEEESt4pairINS1_11F14ItemIterIPNS1_8F14ChunkIfEEEEbESF_ImmERKT_DpOT0_:bb.a
_ZN5folly3f146detail8F14TableINS1_20ValueContainerPolicyIfvN8facebook5velox4util14floating_point12NaNAwareHashIfLb1EEENS7_14NaNAwareEqualsIfLb1EEEvEEE13insertAtBlankIJfEEEvNS1_11F14ItemIterIPNS1_8F14ChunkIfEEEESt4pairImmEDpOT_.exit: ; preds = %_ZN5folly3f146detail8F14ChunkIfE6setTagEmm.exit, %bb.o
  %i.cc = load i64, ptr %i.a, align 8, !tbaa !1823 ; 2 uses
  %i.cd = and i64 %i.cc, -256
  %6 = add i64 %i.cd, 256
  %7 = and i64 %i.cc, 255
  %i.ce = or disjoint i64 %6, %7
  store i64 %i.ce, ptr %i.a, align 8, !tbaa !1823
  br label %bb.p

end_hunk_9
begin_hunk_10_@_ZNK8facebook5velox9functions12_GLOBAL__N_121ArraysOverlapFunctionIdE5applyERKNS0_17SelectivityVectorERSt6vectorISt10shared_ptrINS0_10BaseVectorEESaISB_EERKS9_IKNS0_4TypeEERNS0_4exec7EvalCtxERSB_:bb.a
_ZN5folly3f146detail8F14TableINS1_20ValueContainerPolicyIdvN8facebook5velox4util14floating_point12NaNAwareHashIdLb1EEENS7_14NaNAwareEqualsIdLb1EEEvEEE13insertAtBlankIJdEEEvNS1_11F14ItemIterIPNS1_8F14ChunkIdEEEESt4pairImmEDpOT_.exit.i.i.i.i.i: ; preds = %bb.dw, %_ZN5folly3f146detail8F14ChunkIdE6setTagEmm.exit.i.i.i.i.i
  %i.xs = load i64, ptr %i.hr, align 8, !tbaa !1823, !noalias !4011 ; 2 uses
  %i.xt = and i64 %i.xs, -256
  %16 = add i64 %i.xt, 256
  %17 = and i64 %i.xs, 255
  %i.xu = or disjoint i64 %16, %17
  store i64 %i.xu, ptr %i.hr, align 8, !tbaa !1823, !noalias !4011
  br label %_ZN5folly3f146detail8F14TableINS1_20ValueContainerPolicyIdvN8facebook5velox4util14floating_point12NaNAwareHashIdLb1EEENS7_14NaNAwareEqualsIdLb1EEEvEEE19tryEmplaceValueImplIdJdEEESt4pairINS1_11F14ItemIterIPNS1_8F14ChunkIdEEEEbESF_ImmERKT_DpOT0_.exit.i.i.i.i

end_hunk_10
begin_hunk_11_@_ZN5folly3f146detail8F14TableINS1_20ValueContainerPolicyIdvN8facebook5velox4util14floating_point12NaNAwareHashIdLb1EEENS7_14NaNAwareEqualsIdLb1EEEvEEE19tryEmplaceValueImplIdJdEEESt4pairINS1_11F14ItemIterIPNS1_8F14ChunkIdEEEEbESF_ImmERKT_DpOT0_:bb.a
_ZN5folly3f146detail8F14TableINS1_20ValueContainerPolicyIdvN8facebook5velox4util14floating_point12NaNAwareHashIdLb1EEENS7_14NaNAwareEqualsIdLb1EEEvEEE13insertAtBlankIJdEEEvNS1_11F14ItemIterIPNS1_8F14ChunkIdEEEESt4pairImmEDpOT_.exit: ; preds = %_ZN5folly3f146detail8F14ChunkIdE6setTagEmm.exit, %bb.o
  %i.cd = load i64, ptr %i.a, align 8, !tbaa !1823 ; 2 uses
  %i.ce = and i64 %i.cd, -256
  %6 = add i64 %i.ce, 256
  %7 = and i64 %i.cd, 255
  %i.cf = or disjoint i64 %6, %7
  store i64 %i.cf, ptr %i.a, align 8, !tbaa !1823
  br label %bb.p

end_hunk_11
begin_hunk_12_@_ZN5folly3f146detail8F14TableINS1_20ValueContainerPolicyIN8facebook5velox10StringViewEvvvvEEE19tryEmplaceValueImplIS6_JS6_EEESt4pairINS1_11F14ItemIterIPNS1_8F14ChunkIS6_EEEEbESA_ImmERKT_DpOT0_:bb.a
_ZN5folly3f146detail8F14TableINS1_20ValueContainerPolicyIN8facebook5velox10StringViewEvvvvEEE13insertAtBlankIJS6_EEEvNS1_11F14ItemIterIPNS1_8F14ChunkIS6_EEEESt4pairImmEDpOT_.exit: ; preds = %_ZN5folly3f146detail8F14ChunkIN8facebook5velox10StringViewEE6setTagEmm.exit, %bb.r
  %i.ea = load i64, ptr %i.a, align 8, !tbaa !1823 ; 2 uses
  %i.eb = and i64 %i.ea, -256
  %6 = add i64 %i.eb, 256
  %7 = and i64 %i.ea, 255
  %i.ec = or disjoint i64 %6, %7
  store i64 %i.ec, ptr %i.a, align 8, !tbaa !1823
  br label %_ZNK5folly3f146detail20ValueContainerPolicyIN8facebook5velox10StringViewEvvvvE14keyMatchesItemIS5_EEbRKT_RKS5_.exit.thread

end_hunk_12
begin_hunk_13_@_ZN5folly3f146detail8F14TableINS1_20ValueContainerPolicyIN8facebook5velox9TimestampEvvvvEEE19tryEmplaceValueImplIS6_JS6_EEESt4pairINS1_11F14ItemIterIPNS1_8F14ChunkIS6_EEEEbESA_ImmERKT_DpOT0_:bb.a
_ZN5folly3f146detail8F14TableINS1_20ValueContainerPolicyIN8facebook5velox9TimestampEvvvvEEE13insertAtBlankIJS6_EEEvNS1_11F14ItemIterIPNS1_8F14ChunkIS6_EEEESt4pairImmEDpOT_.exit: ; preds = %_ZN5folly3f146detail8F14ChunkIN8facebook5velox9TimestampEE6setTagEmm.exit, %bb.n
  %i.cb = load i64, ptr %i.a, align 8, !tbaa !1823 ; 2 uses
  %i.cc = and i64 %i.cb, -256
  %6 = add i64 %i.cc, 256
  %7 = and i64 %i.cb, 255
  %i.cd = or disjoint i64 %6, %7
  store i64 %i.cd, ptr %i.a, align 8, !tbaa !1823
  br label %.loopexit

end_hunk_13
begin_hunk_14_@_ZN5folly3f146detail8F14TableINS1_21VectorContainerPolicyIN8facebook5velox9functions12_GLOBAL__N_118WrappedVectorEntryEvNS7_11SetWithNullIS8_E4HashENSA_7EqualToEvSt17integral_constantIbLb1EEEEE17buildFromF14TableIRKSG_EEvOT_:bb.a
  store i8 %i.ck, ptr %i.cg, align 1, !tbaa !14
  %i.cl = load i64, ptr %i.ad, align 8, !tbaa !1823 ; 2 uses
  %i.cm = and i64 %i.cl, -256
  %3 = add i64 %i.cm, 256
  %4 = and i64 %i.cl, 255
  %i.cn = or disjoint i64 %3, %4                  ; 2 uses
  store i64 %i.cn, ptr %i.ad, align 8, !tbaa !1823
  %i.co = add i64 %.03679.i.i, 1
  %.not74.i.i = icmp eq i32 %.sroa.0.1.i.i, 0
end_hunk_14
begin_hunk_15_@_ZN5folly3f146detail8F14TableINS1_21VectorContainerPolicyIN8facebook5velox9functions12_GLOBAL__N_118WrappedVectorEntryEvNS7_11SetWithNullIS8_E4HashENSA_7EqualToEvSt17integral_constantIbLb1EEEEE17buildFromF14TableIRKSG_EEvOT_:bb.a
  store i32 %.val71.i.i, ptr %i.fb, align 4, !tbaa !3
  %i.fd = load i64, ptr %i.ad, align 8, !tbaa !1823 ; 2 uses
  %i.fe = and i64 %i.fd, -256
  %5 = add i64 %i.fe, 256
  %6 = and i64 %i.fd, 255
  %i.ff = or disjoint i64 %5, %6
  store i64 %i.ff, ptr %i.ad, align 8, !tbaa !1823
  %.not149.i.i = icmp eq i32 %.sroa.0109.2.i.i, 0
  br i1 %.not149.i.i, label %.loopexit.i.i, label %.preheader.i.i, !llvm.loop !4313
end_hunk_15
begin_hunk_16_@_ZN5folly3f146detail8F14TableINS1_21VectorContainerPolicyIN8facebook5velox9functions12_GLOBAL__N_118WrappedVectorEntryEvNS7_11SetWithNullIS8_E4HashENSA_7EqualToEvSt17integral_constantIbLb1EEEEE17buildFromF14TableIRKSG_EEvOT_:bb.a
  store i32 %.val70.i.i, ptr %i.gy, align 4, !tbaa !3
  %i.ha = load i64, ptr %i.ad, align 8, !tbaa !1823 ; 2 uses
  %i.hb = and i64 %i.ha, -256
  %7 = add i64 %i.hb, 256
  %8 = and i64 %i.ha, 255
  %i.hc = or disjoint i64 %7, %8
  store i64 %i.hc, ptr %i.ad, align 8, !tbaa !1823
  %.not148.i.i = icmp eq i32 %.sroa.0109.3.i.i, 0
  br i1 %.not148.i.i, label %.loopexit.i.i, label %.preheader152.i.i, !llvm.loop !4314
end_hunk_16
begin_hunk_17_@_ZZNK8facebook5velox9functions12_GLOBAL__N_126ArraysIntersectSingleParamIbE5applyERKNS0_17SelectivityVectorERSt6vectorISt10shared_ptrINS0_10BaseVectorEESaISB_EERKS9_IKNS0_4TypeEERNS0_4exec7EvalCtxERSB_ENKUliE_clEi:bb.a
bb.az:                                            ; preds = %_ZN5folly3f146detail8F14ChunkIbE6setTagEmm.exit.i, %bb.ay
  %i.nl = load i64, ptr %i.bg, align 8, !tbaa !1823, !noalias !4382 ; 2 uses
  %i.nm = and i64 %i.nl, -256
  %4 = add i64 %i.nm, 256
  %5 = and i64 %i.nl, 255
  %i.nn = or disjoint i64 %4, %5
  store i64 %i.nn, ptr %i.bg, align 8, !tbaa !1823, !noalias !4382
  %i.no = load ptr, ptr %i.bu, align 8, !tbaa !4385, !nonnull !93, !align !1670
  %i.np = load ptr, ptr %i.no, align 8, !tbaa !1816
end_hunk_17
begin_hunk_18_@_ZN5folly3f146detail8F14TableINS1_20ValueContainerPolicyIbvvvvEEE15directBuildFromIRKS5_EEvOT_:_ZNK5folly3f146detail8F14TableINS1_20ValueContainerPolicyIbvvvvEEE9itemCountEv.exit
  store i8 %i.bv, ptr %i.br, align 1, !tbaa !14
  %i.bw = load i64, ptr %i.c, align 8, !tbaa !1823 ; 2 uses
  %i.bx = and i64 %i.bw, -256
  %2 = add i64 %i.bx, 256
  %3 = and i64 %i.bw, 255
  %i.by = or disjoint i64 %2, %3                  ; 2 uses
  store i64 %i.by, ptr %i.c, align 8, !tbaa !1823
  %i.bz = add i64 %.04582, 1
  %.not77 = icmp eq i32 %.sroa.062.1, 0
end_hunk_18
begin_hunk_19_@_ZN5folly3f146detail8F14TableINS1_20ValueContainerPolicyIbvvvvEEE15rehashBuildFromIRKS5_EEvOT_:bb.a
bb.l:                                             ; preds = %bb.k, %bb.j
  %i.bu = load i64, ptr %i.a, align 8, !tbaa !1823 ; 2 uses
  %i.bv = and i64 %i.bu, -256
  %3 = add i64 %i.bv, 256
  %4 = and i64 %i.bu, 255
  %i.bw = or disjoint i64 %3, %4                  ; 3 uses
  store i64 %i.bw, ptr %i.a, align 8, !tbaa !1823
  %.not113 = icmp eq i32 %.sroa.073.2, 0
  br i1 %.not113, label %.loopexit, label %bb.f, !llvm.loop !4393
end_hunk_19
begin_hunk_20_@_ZN5folly3f146detail8F14TableINS1_20ValueContainerPolicyIbvvvvEEE15rehashBuildFromIRKS5_EEvOT_:bb.a
_ZN5folly3f146detail8F14TableINS1_20ValueContainerPolicyIbvvvvEEE13insertAtBlankIJRKbEEEvNS1_11F14ItemIterIPNS1_8F14ChunkIbEEEESt4pairImmEDpOT_.exit68: ; preds = %bb.t, %bb.u
  %i.dx = load i64, ptr %i.a, align 8, !tbaa !1823 ; 2 uses
  %i.dy = and i64 %i.dx, -256
  %5 = add i64 %i.dy, 256
  %6 = and i64 %i.dx, 255
  %i.dz = or disjoint i64 %5, %6                  ; 3 uses
  store i64 %i.dz, ptr %i.a, align 8, !tbaa !1823
  %.not112 = icmp eq i32 %.sroa.073.3, 0
  br i1 %.not112, label %.loopexit, label %bb.m
end_hunk_20
begin_hunk_21_@_ZZNK8facebook5velox9functions12_GLOBAL__N_126ArraysIntersectSingleParamIiE5applyERKNS0_17SelectivityVectorERSt6vectorISt10shared_ptrINS0_10BaseVectorEESaISB_EERKS9_IKNS0_4TypeEERNS0_4exec7EvalCtxERSB_ENKUliE_clEi:bb.a
bb.az:                                            ; preds = %_ZN5folly3f146detail8F14ChunkIiE6setTagEmm.exit.i, %bb.ay
  %i.nd = load i64, ptr %i.bg, align 8, !tbaa !1823, !noalias !4429 ; 2 uses
  %i.ne = and i64 %i.nd, -256
  %4 = add i64 %i.ne, 256
  %5 = and i64 %i.nd, 255
  %i.nf = or disjoint i64 %4, %5
  store i64 %i.nf, ptr %i.bg, align 8, !tbaa !1823, !noalias !4429
  %i.ng = load ptr, ptr %i.bu, align 8, !tbaa !4432, !nonnull !93, !align !1670
  %i.nh = load ptr, ptr %i.ng, align 8, !tbaa !1816
end_hunk_21
begin_hunk_22_@_ZN5folly3f146detail8F14TableINS1_20ValueContainerPolicyIivvvvEEE15directBuildFromIRKS5_EEvOT_:_ZNK5folly3f146detail8F14TableINS1_20ValueContainerPolicyIivvvvEEE9itemCountEv.exit
  store i8 %i.bx, ptr %i.bt, align 1, !tbaa !14
  %i.by = load i64, ptr %i.c, align 8, !tbaa !1823 ; 2 uses
  %i.bz = and i64 %i.by, -256
  %2 = add i64 %i.bz, 256
  %3 = and i64 %i.by, 255
  %i.ca = or disjoint i64 %2, %3                  ; 2 uses
  store i64 %i.ca, ptr %i.c, align 8, !tbaa !1823
  %i.cb = add i64 %.04590, 1
  %.not79 = icmp eq i32 %.sroa.064.1, 0
end_hunk_22
begin_hunk_23_@_ZN5folly3f146detail8F14TableINS1_20ValueContainerPolicyIivvvvEEE15rehashBuildFromIRKS5_EEvOT_:bb.a
bb.l:                                             ; preds = %bb.k, %bb.j
  %i.ca = load i64, ptr %i.a, align 8, !tbaa !1823 ; 2 uses
  %i.cb = and i64 %i.ca, -256
  %3 = add i64 %i.cb, 256
  %4 = and i64 %i.ca, 255
  %i.cc = or disjoint i64 %3, %4                  ; 3 uses
  store i64 %i.cc, ptr %i.a, align 8, !tbaa !1823
  %.not113 = icmp eq i32 %.sroa.073.2, 0
  br i1 %.not113, label %.loopexit, label %bb.f, !llvm.loop !4440
end_hunk_23
begin_hunk_24_@_ZN5folly3f146detail8F14TableINS1_20ValueContainerPolicyIivvvvEEE15rehashBuildFromIRKS5_EEvOT_:bb.a
_ZN5folly3f146detail8F14TableINS1_20ValueContainerPolicyIivvvvEEE13insertAtBlankIJRKiEEEvNS1_11F14ItemIterIPNS1_8F14ChunkIiEEEESt4pairImmEDpOT_.exit68: ; preds = %bb.t, %bb.u
  %i.ef = load i64, ptr %i.a, align 8, !tbaa !1823 ; 2 uses
  %i.eg = and i64 %i.ef, -256
  %5 = add i64 %i.eg, 256
  %6 = and i64 %i.ef, 255
  %i.eh = or disjoint i64 %5, %6                  ; 3 uses
  store i64 %i.eh, ptr %i.a, align 8, !tbaa !1823
  %.not112 = icmp eq i32 %.sroa.073.3, 0
  br i1 %.not112, label %.loopexit, label %bb.m
end_hunk_24
begin_hunk_25_@_ZZNK8facebook5velox9functions12_GLOBAL__N_126ArraysIntersectSingleParamIaE5applyERKNS0_17SelectivityVectorERSt6vectorISt10shared_ptrINS0_10BaseVectorEESaISB_EERKS9_IKNS0_4TypeEERNS0_4exec7EvalCtxERSB_ENKUliE_clEi:bb.a
bb.az:                                            ; preds = %_ZN5folly3f146detail8F14ChunkIaE6setTagEmm.exit.i, %bb.ay
  %i.nb = load i64, ptr %i.bg, align 8, !tbaa !1823, !noalias !4476 ; 2 uses
  %i.nc = and i64 %i.nb, -256
  %4 = add i64 %i.nc, 256
  %5 = and i64 %i.nb, 255
  %i.nd = or disjoint i64 %4, %5
  store i64 %i.nd, ptr %i.bg, align 8, !tbaa !1823, !noalias !4476
  %i.ne = load ptr, ptr %i.bu, align 8, !tbaa !4479, !nonnull !93, !align !1670
  %i.nf = load ptr, ptr %i.ne, align 8, !tbaa !1816
end_hunk_25
begin_hunk_26_@_ZN5folly3f146detail8F14TableINS1_20ValueContainerPolicyIavvvvEEE15directBuildFromIRKS5_EEvOT_:_ZNK5folly3f146detail8F14TableINS1_20ValueContainerPolicyIavvvvEEE9itemCountEv.exit
  store i8 %i.bv, ptr %i.br, align 1, !tbaa !14
  %i.bw = load i64, ptr %i.c, align 8, !tbaa !1823 ; 2 uses
  %i.bx = and i64 %i.bw, -256
  %2 = add i64 %i.bx, 256
  %3 = and i64 %i.bw, 255
  %i.by = or disjoint i64 %2, %3                  ; 2 uses
  store i64 %i.by, ptr %i.c, align 8, !tbaa !1823
  %i.bz = add i64 %.04582, 1
  %.not77 = icmp eq i32 %.sroa.062.1, 0
end_hunk_26
begin_hunk_27_@_ZN5folly3f146detail8F14TableINS1_20ValueContainerPolicyIavvvvEEE15rehashBuildFromIRKS5_EEvOT_:bb.a
bb.l:                                             ; preds = %bb.k, %bb.j
  %i.bu = load i64, ptr %i.a, align 8, !tbaa !1823 ; 2 uses
  %i.bv = and i64 %i.bu, -256
  %3 = add i64 %i.bv, 256
  %4 = and i64 %i.bu, 255
  %i.bw = or disjoint i64 %3, %4                  ; 3 uses
  store i64 %i.bw, ptr %i.a, align 8, !tbaa !1823
  %.not113 = icmp eq i32 %.sroa.073.2, 0
  br i1 %.not113, label %.loopexit, label %bb.f, !llvm.loop !4487
end_hunk_27
begin_hunk_28_@_ZN5folly3f146detail8F14TableINS1_20ValueContainerPolicyIavvvvEEE15rehashBuildFromIRKS5_EEvOT_:bb.a
_ZN5folly3f146detail8F14TableINS1_20ValueContainerPolicyIavvvvEEE13insertAtBlankIJRKaEEEvNS1_11F14ItemIterIPNS1_8F14ChunkIaEEEESt4pairImmEDpOT_.exit68: ; preds = %bb.t, %bb.u
  %i.dx = load i64, ptr %i.a, align 8, !tbaa !1823 ; 2 uses
  %i.dy = and i64 %i.dx, -256
  %5 = add i64 %i.dy, 256
  %6 = and i64 %i.dx, 255
  %i.dz = or disjoint i64 %5, %6                  ; 3 uses
  store i64 %i.dz, ptr %i.a, align 8, !tbaa !1823
  %.not112 = icmp eq i32 %.sroa.073.3, 0
  br i1 %.not112, label %.loopexit, label %bb.m
end_hunk_28
begin_hunk_29_@_ZZNK8facebook5velox9functions12_GLOBAL__N_126ArraysIntersectSingleParamIsE5applyERKNS0_17SelectivityVectorERSt6vectorISt10shared_ptrINS0_10BaseVectorEESaISB_EERKS9_IKNS0_4TypeEERNS0_4exec7EvalCtxERSB_ENKUliE_clEi:bb.a
bb.az:                                            ; preds = %_ZN5folly3f146detail8F14ChunkIsE6setTagEmm.exit.i, %bb.ay
  %i.ne = load i64, ptr %i.bg, align 8, !tbaa !1823, !noalias !4523 ; 2 uses
  %i.nf = and i64 %i.ne, -256
  %4 = add i64 %i.nf, 256
  %5 = and i64 %i.ne, 255
  %i.ng = or disjoint i64 %4, %5
  store i64 %i.ng, ptr %i.bg, align 8, !tbaa !1823, !noalias !4523
  %i.nh = load ptr, ptr %i.bu, align 8, !tbaa !4526, !nonnull !93, !align !1670
  %i.ni = load ptr, ptr %i.nh, align 8, !tbaa !1816
end_hunk_29
begin_hunk_30_@_ZN5folly3f146detail8F14TableINS1_20ValueContainerPolicyIsvvvvEEE15directBuildFromIRKS5_EEvOT_:_ZNK5folly3f146detail8F14TableINS1_20ValueContainerPolicyIsvvvvEEE9itemCountEv.exit
  store i8 %i.cb, ptr %i.bx, align 1, !tbaa !14
  %i.cc = load i64, ptr %i.c, align 8, !tbaa !1823 ; 2 uses
  %i.cd = and i64 %i.cc, -256
  %2 = add i64 %i.cd, 256
  %3 = and i64 %i.cc, 255
  %i.ce = or disjoint i64 %2, %3                  ; 2 uses
  store i64 %i.ce, ptr %i.c, align 8, !tbaa !1823
  %i.cf = add i64 %.04588, 1
  %.not77 = icmp eq i32 %.sroa.062.1, 0
end_hunk_30
begin_hunk_31_@_ZN5folly3f146detail8F14TableINS1_20ValueContainerPolicyIsvvvvEEE15rehashBuildFromIRKS5_EEvOT_:bb.a
bb.l:                                             ; preds = %bb.k, %bb.j
  %i.ca = load i64, ptr %i.a, align 8, !tbaa !1823 ; 2 uses
  %i.cb = and i64 %i.ca, -256
  %3 = add i64 %i.cb, 256
  %4 = and i64 %i.ca, 255
  %i.cc = or disjoint i64 %3, %4                  ; 3 uses
  store i64 %i.cc, ptr %i.a, align 8, !tbaa !1823
  %.not113 = icmp eq i32 %.sroa.073.2, 0
  br i1 %.not113, label %.loopexit, label %bb.f, !llvm.loop !4534
end_hunk_31
begin_hunk_32_@_ZN5folly3f146detail8F14TableINS1_20ValueContainerPolicyIsvvvvEEE15rehashBuildFromIRKS5_EEvOT_:bb.a
_ZN5folly3f146detail8F14TableINS1_20ValueContainerPolicyIsvvvvEEE13insertAtBlankIJRKsEEEvNS1_11F14ItemIterIPNS1_8F14ChunkIsEEEESt4pairImmEDpOT_.exit68: ; preds = %bb.t, %bb.u
  %i.ef = load i64, ptr %i.a, align 8, !tbaa !1823 ; 2 uses
  %i.eg = and i64 %i.ef, -256
  %5 = add i64 %i.eg, 256
  %6 = and i64 %i.ef, 255
  %i.eh = or disjoint i64 %5, %6                  ; 3 uses
  store i64 %i.eh, ptr %i.a, align 8, !tbaa !1823
  %.not112 = icmp eq i32 %.sroa.073.3, 0
  br i1 %.not112, label %.loopexit, label %bb.m
end_hunk_32
begin_hunk_33_@_ZZNK8facebook5velox9functions12_GLOBAL__N_126ArraysIntersectSingleParamIlE5applyERKNS0_17SelectivityVectorERSt6vectorISt10shared_ptrINS0_10BaseVectorEESaISB_EERKS9_IKNS0_4TypeEERNS0_4exec7EvalCtxERSB_ENKUliE_clEi:bb.a
bb.az:                                            ; preds = %_ZN5folly3f146detail8F14ChunkIlE6setTagEmm.exit.i, %bb.ay
  %i.ne = load i64, ptr %i.bg, align 8, !tbaa !1823, !noalias !4570 ; 2 uses
  %i.nf = and i64 %i.ne, -256
  %4 = add i64 %i.nf, 256
  %5 = and i64 %i.ne, 255
  %i.ng = or disjoint i64 %4, %5
  store i64 %i.ng, ptr %i.bg, align 8, !tbaa !1823, !noalias !4570
  %i.nh = load ptr, ptr %i.bu, align 8, !tbaa !4573, !nonnull !93, !align !1670
  %i.ni = load ptr, ptr %i.nh, align 8, !tbaa !1816
end_hunk_33
begin_hunk_34_@_ZN5folly3f146detail8F14TableINS1_20ValueContainerPolicyIlvvvvEEE15directBuildFromIRKS5_EEvOT_:_ZNK5folly3f146detail8F14TableINS1_20ValueContainerPolicyIlvvvvEEE9itemCountEv.exit
  store i8 %i.cb, ptr %i.bx, align 1, !tbaa !14
  %i.cc = load i64, ptr %i.c, align 8, !tbaa !1823 ; 2 uses
  %i.cd = and i64 %i.cc, -256
  %2 = add i64 %i.cd, 256
  %3 = and i64 %i.cc, 255
  %i.ce = or disjoint i64 %2, %3                  ; 2 uses
  store i64 %i.ce, ptr %i.c, align 8, !tbaa !1823
  %i.cf = add i64 %.04584, 1
  %.not77 = icmp eq i32 %.sroa.062.1, 0
end_hunk_34
begin_hunk_35_@_ZN5folly3f146detail8F14TableINS1_20ValueContainerPolicyIlvvvvEEE15rehashBuildFromIRKS5_EEvOT_:bb.a
bb.l:                                             ; preds = %bb.k, %bb.j
  %i.cb = load i64, ptr %i.a, align 8, !tbaa !1823 ; 2 uses
  %i.cc = and i64 %i.cb, -256
  %3 = add i64 %i.cc, 256
  %4 = and i64 %i.cb, 255
  %i.cd = or disjoint i64 %3, %4                  ; 3 uses
  store i64 %i.cd, ptr %i.a, align 8, !tbaa !1823
  %.not113 = icmp eq i32 %.sroa.073.2, 0
  br i1 %.not113, label %.loopexit, label %bb.f, !llvm.loop !4581
end_hunk_35
begin_hunk_36_@_ZN5folly3f146detail8F14TableINS1_20ValueContainerPolicyIlvvvvEEE15rehashBuildFromIRKS5_EEvOT_:bb.a
_ZN5folly3f146detail8F14TableINS1_20ValueContainerPolicyIlvvvvEEE13insertAtBlankIJRKlEEEvNS1_11F14ItemIterIPNS1_8F14ChunkIlEEEESt4pairImmEDpOT_.exit68: ; preds = %bb.t, %bb.u
  %i.ef = load i64, ptr %i.a, align 8, !tbaa !1823 ; 2 uses
  %i.eg = and i64 %i.ef, -256
  %5 = add i64 %i.eg, 256
  %6 = and i64 %i.ef, 255
  %i.eh = or disjoint i64 %5, %6                  ; 3 uses
  store i64 %i.eh, ptr %i.a, align 8, !tbaa !1823
  %.not112 = icmp eq i32 %.sroa.073.3, 0
  br i1 %.not112, label %.loopexit, label %bb.m
end_hunk_36
begin_hunk_37_@_ZZNK8facebook5velox9functions12_GLOBAL__N_126ArraysIntersectSingleParamInE5applyERKNS0_17SelectivityVectorERSt6vectorISt10shared_ptrINS0_10BaseVectorEESaISB_EERKS9_IKNS0_4TypeEERNS0_4exec7EvalCtxERSB_ENKUliE_clEi:bb.a
bb.az:                                            ; preds = %_ZN5folly3f146detail8F14ChunkInE6setTagEmm.exit.i, %bb.ay
  %i.nf = load i64, ptr %i.bg, align 8, !tbaa !1823, !noalias !4617 ; 2 uses
  %i.ng = and i64 %i.nf, -256
  %4 = add i64 %i.ng, 256
  %5 = and i64 %i.nf, 255
  %i.nh = or disjoint i64 %4, %5
  store i64 %i.nh, ptr %i.bg, align 8, !tbaa !1823, !noalias !4617
  %i.ni = load ptr, ptr %i.bu, align 8, !tbaa !4620, !nonnull !93, !align !1670
  %i.nj = load ptr, ptr %i.ni, align 8, !tbaa !1816
end_hunk_37
begin_hunk_38_@_ZN5folly3f146detail8F14TableINS1_20ValueContainerPolicyInvvvvEEE15directBuildFromIRKS5_EEvOT_:_ZNK5folly3f146detail8F14TableINS1_20ValueContainerPolicyInvvvvEEE9itemCountEv.exit
  store i8 %i.cc, ptr %i.by, align 1, !tbaa !14
  %i.cd = load i64, ptr %i.c, align 8, !tbaa !1823 ; 2 uses
  %i.ce = and i64 %i.cd, -256
  %2 = add i64 %i.ce, 256
  %3 = and i64 %i.cd, 255
  %i.cf = or disjoint i64 %2, %3                  ; 2 uses
  store i64 %i.cf, ptr %i.c, align 8, !tbaa !1823
  %i.cg = add i64 %.04586, 1
  %.not77 = icmp eq i32 %.sroa.062.1, 0
end_hunk_38
begin_hunk_39_@_ZN5folly3f146detail8F14TableINS1_20ValueContainerPolicyInvvvvEEE15rehashBuildFromIRKS5_EEvOT_:bb.a
bb.l:                                             ; preds = %bb.k, %bb.j
  %i.bx = load i64, ptr %i.a, align 8, !tbaa !1823 ; 2 uses
  %i.by = and i64 %i.bx, -256
  %3 = add i64 %i.by, 256
  %4 = and i64 %i.bx, 255
  %i.bz = or disjoint i64 %3, %4                  ; 3 uses
  store i64 %i.bz, ptr %i.a, align 8, !tbaa !1823
  %.not113 = icmp eq i32 %.sroa.073.2, 0
  br i1 %.not113, label %.loopexit, label %bb.f, !llvm.loop !4628
end_hunk_39
begin_hunk_40_@_ZN5folly3f146detail8F14TableINS1_20ValueContainerPolicyInvvvvEEE15rehashBuildFromIRKS5_EEvOT_:bb.a
_ZN5folly3f146detail8F14TableINS1_20ValueContainerPolicyInvvvvEEE13insertAtBlankIJRKnEEEvNS1_11F14ItemIterIPNS1_8F14ChunkInEEEESt4pairImmEDpOT_.exit68: ; preds = %bb.t, %bb.u
  %i.eb = load i64, ptr %i.a, align 8, !tbaa !1823 ; 2 uses
  %i.ec = and i64 %i.eb, -256
  %5 = add i64 %i.ec, 256
  %6 = and i64 %i.eb, 255
  %i.ed = or disjoint i64 %5, %6                  ; 3 uses
  store i64 %i.ed, ptr %i.a, align 8, !tbaa !1823
  %.not112 = icmp eq i32 %.sroa.073.3, 0
  br i1 %.not112, label %.loopexit, label %bb.m
end_hunk_40
begin_hunk_41_@_ZZNK8facebook5velox9functions12_GLOBAL__N_126ArraysIntersectSingleParamIfE5applyERKNS0_17SelectivityVectorERSt6vectorISt10shared_ptrINS0_10BaseVectorEESaISB_EERKS9_IKNS0_4TypeEERNS0_4exec7EvalCtxERSB_ENKUliE_clEi:bb.a
bb.bj:                                            ; preds = %_ZN5folly3f146detail8F14ChunkIfE6setTagEmm.exit.i, %bb.bi
  %i.pa = load i64, ptr %i.bg, align 8, !tbaa !1823, !noalias !4673 ; 2 uses
  %i.pb = and i64 %i.pa, -256
  %4 = add i64 %i.pb, 256
  %5 = and i64 %i.pa, 255
  %i.pc = or disjoint i64 %4, %5
  store i64 %i.pc, ptr %i.bg, align 8, !tbaa !1823, !noalias !4673
  %i.pd = load ptr, ptr %i.bu, align 8, !tbaa !4676, !nonnull !93, !align !1670
  %i.pe = load ptr, ptr %i.pd, align 8, !tbaa !1816
end_hunk_41
begin_hunk_42_@_ZN5folly3f146detail8F14TableINS1_20ValueContainerPolicyIfvN8facebook5velox4util14floating_point12NaNAwareHashIfLb1EEENS7_14NaNAwareEqualsIfLb1EEEvEEE15directBuildFromIRKSD_EEvOT_:_ZNK5folly3f146detail8F14TableINS1_20ValueContainerPolicyIfvN8facebook5velox4util14floating_point12NaNAwareHashIfLb1EEENS7_14NaNAwareEqualsIfLb1EEEvEEE9itemCountEv.exit
  store i8 %i.bx, ptr %i.bt, align 1, !tbaa !14
  %i.by = load i64, ptr %i.c, align 8, !tbaa !1823 ; 2 uses
  %i.bz = and i64 %i.by, -256
  %2 = add i64 %i.bz, 256
  %3 = and i64 %i.by, 255
  %i.ca = or disjoint i64 %2, %3                  ; 2 uses
  store i64 %i.ca, ptr %i.c, align 8, !tbaa !1823
  %i.cb = add i64 %.04590, 1
  %.not79 = icmp eq i32 %.sroa.064.1, 0
end_hunk_42
begin_hunk_43_@_ZN5folly3f146detail8F14TableINS1_20ValueContainerPolicyIfvN8facebook5velox4util14floating_point12NaNAwareHashIfLb1EEENS7_14NaNAwareEqualsIfLb1EEEvEEE15rehashBuildFromIRKSD_EEvOT_:bb.a
bb.l:                                             ; preds = %bb.k, %bb.j
  %i.ca = load i64, ptr %i.a, align 8, !tbaa !1823 ; 2 uses
  %i.cb = and i64 %i.ca, -256
  %3 = add i64 %i.cb, 256
  %4 = and i64 %i.ca, 255
  %i.cc = or disjoint i64 %3, %4                  ; 3 uses
  store i64 %i.cc, ptr %i.a, align 8, !tbaa !1823
  %.not113 = icmp eq i32 %.sroa.073.2, 0
  br i1 %.not113, label %.loopexit, label %bb.f, !llvm.loop !4684
end_hunk_43
begin_hunk_44_@_ZN5folly3f146detail8F14TableINS1_20ValueContainerPolicyIfvN8facebook5velox4util14floating_point12NaNAwareHashIfLb1EEENS7_14NaNAwareEqualsIfLb1EEEvEEE15rehashBuildFromIRKSD_EEvOT_:bb.a
_ZN5folly3f146detail8F14TableINS1_20ValueContainerPolicyIfvN8facebook5velox4util14floating_point12NaNAwareHashIfLb1EEENS7_14NaNAwareEqualsIfLb1EEEvEEE13insertAtBlankIJRKfEEEvNS1_11F14ItemIterIPNS1_8F14ChunkIfEEEESt4pairImmEDpOT_.exit68: ; preds = %bb.y, %bb.z
  %i.ey = load i64, ptr %i.a, align 8, !tbaa !1823 ; 2 uses
  %i.ez = and i64 %i.ey, -256
  %5 = add i64 %i.ez, 256
  %6 = and i64 %i.ey, 255
  %i.fa = or disjoint i64 %5, %6                  ; 2 uses
  store i64 %i.fa, ptr %i.a, align 8, !tbaa !1823
  %.not112 = icmp eq i32 %.sroa.073.3, 0
  br i1 %.not112, label %.loopexit, label %bb.m
end_hunk_44
begin_hunk_45_@_ZZNK8facebook5velox9functions12_GLOBAL__N_126ArraysIntersectSingleParamIdE5applyERKNS0_17SelectivityVectorERSt6vectorISt10shared_ptrINS0_10BaseVectorEESaISB_EERKS9_IKNS0_4TypeEERNS0_4exec7EvalCtxERSB_ENKUliE_clEi:bb.a
bb.bj:                                            ; preds = %_ZN5folly3f146detail8F14ChunkIdE6setTagEmm.exit.i, %bb.bi
  %i.pd = load i64, ptr %i.bg, align 8, !tbaa !1823, !noalias !4729 ; 2 uses
  %i.pe = and i64 %i.pd, -256
  %4 = add i64 %i.pe, 256
  %5 = and i64 %i.pd, 255
  %i.pf = or disjoint i64 %4, %5
  store i64 %i.pf, ptr %i.bg, align 8, !tbaa !1823, !noalias !4729
  %i.pg = load ptr, ptr %i.bu, align 8, !tbaa !4732, !nonnull !93, !align !1670
  %i.ph = load ptr, ptr %i.pg, align 8, !tbaa !1816
end_hunk_45
begin_hunk_46_@_ZN5folly3f146detail8F14TableINS1_20ValueContainerPolicyIdvN8facebook5velox4util14floating_point12NaNAwareHashIdLb1EEENS7_14NaNAwareEqualsIdLb1EEEvEEE15directBuildFromIRKSD_EEvOT_:_ZNK5folly3f146detail8F14TableINS1_20ValueContainerPolicyIdvN8facebook5velox4util14floating_point12NaNAwareHashIdLb1EEENS7_14NaNAwareEqualsIdLb1EEEvEEE9itemCountEv.exit
  store i8 %i.cb, ptr %i.bx, align 1, !tbaa !14
  %i.cc = load i64, ptr %i.c, align 8, !tbaa !1823 ; 2 uses
  %i.cd = and i64 %i.cc, -256
  %2 = add i64 %i.cd, 256
  %3 = and i64 %i.cc, 255
  %i.ce = or disjoint i64 %2, %3                  ; 2 uses
  store i64 %i.ce, ptr %i.c, align 8, !tbaa !1823
  %i.cf = add i64 %.04584, 1
  %.not77 = icmp eq i32 %.sroa.062.1, 0
end_hunk_46
begin_hunk_47_@_ZN5folly3f146detail8F14TableINS1_20ValueContainerPolicyIdvN8facebook5velox4util14floating_point12NaNAwareHashIdLb1EEENS7_14NaNAwareEqualsIdLb1EEEvEEE15rehashBuildFromIRKSD_EEvOT_:bb.a
bb.l:                                             ; preds = %bb.k, %bb.j
  %i.cb = load i64, ptr %i.a, align 8, !tbaa !1823 ; 2 uses
  %i.cc = and i64 %i.cb, -256
  %3 = add i64 %i.cc, 256
  %4 = and i64 %i.cb, 255
  %i.cd = or disjoint i64 %3, %4                  ; 3 uses
  store i64 %i.cd, ptr %i.a, align 8, !tbaa !1823
  %.not113 = icmp eq i32 %.sroa.073.2, 0
  br i1 %.not113, label %.loopexit, label %bb.f, !llvm.loop !4740
end_hunk_47
begin_hunk_48_@_ZN5folly3f146detail8F14TableINS1_20ValueContainerPolicyIdvN8facebook5velox4util14floating_point12NaNAwareHashIdLb1EEENS7_14NaNAwareEqualsIdLb1EEEvEEE15rehashBuildFromIRKSD_EEvOT_:bb.a
_ZN5folly3f146detail8F14TableINS1_20ValueContainerPolicyIdvN8facebook5velox4util14floating_point12NaNAwareHashIdLb1EEENS7_14NaNAwareEqualsIdLb1EEEvEEE13insertAtBlankIJRKdEEEvNS1_11F14ItemIterIPNS1_8F14ChunkIdEEEESt4pairImmEDpOT_.exit68: ; preds = %bb.y, %bb.z
  %i.ez = load i64, ptr %i.a, align 8, !tbaa !1823 ; 2 uses
  %i.fa = and i64 %i.ez, -256
  %5 = add i64 %i.fa, 256
  %6 = and i64 %i.ez, 255
  %i.fb = or disjoint i64 %5, %6                  ; 2 uses
  store i64 %i.fb, ptr %i.a, align 8, !tbaa !1823
  %.not112 = icmp eq i32 %.sroa.073.3, 0
  br i1 %.not112, label %.loopexit, label %bb.m
end_hunk_48
begin_hunk_49_@_ZN5folly3f146detail8F14TableINS1_20ValueContainerPolicyIN8facebook5velox10StringViewEvvvvEEE15directBuildFromIRKS8_EEvOT_:_ZNK5folly3f146detail8F14TableINS1_20ValueContainerPolicyIN8facebook5velox10StringViewEvvvvEEE9itemCountEv.exit
  store i8 %i.cb, ptr %i.bx, align 1, !tbaa !14
  %i.cc = load i64, ptr %i.c, align 8, !tbaa !1823 ; 2 uses
  %i.cd = and i64 %i.cc, -256
  %2 = add i64 %i.cd, 256
  %3 = and i64 %i.cc, 255
  %i.ce = or disjoint i64 %2, %3                  ; 2 uses
  store i64 %i.ce, ptr %i.c, align 8, !tbaa !1823
  %i.cf = add i64 %.04586, 1
  %.not77 = icmp eq i32 %.sroa.062.1, 0
end_hunk_49
begin_hunk_50_@_ZN5folly3f146detail8F14TableINS1_20ValueContainerPolicyIN8facebook5velox10StringViewEvvvvEEE15rehashBuildFromIRKS8_EEvOT_:bb.a
bb.l:                                             ; preds = %bb.k, %bb.j
  %i.by = load i64, ptr %i.a, align 8, !tbaa !1823 ; 2 uses
  %i.bz = and i64 %i.by, -256
  %4 = add i64 %i.bz, 256
  %5 = and i64 %i.by, 255
  %i.ca = or disjoint i64 %4, %5                  ; 3 uses
  store i64 %i.ca, ptr %i.a, align 8, !tbaa !1823
  %.not113 = icmp eq i32 %.sroa.073.2, 0
  br i1 %.not113, label %.loopexit, label %bb.f, !llvm.loop !4799
end_hunk_50
begin_hunk_51_@_ZN5folly3f146detail8F14TableINS1_20ValueContainerPolicyIN8facebook5velox10StringViewEvvvvEEE15rehashBuildFromIRKS8_EEvOT_:bb.a
_ZN5folly3f146detail8F14TableINS1_20ValueContainerPolicyIN8facebook5velox10StringViewEvvvvEEE13insertAtBlankIJRKS6_EEEvNS1_11F14ItemIterIPNS1_8F14ChunkIS6_EEEESt4pairImmEDpOT_.exit68: ; preds = %bb.u, %bb.v
  %i.ef = load i64, ptr %i.a, align 8, !tbaa !1823 ; 2 uses
  %i.eg = and i64 %i.ef, -256
  %6 = add i64 %i.eg, 256
  %7 = and i64 %i.ef, 255
  %i.eh = or disjoint i64 %6, %7                  ; 2 uses
  store i64 %i.eh, ptr %i.a, align 8, !tbaa !1823
  %.not112 = icmp eq i32 %.sroa.073.3, 0
  br i1 %.not112, label %.loopexit, label %bb.m
end_hunk_51
begin_hunk_52_@_ZZNK8facebook5velox9functions12_GLOBAL__N_126ArraysIntersectSingleParamINS0_9TimestampEE5applyERKNS0_17SelectivityVectorERSt6vectorISt10shared_ptrINS0_10BaseVectorEESaISC_EERKSA_IKNS0_4TypeEERNS0_4exec7EvalCtxERSC_ENKUliE_clEi:bb.a
bb.az:                                            ; preds = %_ZN5folly3f146detail8F14ChunkIN8facebook5velox9TimestampEE6setTagEmm.exit.i, %bb.ay
  %i.of = load i64, ptr %i.bg, align 8, !tbaa !1823, !noalias !4835 ; 2 uses
  %i.og = and i64 %i.of, -256
  %4 = add i64 %i.og, 256
  %5 = and i64 %i.of, 255
  %i.oh = or disjoint i64 %4, %5
  store i64 %i.oh, ptr %i.bg, align 8, !tbaa !1823, !noalias !4835
  %i.oi = load ptr, ptr %i.bu, align 8, !tbaa !4838, !nonnull !93, !align !1670
  %i.oj = load ptr, ptr %i.oi, align 8, !tbaa !1816
end_hunk_52
begin_hunk_53_@_ZN5folly3f146detail8F14TableINS1_20ValueContainerPolicyIN8facebook5velox9TimestampEvvvvEEE15directBuildFromIRKS8_EEvOT_:_ZNK5folly3f146detail8F14TableINS1_20ValueContainerPolicyIN8facebook5velox9TimestampEvvvvEEE9itemCountEv.exit
  store i8 %i.cb, ptr %i.bx, align 1, !tbaa !14
  %i.cc = load i64, ptr %i.c, align 8, !tbaa !1823 ; 2 uses
  %i.cd = and i64 %i.cc, -256
  %2 = add i64 %i.cd, 256
  %3 = and i64 %i.cc, 255
  %i.ce = or disjoint i64 %2, %3                  ; 2 uses
  store i64 %i.ce, ptr %i.c, align 8, !tbaa !1823
  %i.cf = add i64 %.04586, 1
  %.not77 = icmp eq i32 %.sroa.062.1, 0
end_hunk_53
begin_hunk_54_@_ZN5folly3f146detail8F14TableINS1_20ValueContainerPolicyIN8facebook5velox9TimestampEvvvvEEE15rehashBuildFromIRKS8_EEvOT_:bb.a
bb.l:                                             ; preds = %bb.k, %bb.j
  %i.bw = load i64, ptr %i.a, align 8, !tbaa !1823 ; 2 uses
  %i.bx = and i64 %i.bw, -256
  %3 = add i64 %i.bx, 256
  %4 = and i64 %i.bw, 255
  %i.by = or disjoint i64 %3, %4                  ; 3 uses
  store i64 %i.by, ptr %i.a, align 8, !tbaa !1823
  %.not113 = icmp eq i32 %.sroa.073.2, 0
  br i1 %.not113, label %.loopexit, label %bb.f, !llvm.loop !4846
end_hunk_54
begin_hunk_55_@_ZN5folly3f146detail8F14TableINS1_20ValueContainerPolicyIN8facebook5velox9TimestampEvvvvEEE15rehashBuildFromIRKS8_EEvOT_:bb.a
_ZN5folly3f146detail8F14TableINS1_20ValueContainerPolicyIN8facebook5velox9TimestampEvvvvEEE13insertAtBlankIJRKS6_EEEvNS1_11F14ItemIterIPNS1_8F14ChunkIS6_EEEESt4pairImmEDpOT_.exit68: ; preds = %bb.t, %bb.u
  %i.eg = load i64, ptr %i.a, align 8, !tbaa !1823 ; 2 uses
  %i.eh = and i64 %i.eg, -256
  %5 = add i64 %i.eh, 256
  %6 = and i64 %i.eg, 255
  %i.ei = or disjoint i64 %5, %6                  ; 3 uses
  store i64 %i.ei, ptr %i.a, align 8, !tbaa !1823
  %.not112 = icmp eq i32 %.sroa.073.3, 0
  br i1 %.not112, label %.loopexit, label %bb.m
end_hunk_55
begin_hunk_56_@_ZNK8facebook5velox9functions12_GLOBAL__N_128ArrayIntersectExceptFunctionILb1EfE5applyERKNS0_17SelectivityVectorERSt6vectorISt10shared_ptrINS0_10BaseVectorEESaISB_EERKS9_IKNS0_4TypeEERNS0_4exec7EvalCtxERSB_:bb.a
_ZN5folly3f146detail8F14TableINS1_20ValueContainerPolicyIfvN8facebook5velox4util14floating_point12NaNAwareHashIfLb1EEENS7_14NaNAwareEqualsIfLb1EEEvEEE13insertAtBlankIJfEEEvNS1_11F14ItemIterIPNS1_8F14ChunkIfEEEESt4pairImmEDpOT_.exit.i.i.i.i.i: ; preds = %bb.ee, %_ZN5folly3f146detail8F14ChunkIfE6setTagEmm.exit.i.i.i.i.i
  %i.zb = load i64, ptr %i.jc, align 8, !tbaa !1823, !noalias !5211 ; 2 uses
  %i.zc = and i64 %i.zb, -256
  %29 = add i64 %i.zc, 256
  %30 = and i64 %i.zb, 255
  %i.zd = or disjoint i64 %29, %30
  store i64 %i.zd, ptr %i.jc, align 8, !tbaa !1823, !noalias !5211
  br label %_ZN5folly3f146detail8F14TableINS1_20ValueContainerPolicyIfvN8facebook5velox4util14floating_point12NaNAwareHashIfLb1EEENS7_14NaNAwareEqualsIfLb1EEEvEEE19tryEmplaceValueImplIfJfEEESt4pairINS1_11F14ItemIterIPNS1_8F14ChunkIfEEEEbESF_ImmERKT_DpOT0_.exit.i.i.i.i

end_hunk_56
begin_hunk_57_@_ZNK8facebook5velox9functions12_GLOBAL__N_128ArrayIntersectExceptFunctionILb1EdE5applyERKNS0_17SelectivityVectorERSt6vectorISt10shared_ptrINS0_10BaseVectorEESaISB_EERKS9_IKNS0_4TypeEERNS0_4exec7EvalCtxERSB_:bb.a
_ZN5folly3f146detail8F14TableINS1_20ValueContainerPolicyIdvN8facebook5velox4util14floating_point12NaNAwareHashIdLb1EEENS7_14NaNAwareEqualsIdLb1EEEvEEE13insertAtBlankIJdEEEvNS1_11F14ItemIterIPNS1_8F14ChunkIdEEEESt4pairImmEDpOT_.exit.i.i.i.i.i: ; preds = %bb.ee, %_ZN5folly3f146detail8F14ChunkIdE6setTagEmm.exit.i.i.i.i.i
  %i.zd = load i64, ptr %i.jc, align 8, !tbaa !1823, !noalias !5264 ; 2 uses
  %i.ze = and i64 %i.zd, -256
  %29 = add i64 %i.ze, 256
  %30 = and i64 %i.zd, 255
  %i.zf = or disjoint i64 %29, %30
  store i64 %i.zf, ptr %i.jc, align 8, !tbaa !1823, !noalias !5264
  br label %_ZN5folly3f146detail8F14TableINS1_20ValueContainerPolicyIdvN8facebook5velox4util14floating_point12NaNAwareHashIdLb1EEENS7_14NaNAwareEqualsIdLb1EEEvEEE19tryEmplaceValueImplIdJdEEESt4pairINS1_11F14ItemIterIPNS1_8F14ChunkIdEEEEbESF_ImmERKT_DpOT0_.exit.i.i.i.i

end_hunk_57
begin_hunk_58_@_ZNK8facebook5velox9functions12_GLOBAL__N_128ArrayIntersectExceptFunctionILb0EfE5applyERKNS0_17SelectivityVectorERSt6vectorISt10shared_ptrINS0_10BaseVectorEESaISB_EERKS9_IKNS0_4TypeEERNS0_4exec7EvalCtxERSB_:bb.a
_ZN5folly3f146detail8F14TableINS1_20ValueContainerPolicyIfvN8facebook5velox4util14floating_point12NaNAwareHashIfLb1EEENS7_14NaNAwareEqualsIfLb1EEEvEEE13insertAtBlankIJfEEEvNS1_11F14ItemIterIPNS1_8F14ChunkIfEEEESt4pairImmEDpOT_.exit.i.i.i.i.i: ; preds = %bb.ee, %_ZN5folly3f146detail8F14ChunkIfE6setTagEmm.exit.i.i.i.i.i
  %i.zb = load i64, ptr %i.jc, align 8, !tbaa !1823, !noalias !5748 ; 2 uses
  %i.zc = and i64 %i.zb, -256
  %29 = add i64 %i.zc, 256
  %30 = and i64 %i.zb, 255
  %i.zd = or disjoint i64 %29, %30
  store i64 %i.zd, ptr %i.jc, align 8, !tbaa !1823, !noalias !5748
  br label %_ZN5folly3f146detail8F14TableINS1_20ValueContainerPolicyIfvN8facebook5velox4util14floating_point12NaNAwareHashIfLb1EEENS7_14NaNAwareEqualsIfLb1EEEvEEE19tryEmplaceValueImplIfJfEEESt4pairINS1_11F14ItemIterIPNS1_8F14ChunkIfEEEEbESF_ImmERKT_DpOT0_.exit.i.i.i.i

end_hunk_58
begin_hunk_59_@_ZNK8facebook5velox9functions12_GLOBAL__N_128ArrayIntersectExceptFunctionILb0EdE5applyERKNS0_17SelectivityVectorERSt6vectorISt10shared_ptrINS0_10BaseVectorEESaISB_EERKS9_IKNS0_4TypeEERNS0_4exec7EvalCtxERSB_:bb.a
_ZN5folly3f146detail8F14TableINS1_20ValueContainerPolicyIdvN8facebook5velox4util14floating_point12NaNAwareHashIdLb1EEENS7_14NaNAwareEqualsIdLb1EEEvEEE13insertAtBlankIJdEEEvNS1_11F14ItemIterIPNS1_8F14ChunkIdEEEESt4pairImmEDpOT_.exit.i.i.i.i.i: ; preds = %bb.ee, %_ZN5folly3f146detail8F14ChunkIdE6setTagEmm.exit.i.i.i.i.i
  %i.zd = load i64, ptr %i.jc, align 8, !tbaa !1823, !noalias !5801 ; 2 uses
  %i.ze = and i64 %i.zd, -256
  %29 = add i64 %i.ze, 256
  %30 = and i64 %i.zd, 255
  %i.zf = or disjoint i64 %29, %30
  store i64 %i.zf, ptr %i.jc, align 8, !tbaa !1823, !noalias !5801
  br label %_ZN5folly3f146detail8F14TableINS1_20ValueContainerPolicyIdvN8facebook5velox4util14floating_point12NaNAwareHashIdLb1EEENS7_14NaNAwareEqualsIdLb1EEEvEEE19tryEmplaceValueImplIdJdEEESt4pairINS1_11F14ItemIterIPNS1_8F14ChunkIdEEEEbESF_ImmERKT_DpOT0_.exit.i.i.i.i

end_hunk_59
