begin_hunk_0_@_ZNK8facebook5velox9MapVector10updateImplILNS0_8TypeKindE0EEESt10shared_ptrIS1_ERKN5folly5RangeIPNS0_13DecodedVectorEEE:bb.a
_ZN5folly3f146detail8F14TableINS1_20ValueContainerPolicyIbN8facebook5velox12_GLOBAL__N_112UpdateSourceEvvvEEE13insertAtBlankIJRKSt21piecewise_construct_tSt5tupleIJObEESE_IJEEEEEvNS1_11F14ItemIterIPNS1_8F14ChunkISt4pairIKbS7_EEEEESK_ImmEDpOT_.exit.i.i.i.i.i: ; preds = %bb.cy, %_ZN5folly3f146detail8F14ChunkISt4pairIKbN8facebook5velox12_GLOBAL__N_112UpdateSourceEEE6setTagEmm.exit.i.i.i.i.i
  %.val.i.i.i.i.i.i.i.i = load i64, ptr %i.jq, align 8, !tbaa !846, !noalias !847 ; 2 uses
  %i.vr = and i64 %.val.i.i.i.i.i.i.i.i, -256
  %18 = add i64 %i.vr, 256
  %19 = and i64 %.val.i.i.i.i.i.i.i.i, 255
  %i.vs = or disjoint i64 %18, %19
  store i64 %i.vs, ptr %i.jq, align 8, !tbaa !846, !noalias !847
  br label %.loopexit

end_hunk_0
begin_hunk_1_@_ZNK8facebook5velox9MapVector10updateImplILNS0_8TypeKindE3EEESt10shared_ptrIS1_ERKN5folly5RangeIPNS0_13DecodedVectorEEE:bb.a
_ZN5folly3f146detail8F14TableINS1_20ValueContainerPolicyIiN8facebook5velox12_GLOBAL__N_112UpdateSourceEvvvEEE13insertAtBlankIJRKSt21piecewise_construct_tSt5tupleIJOiEESE_IJEEEEEvNS1_11F14ItemIterIPNS1_8F14ChunkISt4pairIKiS7_EEEEESK_ImmEDpOT_.exit.i.i.i.i.i: ; preds = %bb.cy, %_ZN5folly3f146detail8F14ChunkISt4pairIKiN8facebook5velox12_GLOBAL__N_112UpdateSourceEEE6setTagEmm.exit.i.i.i.i.i
  %.val.i.i.i.i.i.i.i.i = load i64, ptr %i.jq, align 8, !tbaa !846, !noalias !922 ; 2 uses
  %i.vm = and i64 %.val.i.i.i.i.i.i.i.i, -256
  %18 = add i64 %i.vm, 256
  %19 = and i64 %.val.i.i.i.i.i.i.i.i, 255
  %i.vn = or disjoint i64 %18, %19
  store i64 %i.vn, ptr %i.jq, align 8, !tbaa !846, !noalias !922
  br label %.loopexit

end_hunk_1
begin_hunk_2_@_ZNK8facebook5velox9MapVector10updateImplILNS0_8TypeKindE1EEESt10shared_ptrIS1_ERKN5folly5RangeIPNS0_13DecodedVectorEEE:bb.a
_ZN5folly3f146detail8F14TableINS1_20ValueContainerPolicyIaN8facebook5velox12_GLOBAL__N_112UpdateSourceEvvvEEE13insertAtBlankIJRKSt21piecewise_construct_tSt5tupleIJOaEESE_IJEEEEEvNS1_11F14ItemIterIPNS1_8F14ChunkISt4pairIKaS7_EEEEESK_ImmEDpOT_.exit.i.i.i.i.i: ; preds = %bb.cy, %_ZN5folly3f146detail8F14ChunkISt4pairIKaN8facebook5velox12_GLOBAL__N_112UpdateSourceEEE6setTagEmm.exit.i.i.i.i.i
  %.val.i.i.i.i.i.i.i.i = load i64, ptr %i.jq, align 8, !tbaa !846, !noalias !989 ; 2 uses
  %i.vm = and i64 %.val.i.i.i.i.i.i.i.i, -256
  %18 = add i64 %i.vm, 256
  %19 = and i64 %.val.i.i.i.i.i.i.i.i, 255
  %i.vn = or disjoint i64 %18, %19
  store i64 %i.vn, ptr %i.jq, align 8, !tbaa !846, !noalias !989
  br label %.loopexit

end_hunk_2
begin_hunk_3_@_ZNK8facebook5velox9MapVector10updateImplILNS0_8TypeKindE2EEESt10shared_ptrIS1_ERKN5folly5RangeIPNS0_13DecodedVectorEEE:bb.a
_ZN5folly3f146detail8F14TableINS1_20ValueContainerPolicyIsN8facebook5velox12_GLOBAL__N_112UpdateSourceEvvvEEE13insertAtBlankIJRKSt21piecewise_construct_tSt5tupleIJOsEESE_IJEEEEEvNS1_11F14ItemIterIPNS1_8F14ChunkISt4pairIKsS7_EEEEESK_ImmEDpOT_.exit.i.i.i.i.i: ; preds = %bb.cy, %_ZN5folly3f146detail8F14ChunkISt4pairIKsN8facebook5velox12_GLOBAL__N_112UpdateSourceEEE6setTagEmm.exit.i.i.i.i.i
  %.val.i.i.i.i.i.i.i.i = load i64, ptr %i.jq, align 8, !tbaa !846, !noalias !1058 ; 2 uses
  %i.vm = and i64 %.val.i.i.i.i.i.i.i.i, -256
  %18 = add i64 %i.vm, 256
  %19 = and i64 %.val.i.i.i.i.i.i.i.i, 255
  %i.vn = or disjoint i64 %18, %19
  store i64 %i.vn, ptr %i.jq, align 8, !tbaa !846, !noalias !1058
  br label %.loopexit

end_hunk_3
begin_hunk_4_@_ZNK8facebook5velox9MapVector10updateImplILNS0_8TypeKindE4EEESt10shared_ptrIS1_ERKN5folly5RangeIPNS0_13DecodedVectorEEE:bb.a
_ZN5folly3f146detail8F14TableINS1_20ValueContainerPolicyIlN8facebook5velox12_GLOBAL__N_112UpdateSourceEvvvEEE13insertAtBlankIJRKSt21piecewise_construct_tSt5tupleIJOlEESE_IJEEEEEvNS1_11F14ItemIterIPNS1_8F14ChunkISt4pairIKlS7_EEEEESK_ImmEDpOT_.exit.i.i.i.i.i: ; preds = %bb.cy, %_ZN5folly3f146detail8F14ChunkISt4pairIKlN8facebook5velox12_GLOBAL__N_112UpdateSourceEEE6setTagEmm.exit.i.i.i.i.i
  %.val.i.i.i.i.i.i.i.i = load i64, ptr %i.jq, align 8, !tbaa !846, !noalias !1125 ; 2 uses
  %i.vf = and i64 %.val.i.i.i.i.i.i.i.i, -256
  %18 = add i64 %i.vf, 256
  %19 = and i64 %.val.i.i.i.i.i.i.i.i, 255
  %i.vg = or disjoint i64 %18, %19
  store i64 %i.vg, ptr %i.jq, align 8, !tbaa !846, !noalias !1125
  br label %.loopexit

end_hunk_4
begin_hunk_5_@_ZNK8facebook5velox9MapVector10updateImplILNS0_8TypeKindE10EEESt10shared_ptrIS1_ERKN5folly5RangeIPNS0_13DecodedVectorEEE:bb.a
  store i64 0, ptr %i.us, align 16, !noalias !1192
  %i.ut = load i64, ptr %i.jr, align 8, !tbaa !846, !noalias !1192 ; 2 uses
  %i.uu = and i64 %i.ut, -256
  %18 = add i64 %i.uu, 256
  %19 = and i64 %i.ut, 255
  %i.uv = or disjoint i64 %18, %19
  store i64 %i.uv, ptr %i.jr, align 8, !tbaa !846, !noalias !1192
  %.val3.pre.i.i.i = load ptr, ptr %13, align 8, !noalias !1210
  %.pre.i.i.i = load i32, ptr %i.um, align 4, !tbaa !3, !noalias !1210
end_hunk_5
begin_hunk_6_@_ZNK8facebook5velox9MapVector10updateImplILNS0_8TypeKindE5EEESt10shared_ptrIS1_ERKN5folly5RangeIPNS0_13DecodedVectorEEE:bb.a
_ZN5folly3f146detail8F14TableINS1_20ValueContainerPolicyIfN8facebook5velox12_GLOBAL__N_112UpdateSourceEvvvEEE13insertAtBlankIJRKSt21piecewise_construct_tSt5tupleIJOfEESE_IJEEEEEvNS1_11F14ItemIterIPNS1_8F14ChunkISt4pairIKfS7_EEEEESK_ImmEDpOT_.exit.i.i.i.i.i: ; preds = %bb.da, %_ZN5folly3f146detail8F14ChunkISt4pairIKfN8facebook5velox12_GLOBAL__N_112UpdateSourceEEE6setTagEmm.exit.i.i.i.i.i
  %.val.i.i.i.i.i.i.i.i = load i64, ptr %i.jr, align 8, !tbaa !846, !noalias !1270 ; 2 uses
  %i.vr = and i64 %.val.i.i.i.i.i.i.i.i, -256
  %18 = add i64 %i.vr, 256
  %19 = and i64 %.val.i.i.i.i.i.i.i.i, 255
  %i.vs = or disjoint i64 %18, %19
  store i64 %i.vs, ptr %i.jr, align 8, !tbaa !846, !noalias !1270
  br label %.loopexit

end_hunk_6
begin_hunk_7_@_ZNK8facebook5velox9MapVector10updateImplILNS0_8TypeKindE6EEESt10shared_ptrIS1_ERKN5folly5RangeIPNS0_13DecodedVectorEEE:bb.a
_ZN5folly3f146detail8F14TableINS1_20ValueContainerPolicyIdN8facebook5velox12_GLOBAL__N_112UpdateSourceEvvvEEE13insertAtBlankIJRKSt21piecewise_construct_tSt5tupleIJOdEESE_IJEEEEEvNS1_11F14ItemIterIPNS1_8F14ChunkISt4pairIKdS7_EEEEESK_ImmEDpOT_.exit.i.i.i.i.i: ; preds = %bb.da, %_ZN5folly3f146detail8F14ChunkISt4pairIKdN8facebook5velox12_GLOBAL__N_112UpdateSourceEEE6setTagEmm.exit.i.i.i.i.i
  %.val.i.i.i.i.i.i.i.i = load i64, ptr %i.jr, align 8, !tbaa !846, !noalias !1340 ; 2 uses
  %i.vl = and i64 %.val.i.i.i.i.i.i.i.i, -256
  %18 = add i64 %i.vl, 256
  %19 = and i64 %.val.i.i.i.i.i.i.i.i, 255
  %i.vm = or disjoint i64 %18, %19
  store i64 %i.vm, ptr %i.jr, align 8, !tbaa !846, !noalias !1340
  br label %.loopexit

end_hunk_7
begin_hunk_8_@_ZNK8facebook5velox9MapVector10updateImplILNS0_8TypeKindE9EEESt10shared_ptrIS1_ERKN5folly5RangeIPNS0_13DecodedVectorEEE:bb.a
  store i64 0, ptr %i.vd, align 8, !noalias !1492
  %i.ve = load i64, ptr %i.jr, align 8, !tbaa !846, !noalias !1492 ; 2 uses
  %i.vf = and i64 %i.ve, -256
  %18 = add i64 %i.vf, 256
  %19 = and i64 %i.ve, 255
  %i.vg = or disjoint i64 %18, %19
  store i64 %i.vg, ptr %i.jr, align 8, !tbaa !846, !noalias !1492
  %.val4.pre.i.i.i = load ptr, ptr %13, align 8, !noalias !1504
  %.pre.i.i.i = load i32, ptr %i.ux, align 4, !tbaa !3, !noalias !1504
end_hunk_8
begin_hunk_9_@_ZN8facebook5velox12_GLOBAL__N_112UpdateMapRowINS0_10StringViewEE6insertEPKNS0_13DecodedVectorEia:bb.a
  store i64 0, ptr %i.fb, align 8, !noalias !1933
  %i.fc = load i64, ptr %i.ac, align 8, !tbaa !846, !noalias !1933 ; 2 uses
  %i.fd = and i64 %i.fc, -256
  %5 = add i64 %i.fd, 256
  %6 = and i64 %i.fc, 255
  %i.fe = or disjoint i64 %5, %6
  store i64 %i.fe, ptr %i.ac, align 8, !tbaa !846, !noalias !1933
  %.val.pre.i.i = load ptr, ptr %0, align 8, !noalias !1941
  %.pre.i.i = load i32, ptr %i.ev, align 4, !tbaa !3, !noalias !1941
end_hunk_9
begin_hunk_10_@_ZN8facebook5velox12_GLOBAL__N_112UpdateMapRowIvE6insertEPKNS0_13DecodedVectorEia:bb.a
  store i64 0, ptr %i.de, align 8, !noalias !1999
  %i.df = load i64, ptr %i.x, align 8, !tbaa !846, !noalias !1999 ; 2 uses
  %i.dg = and i64 %i.df, -256
  %4 = add i64 %i.dg, 256
  %5 = and i64 %i.df, 255
  %i.dh = or disjoint i64 %4, %5
  store i64 %i.dh, ptr %i.x, align 8, !tbaa !846, !noalias !1999
  br label %_ZN5folly3f146detail11F14BasicMapINS1_21VectorContainerPolicyIN8facebook5velox12_GLOBAL__N_112UpdateMapRowIvE9ReferenceENS6_12UpdateSourceENS8_15ReferenceHasherEvvSt17integral_constantIbLb1EEEEEixEOS9_.exit

end_hunk_10
