inline.NumInlined: 45069
inline.NumDeleted: 11734
begin_hunk_0_@_ZNK8facebook5velox4core22SimpleFunctionMetadataINS0_9functions12_GLOBAL__N_119DecimalPlusFunctionINS0_4exec10VectorExecEEENS0_11LongDecimalINS0_15IntegerVariableILm3EEENSA_ILm7EEEEENS0_15ConstantCheckerIJNS9_INSA_ILm1EEENSA_ILm5EEEEENS9_INSA_ILm2EEENSA_ILm6EEEEEEEEJSH_SK_EE8priorityEv:bb.a
  ret i32 %i.b
}

; Function Attrs: mustprogress nofree norecurse nounwind willreturn memory(readwrite, target_mem: none) uwtable
define internal void @_ZNK8facebook5velox4core22SimpleFunctionMetadataINS0_9functions12_GLOBAL__N_119DecimalPlusFunctionINS0_4exec10VectorExecEEENS0_11LongDecimalINS0_15IntegerVariableILm3EEENSA_ILm7EEEEENS0_15ConstantCheckerIJNS9_INSA_ILm1EEENSA_ILm5EEEEENS9_INSA_ILm2EEENSA_ILm6EEEEEEEEJSH_SK_EE9signatureEv(ptr dead_on_unwind noalias writable writeonly sret(%"class.std::shared_ptr.22") align 8 captures(none) initializes((0, 16)) %0, ptr noundef nonnull readonly align 8 captures(none) dereferenceable(80) %1) unnamed_addr #19 align 2 personality ptr @__gxx_personality_v0 {
bb.a:
  %i.a = getelementptr inbounds nuw i8, ptr %1, i64 16
end_hunk_0
begin_hunk_1_@_ZNK8facebook5velox4core22SimpleFunctionMetadataINS0_9functions12_GLOBAL__N_119DecimalPlusFunctionINS0_4exec10VectorExecEEENS0_12ShortDecimalINS0_15IntegerVariableILm3EEENSA_ILm7EEEEENS0_15ConstantCheckerIJNS9_INSA_ILm1EEENSA_ILm5EEEEENS9_INSA_ILm2EEENSA_ILm6EEEEEEEEJSH_SK_EE8priorityEv:bb.a
  ret i32 %i.b
}

; Function Attrs: mustprogress nofree norecurse nounwind willreturn memory(readwrite, target_mem: none) uwtable
define internal void @_ZNK8facebook5velox4core22SimpleFunctionMetadataINS0_9functions12_GLOBAL__N_119DecimalPlusFunctionINS0_4exec10VectorExecEEENS0_12ShortDecimalINS0_15IntegerVariableILm3EEENSA_ILm7EEEEENS0_15ConstantCheckerIJNS9_INSA_ILm1EEENSA_ILm5EEEEENS9_INSA_ILm2EEENSA_ILm6EEEEEEEEJSH_SK_EE9signatureEv(ptr dead_on_unwind noalias writable writeonly sret(%"class.std::shared_ptr.22") align 8 captures(none) initializes((0, 16)) %0, ptr noundef nonnull readonly align 8 captures(none) dereferenceable(80) %1) unnamed_addr #19 align 2 personality ptr @__gxx_personality_v0 {
bb.a:
  %i.a = getelementptr inbounds nuw i8, ptr %1, i64 16
end_hunk_1
begin_hunk_2_@_ZNK8facebook5velox4core22SimpleFunctionMetadataINS0_9functions12_GLOBAL__N_119DecimalPlusFunctionINS0_4exec10VectorExecEEENS0_11LongDecimalINS0_15IntegerVariableILm3EEENSA_ILm7EEEEENS0_15ConstantCheckerIJNS0_12ShortDecimalINSA_ILm1EEENSA_ILm5EEEEENSF_INSA_ILm2EEENSA_ILm6EEEEEEEEJSI_SL_EE8priorityEv:bb.a
  ret i32 %i.b
}

; Function Attrs: mustprogress nofree norecurse nounwind willreturn memory(readwrite, target_mem: none) uwtable
define internal void @_ZNK8facebook5velox4core22SimpleFunctionMetadataINS0_9functions12_GLOBAL__N_119DecimalPlusFunctionINS0_4exec10VectorExecEEENS0_11LongDecimalINS0_15IntegerVariableILm3EEENSA_ILm7EEEEENS0_15ConstantCheckerIJNS0_12ShortDecimalINSA_ILm1EEENSA_ILm5EEEEENSF_INSA_ILm2EEENSA_ILm6EEEEEEEEJSI_SL_EE9signatureEv(ptr dead_on_unwind noalias writable writeonly sret(%"class.std::shared_ptr.22") align 8 captures(none) initializes((0, 16)) %0, ptr noundef nonnull readonly align 8 captures(none) dereferenceable(80) %1) unnamed_addr #19 align 2 personality ptr @__gxx_personality_v0 {
bb.a:
  %i.a = getelementptr inbounds nuw i8, ptr %1, i64 16
end_hunk_2
begin_hunk_3_@_ZNK8facebook5velox4core22SimpleFunctionMetadataINS0_9functions12_GLOBAL__N_119DecimalPlusFunctionINS0_4exec10VectorExecEEENS0_11LongDecimalINS0_15IntegerVariableILm3EEENSA_ILm7EEEEENS0_15ConstantCheckerIJNS0_12ShortDecimalINSA_ILm1EEENSA_ILm5EEEEENS9_INSA_ILm2EEENSA_ILm6EEEEEEEEJSI_SL_EE8priorityEv:bb.a
  ret i32 %i.b
}

; Function Attrs: mustprogress nofree norecurse nounwind willreturn memory(readwrite, target_mem: none) uwtable
define internal void @_ZNK8facebook5velox4core22SimpleFunctionMetadataINS0_9functions12_GLOBAL__N_119DecimalPlusFunctionINS0_4exec10VectorExecEEENS0_11LongDecimalINS0_15IntegerVariableILm3EEENSA_ILm7EEEEENS0_15ConstantCheckerIJNS0_12ShortDecimalINSA_ILm1EEENSA_ILm5EEEEENS9_INSA_ILm2EEENSA_ILm6EEEEEEEEJSI_SL_EE9signatureEv(ptr dead_on_unwind noalias writable writeonly sret(%"class.std::shared_ptr.22") align 8 captures(none) initializes((0, 16)) %0, ptr noundef nonnull readonly align 8 captures(none) dereferenceable(80) %1) unnamed_addr #19 align 2 personality ptr @__gxx_personality_v0 {
bb.a:
  %i.a = getelementptr inbounds nuw i8, ptr %1, i64 16
end_hunk_3
begin_hunk_4_@_ZNK8facebook5velox4core22SimpleFunctionMetadataINS0_9functions12_GLOBAL__N_119DecimalPlusFunctionINS0_4exec10VectorExecEEENS0_11LongDecimalINS0_15IntegerVariableILm3EEENSA_ILm7EEEEENS0_15ConstantCheckerIJNS9_INSA_ILm1EEENSA_ILm5EEEEENS0_12ShortDecimalINSA_ILm2EEENSA_ILm6EEEEEEEEJSH_SL_EE8priorityEv:bb.a
  ret i32 %i.b
}

; Function Attrs: mustprogress nofree norecurse nounwind willreturn memory(readwrite, target_mem: none) uwtable
define internal void @_ZNK8facebook5velox4core22SimpleFunctionMetadataINS0_9functions12_GLOBAL__N_119DecimalPlusFunctionINS0_4exec10VectorExecEEENS0_11LongDecimalINS0_15IntegerVariableILm3EEENSA_ILm7EEEEENS0_15ConstantCheckerIJNS9_INSA_ILm1EEENSA_ILm5EEEEENS0_12ShortDecimalINSA_ILm2EEENSA_ILm6EEEEEEEEJSH_SL_EE9signatureEv(ptr dead_on_unwind noalias writable writeonly sret(%"class.std::shared_ptr.22") align 8 captures(none) initializes((0, 16)) %0, ptr noundef nonnull readonly align 8 captures(none) dereferenceable(80) %1) unnamed_addr #19 align 2 personality ptr @__gxx_personality_v0 {
bb.a:
  %i.a = getelementptr inbounds nuw i8, ptr %1, i64 16
end_hunk_4
begin_hunk_5_@_ZNK8facebook5velox4core22SimpleFunctionMetadataINS0_9functions12_GLOBAL__N_120DecimalMinusFunctionINS0_4exec10VectorExecEEENS0_11LongDecimalINS0_15IntegerVariableILm3EEENSA_ILm7EEEEENS0_15ConstantCheckerIJNS9_INSA_ILm1EEENSA_ILm5EEEEENS9_INSA_ILm2EEENSA_ILm6EEEEEEEEJSH_SK_EE8priorityEv:bb.a
  ret i32 %i.b
}

; Function Attrs: mustprogress nofree norecurse nounwind willreturn memory(readwrite, target_mem: none) uwtable
define internal void @_ZNK8facebook5velox4core22SimpleFunctionMetadataINS0_9functions12_GLOBAL__N_120DecimalMinusFunctionINS0_4exec10VectorExecEEENS0_11LongDecimalINS0_15IntegerVariableILm3EEENSA_ILm7EEEEENS0_15ConstantCheckerIJNS9_INSA_ILm1EEENSA_ILm5EEEEENS9_INSA_ILm2EEENSA_ILm6EEEEEEEEJSH_SK_EE9signatureEv(ptr dead_on_unwind noalias writable writeonly sret(%"class.std::shared_ptr.22") align 8 captures(none) initializes((0, 16)) %0, ptr noundef nonnull readonly align 8 captures(none) dereferenceable(80) %1) unnamed_addr #19 align 2 personality ptr @__gxx_personality_v0 {
bb.a:
  %i.a = getelementptr inbounds nuw i8, ptr %1, i64 16
end_hunk_5
begin_hunk_6_@_ZNK8facebook5velox4core22SimpleFunctionMetadataINS0_9functions12_GLOBAL__N_120DecimalMinusFunctionINS0_4exec10VectorExecEEENS0_12ShortDecimalINS0_15IntegerVariableILm3EEENSA_ILm7EEEEENS0_15ConstantCheckerIJNS9_INSA_ILm1EEENSA_ILm5EEEEENS9_INSA_ILm2EEENSA_ILm6EEEEEEEEJSH_SK_EE8priorityEv:bb.a
  ret i32 %i.b
}

; Function Attrs: mustprogress nofree norecurse nounwind willreturn memory(readwrite, target_mem: none) uwtable
define internal void @_ZNK8facebook5velox4core22SimpleFunctionMetadataINS0_9functions12_GLOBAL__N_120DecimalMinusFunctionINS0_4exec10VectorExecEEENS0_12ShortDecimalINS0_15IntegerVariableILm3EEENSA_ILm7EEEEENS0_15ConstantCheckerIJNS9_INSA_ILm1EEENSA_ILm5EEEEENS9_INSA_ILm2EEENSA_ILm6EEEEEEEEJSH_SK_EE9signatureEv(ptr dead_on_unwind noalias writable writeonly sret(%"class.std::shared_ptr.22") align 8 captures(none) initializes((0, 16)) %0, ptr noundef nonnull readonly align 8 captures(none) dereferenceable(80) %1) unnamed_addr #19 align 2 personality ptr @__gxx_personality_v0 {
bb.a:
  %i.a = getelementptr inbounds nuw i8, ptr %1, i64 16
end_hunk_6
begin_hunk_7_@_ZNK8facebook5velox4core22SimpleFunctionMetadataINS0_9functions12_GLOBAL__N_120DecimalMinusFunctionINS0_4exec10VectorExecEEENS0_11LongDecimalINS0_15IntegerVariableILm3EEENSA_ILm7EEEEENS0_15ConstantCheckerIJNS0_12ShortDecimalINSA_ILm1EEENSA_ILm5EEEEENSF_INSA_ILm2EEENSA_ILm6EEEEEEEEJSI_SL_EE8priorityEv:bb.a
  ret i32 %i.b
}

; Function Attrs: mustprogress nofree norecurse nounwind willreturn memory(readwrite, target_mem: none) uwtable
define internal void @_ZNK8facebook5velox4core22SimpleFunctionMetadataINS0_9functions12_GLOBAL__N_120DecimalMinusFunctionINS0_4exec10VectorExecEEENS0_11LongDecimalINS0_15IntegerVariableILm3EEENSA_ILm7EEEEENS0_15ConstantCheckerIJNS0_12ShortDecimalINSA_ILm1EEENSA_ILm5EEEEENSF_INSA_ILm2EEENSA_ILm6EEEEEEEEJSI_SL_EE9signatureEv(ptr dead_on_unwind noalias writable writeonly sret(%"class.std::shared_ptr.22") align 8 captures(none) initializes((0, 16)) %0, ptr noundef nonnull readonly align 8 captures(none) dereferenceable(80) %1) unnamed_addr #19 align 2 personality ptr @__gxx_personality_v0 {
bb.a:
  %i.a = getelementptr inbounds nuw i8, ptr %1, i64 16
end_hunk_7
begin_hunk_8_@_ZNK8facebook5velox4core22SimpleFunctionMetadataINS0_9functions12_GLOBAL__N_120DecimalMinusFunctionINS0_4exec10VectorExecEEENS0_11LongDecimalINS0_15IntegerVariableILm3EEENSA_ILm7EEEEENS0_15ConstantCheckerIJNS0_12ShortDecimalINSA_ILm1EEENSA_ILm5EEEEENS9_INSA_ILm2EEENSA_ILm6EEEEEEEEJSI_SL_EE8priorityEv:bb.a
  ret i32 %i.b
}

; Function Attrs: mustprogress nofree norecurse nounwind willreturn memory(readwrite, target_mem: none) uwtable
define internal void @_ZNK8facebook5velox4core22SimpleFunctionMetadataINS0_9functions12_GLOBAL__N_120DecimalMinusFunctionINS0_4exec10VectorExecEEENS0_11LongDecimalINS0_15IntegerVariableILm3EEENSA_ILm7EEEEENS0_15ConstantCheckerIJNS0_12ShortDecimalINSA_ILm1EEENSA_ILm5EEEEENS9_INSA_ILm2EEENSA_ILm6EEEEEEEEJSI_SL_EE9signatureEv(ptr dead_on_unwind noalias writable writeonly sret(%"class.std::shared_ptr.22") align 8 captures(none) initializes((0, 16)) %0, ptr noundef nonnull readonly align 8 captures(none) dereferenceable(80) %1) unnamed_addr #19 align 2 personality ptr @__gxx_personality_v0 {
bb.a:
  %i.a = getelementptr inbounds nuw i8, ptr %1, i64 16
end_hunk_8
begin_hunk_9_@_ZNK8facebook5velox4core22SimpleFunctionMetadataINS0_9functions12_GLOBAL__N_120DecimalMinusFunctionINS0_4exec10VectorExecEEENS0_11LongDecimalINS0_15IntegerVariableILm3EEENSA_ILm7EEEEENS0_15ConstantCheckerIJNS9_INSA_ILm1EEENSA_ILm5EEEEENS0_12ShortDecimalINSA_ILm2EEENSA_ILm6EEEEEEEEJSH_SL_EE8priorityEv:bb.a
  ret i32 %i.b
}

; Function Attrs: mustprogress nofree norecurse nounwind willreturn memory(readwrite, target_mem: none) uwtable
define internal void @_ZNK8facebook5velox4core22SimpleFunctionMetadataINS0_9functions12_GLOBAL__N_120DecimalMinusFunctionINS0_4exec10VectorExecEEENS0_11LongDecimalINS0_15IntegerVariableILm3EEENSA_ILm7EEEEENS0_15ConstantCheckerIJNS9_INSA_ILm1EEENSA_ILm5EEEEENS0_12ShortDecimalINSA_ILm2EEENSA_ILm6EEEEEEEEJSH_SL_EE9signatureEv(ptr dead_on_unwind noalias writable writeonly sret(%"class.std::shared_ptr.22") align 8 captures(none) initializes((0, 16)) %0, ptr noundef nonnull readonly align 8 captures(none) dereferenceable(80) %1) unnamed_addr #19 align 2 personality ptr @__gxx_personality_v0 {
bb.a:
  %i.a = getelementptr inbounds nuw i8, ptr %1, i64 16
end_hunk_9
begin_hunk_10_@_ZNK8facebook5velox4core22SimpleFunctionMetadataINS0_9functions12_GLOBAL__N_123DecimalMultiplyFunctionINS0_4exec10VectorExecEEENS0_11LongDecimalINS0_15IntegerVariableILm3EEENSA_ILm7EEEEENS0_15ConstantCheckerIJNS9_INSA_ILm1EEENSA_ILm5EEEEENS9_INSA_ILm2EEENSA_ILm6EEEEEEEEJSH_SK_EE8priorityEv:bb.a
  ret i32 %i.b
}

; Function Attrs: mustprogress nofree norecurse nounwind willreturn memory(readwrite, target_mem: none) uwtable
define internal void @_ZNK8facebook5velox4core22SimpleFunctionMetadataINS0_9functions12_GLOBAL__N_123DecimalMultiplyFunctionINS0_4exec10VectorExecEEENS0_11LongDecimalINS0_15IntegerVariableILm3EEENSA_ILm7EEEEENS0_15ConstantCheckerIJNS9_INSA_ILm1EEENSA_ILm5EEEEENS9_INSA_ILm2EEENSA_ILm6EEEEEEEEJSH_SK_EE9signatureEv(ptr dead_on_unwind noalias writable writeonly sret(%"class.std::shared_ptr.22") align 8 captures(none) initializes((0, 16)) %0, ptr noundef nonnull readonly align 8 captures(none) dereferenceable(80) %1) unnamed_addr #19 align 2 personality ptr @__gxx_personality_v0 {
bb.a:
  %i.a = getelementptr inbounds nuw i8, ptr %1, i64 16
end_hunk_10
begin_hunk_11_@_ZNK8facebook5velox4core22SimpleFunctionMetadataINS0_9functions12_GLOBAL__N_123DecimalMultiplyFunctionINS0_4exec10VectorExecEEENS0_12ShortDecimalINS0_15IntegerVariableILm3EEENSA_ILm7EEEEENS0_15ConstantCheckerIJNS9_INSA_ILm1EEENSA_ILm5EEEEENS9_INSA_ILm2EEENSA_ILm6EEEEEEEEJSH_SK_EE8priorityEv:bb.a
  ret i32 %i.b
}

; Function Attrs: mustprogress nofree norecurse nounwind willreturn memory(readwrite, target_mem: none) uwtable
define internal void @_ZNK8facebook5velox4core22SimpleFunctionMetadataINS0_9functions12_GLOBAL__N_123DecimalMultiplyFunctionINS0_4exec10VectorExecEEENS0_12ShortDecimalINS0_15IntegerVariableILm3EEENSA_ILm7EEEEENS0_15ConstantCheckerIJNS9_INSA_ILm1EEENSA_ILm5EEEEENS9_INSA_ILm2EEENSA_ILm6EEEEEEEEJSH_SK_EE9signatureEv(ptr dead_on_unwind noalias writable writeonly sret(%"class.std::shared_ptr.22") align 8 captures(none) initializes((0, 16)) %0, ptr noundef nonnull readonly align 8 captures(none) dereferenceable(80) %1) unnamed_addr #19 align 2 personality ptr @__gxx_personality_v0 {
bb.a:
  %i.a = getelementptr inbounds nuw i8, ptr %1, i64 16
end_hunk_11
begin_hunk_12_@_ZNK8facebook5velox4core22SimpleFunctionMetadataINS0_9functions12_GLOBAL__N_123DecimalMultiplyFunctionINS0_4exec10VectorExecEEENS0_11LongDecimalINS0_15IntegerVariableILm3EEENSA_ILm7EEEEENS0_15ConstantCheckerIJNS0_12ShortDecimalINSA_ILm1EEENSA_ILm5EEEEENSF_INSA_ILm2EEENSA_ILm6EEEEEEEEJSI_SL_EE8priorityEv:bb.a
  ret i32 %i.b
}

; Function Attrs: mustprogress nofree norecurse nounwind willreturn memory(readwrite, target_mem: none) uwtable
define internal void @_ZNK8facebook5velox4core22SimpleFunctionMetadataINS0_9functions12_GLOBAL__N_123DecimalMultiplyFunctionINS0_4exec10VectorExecEEENS0_11LongDecimalINS0_15IntegerVariableILm3EEENSA_ILm7EEEEENS0_15ConstantCheckerIJNS0_12ShortDecimalINSA_ILm1EEENSA_ILm5EEEEENSF_INSA_ILm2EEENSA_ILm6EEEEEEEEJSI_SL_EE9signatureEv(ptr dead_on_unwind noalias writable writeonly sret(%"class.std::shared_ptr.22") align 8 captures(none) initializes((0, 16)) %0, ptr noundef nonnull readonly align 8 captures(none) dereferenceable(80) %1) unnamed_addr #19 align 2 personality ptr @__gxx_personality_v0 {
bb.a:
  %i.a = getelementptr inbounds nuw i8, ptr %1, i64 16
end_hunk_12
begin_hunk_13_@_ZNK8facebook5velox4core22SimpleFunctionMetadataINS0_9functions12_GLOBAL__N_123DecimalMultiplyFunctionINS0_4exec10VectorExecEEENS0_11LongDecimalINS0_15IntegerVariableILm3EEENSA_ILm7EEEEENS0_15ConstantCheckerIJNS0_12ShortDecimalINSA_ILm1EEENSA_ILm5EEEEENS9_INSA_ILm2EEENSA_ILm6EEEEEEEEJSI_SL_EE8priorityEv:bb.a
  ret i32 %i.b
}

; Function Attrs: mustprogress nofree norecurse nounwind willreturn memory(readwrite, target_mem: none) uwtable
define internal void @_ZNK8facebook5velox4core22SimpleFunctionMetadataINS0_9functions12_GLOBAL__N_123DecimalMultiplyFunctionINS0_4exec10VectorExecEEENS0_11LongDecimalINS0_15IntegerVariableILm3EEENSA_ILm7EEEEENS0_15ConstantCheckerIJNS0_12ShortDecimalINSA_ILm1EEENSA_ILm5EEEEENS9_INSA_ILm2EEENSA_ILm6EEEEEEEEJSI_SL_EE9signatureEv(ptr dead_on_unwind noalias writable writeonly sret(%"class.std::shared_ptr.22") align 8 captures(none) initializes((0, 16)) %0, ptr noundef nonnull readonly align 8 captures(none) dereferenceable(80) %1) unnamed_addr #19 align 2 personality ptr @__gxx_personality_v0 {
bb.a:
  %i.a = getelementptr inbounds nuw i8, ptr %1, i64 16
end_hunk_13
begin_hunk_14_@_ZNK8facebook5velox4core22SimpleFunctionMetadataINS0_9functions12_GLOBAL__N_123DecimalMultiplyFunctionINS0_4exec10VectorExecEEENS0_11LongDecimalINS0_15IntegerVariableILm3EEENSA_ILm7EEEEENS0_15ConstantCheckerIJNS9_INSA_ILm1EEENSA_ILm5EEEEENS0_12ShortDecimalINSA_ILm2EEENSA_ILm6EEEEEEEEJSH_SL_EE8priorityEv:bb.a
  ret i32 %i.b
}

; Function Attrs: mustprogress nofree norecurse nounwind willreturn memory(readwrite, target_mem: none) uwtable
define internal void @_ZNK8facebook5velox4core22SimpleFunctionMetadataINS0_9functions12_GLOBAL__N_123DecimalMultiplyFunctionINS0_4exec10VectorExecEEENS0_11LongDecimalINS0_15IntegerVariableILm3EEENSA_ILm7EEEEENS0_15ConstantCheckerIJNS9_INSA_ILm1EEENSA_ILm5EEEEENS0_12ShortDecimalINSA_ILm2EEENSA_ILm6EEEEEEEEJSH_SL_EE9signatureEv(ptr dead_on_unwind noalias writable writeonly sret(%"class.std::shared_ptr.22") align 8 captures(none) initializes((0, 16)) %0, ptr noundef nonnull readonly align 8 captures(none) dereferenceable(80) %1) unnamed_addr #19 align 2 personality ptr @__gxx_personality_v0 {
bb.a:
  %i.a = getelementptr inbounds nuw i8, ptr %1, i64 16
end_hunk_14
begin_hunk_15_@_ZNK8facebook5velox4core22SimpleFunctionMetadataINS0_9functions12_GLOBAL__N_121DecimalDivideFunctionINS0_4exec10VectorExecEEENS0_11LongDecimalINS0_15IntegerVariableILm3EEENSA_ILm7EEEEENS0_15ConstantCheckerIJNS9_INSA_ILm1EEENSA_ILm5EEEEENS9_INSA_ILm2EEENSA_ILm6EEEEEEEEJSH_SK_EE8priorityEv:bb.a
  ret i32 %i.b
}

; Function Attrs: mustprogress nofree norecurse nounwind willreturn memory(readwrite, target_mem: none) uwtable
define internal void @_ZNK8facebook5velox4core22SimpleFunctionMetadataINS0_9functions12_GLOBAL__N_121DecimalDivideFunctionINS0_4exec10VectorExecEEENS0_11LongDecimalINS0_15IntegerVariableILm3EEENSA_ILm7EEEEENS0_15ConstantCheckerIJNS9_INSA_ILm1EEENSA_ILm5EEEEENS9_INSA_ILm2EEENSA_ILm6EEEEEEEEJSH_SK_EE9signatureEv(ptr dead_on_unwind noalias writable writeonly sret(%"class.std::shared_ptr.22") align 8 captures(none) initializes((0, 16)) %0, ptr noundef nonnull readonly align 8 captures(none) dereferenceable(80) %1) unnamed_addr #19 align 2 personality ptr @__gxx_personality_v0 {
bb.a:
  %i.a = getelementptr inbounds nuw i8, ptr %1, i64 16
end_hunk_15
begin_hunk_16_@_ZNK8facebook5velox4core22SimpleFunctionMetadataINS0_9functions12_GLOBAL__N_121DecimalDivideFunctionINS0_4exec10VectorExecEEENS0_12ShortDecimalINS0_15IntegerVariableILm3EEENSA_ILm7EEEEENS0_15ConstantCheckerIJNS9_INSA_ILm1EEENSA_ILm5EEEEENS9_INSA_ILm2EEENSA_ILm6EEEEEEEEJSH_SK_EE8priorityEv:bb.a
  ret i32 %i.b
}

; Function Attrs: mustprogress nofree norecurse nounwind willreturn memory(readwrite, target_mem: none) uwtable
define internal void @_ZNK8facebook5velox4core22SimpleFunctionMetadataINS0_9functions12_GLOBAL__N_121DecimalDivideFunctionINS0_4exec10VectorExecEEENS0_12ShortDecimalINS0_15IntegerVariableILm3EEENSA_ILm7EEEEENS0_15ConstantCheckerIJNS9_INSA_ILm1EEENSA_ILm5EEEEENS9_INSA_ILm2EEENSA_ILm6EEEEEEEEJSH_SK_EE9signatureEv(ptr dead_on_unwind noalias writable writeonly sret(%"class.std::shared_ptr.22") align 8 captures(none) initializes((0, 16)) %0, ptr noundef nonnull readonly align 8 captures(none) dereferenceable(80) %1) unnamed_addr #19 align 2 personality ptr @__gxx_personality_v0 {
bb.a:
  %i.a = getelementptr inbounds nuw i8, ptr %1, i64 16
end_hunk_16
begin_hunk_17_@_ZNK8facebook5velox4core22SimpleFunctionMetadataINS0_9functions12_GLOBAL__N_121DecimalDivideFunctionINS0_4exec10VectorExecEEENS0_11LongDecimalINS0_15IntegerVariableILm3EEENSA_ILm7EEEEENS0_15ConstantCheckerIJNS0_12ShortDecimalINSA_ILm1EEENSA_ILm5EEEEENSF_INSA_ILm2EEENSA_ILm6EEEEEEEEJSI_SL_EE8priorityEv:bb.a
  ret i32 %i.b
}

; Function Attrs: mustprogress nofree norecurse nounwind willreturn memory(readwrite, target_mem: none) uwtable
define internal void @_ZNK8facebook5velox4core22SimpleFunctionMetadataINS0_9functions12_GLOBAL__N_121DecimalDivideFunctionINS0_4exec10VectorExecEEENS0_11LongDecimalINS0_15IntegerVariableILm3EEENSA_ILm7EEEEENS0_15ConstantCheckerIJNS0_12ShortDecimalINSA_ILm1EEENSA_ILm5EEEEENSF_INSA_ILm2EEENSA_ILm6EEEEEEEEJSI_SL_EE9signatureEv(ptr dead_on_unwind noalias writable writeonly sret(%"class.std::shared_ptr.22") align 8 captures(none) initializes((0, 16)) %0, ptr noundef nonnull readonly align 8 captures(none) dereferenceable(80) %1) unnamed_addr #19 align 2 personality ptr @__gxx_personality_v0 {
bb.a:
  %i.a = getelementptr inbounds nuw i8, ptr %1, i64 16
end_hunk_17
begin_hunk_18_@_ZNK8facebook5velox4core22SimpleFunctionMetadataINS0_9functions12_GLOBAL__N_121DecimalDivideFunctionINS0_4exec10VectorExecEEENS0_11LongDecimalINS0_15IntegerVariableILm3EEENSA_ILm7EEEEENS0_15ConstantCheckerIJNS0_12ShortDecimalINSA_ILm1EEENSA_ILm5EEEEENS9_INSA_ILm2EEENSA_ILm6EEEEEEEEJSI_SL_EE8priorityEv:bb.a
  ret i32 %i.b
}

; Function Attrs: mustprogress nofree norecurse nounwind willreturn memory(readwrite, target_mem: none) uwtable
define internal void @_ZNK8facebook5velox4core22SimpleFunctionMetadataINS0_9functions12_GLOBAL__N_121DecimalDivideFunctionINS0_4exec10VectorExecEEENS0_11LongDecimalINS0_15IntegerVariableILm3EEENSA_ILm7EEEEENS0_15ConstantCheckerIJNS0_12ShortDecimalINSA_ILm1EEENSA_ILm5EEEEENS9_INSA_ILm2EEENSA_ILm6EEEEEEEEJSI_SL_EE9signatureEv(ptr dead_on_unwind noalias writable writeonly sret(%"class.std::shared_ptr.22") align 8 captures(none) initializes((0, 16)) %0, ptr noundef nonnull readonly align 8 captures(none) dereferenceable(80) %1) unnamed_addr #19 align 2 personality ptr @__gxx_personality_v0 {
bb.a:
  %i.a = getelementptr inbounds nuw i8, ptr %1, i64 16
end_hunk_18
begin_hunk_19_@_ZNK8facebook5velox4core22SimpleFunctionMetadataINS0_9functions12_GLOBAL__N_121DecimalDivideFunctionINS0_4exec10VectorExecEEENS0_11LongDecimalINS0_15IntegerVariableILm3EEENSA_ILm7EEEEENS0_15ConstantCheckerIJNS9_INSA_ILm1EEENSA_ILm5EEEEENS0_12ShortDecimalINSA_ILm2EEENSA_ILm6EEEEEEEEJSH_SL_EE8priorityEv:bb.a
  ret i32 %i.b
}

; Function Attrs: mustprogress nofree norecurse nounwind willreturn memory(readwrite, target_mem: none) uwtable
define internal void @_ZNK8facebook5velox4core22SimpleFunctionMetadataINS0_9functions12_GLOBAL__N_121DecimalDivideFunctionINS0_4exec10VectorExecEEENS0_11LongDecimalINS0_15IntegerVariableILm3EEENSA_ILm7EEEEENS0_15ConstantCheckerIJNS9_INSA_ILm1EEENSA_ILm5EEEEENS0_12ShortDecimalINSA_ILm2EEENSA_ILm6EEEEEEEEJSH_SL_EE9signatureEv(ptr dead_on_unwind noalias writable writeonly sret(%"class.std::shared_ptr.22") align 8 captures(none) initializes((0, 16)) %0, ptr noundef nonnull readonly align 8 captures(none) dereferenceable(80) %1) unnamed_addr #19 align 2 personality ptr @__gxx_personality_v0 {
bb.a:
  %i.a = getelementptr inbounds nuw i8, ptr %1, i64 16
end_hunk_19
begin_hunk_20_@_ZNK8facebook5velox4core22SimpleFunctionMetadataINS0_9functions12_GLOBAL__N_121DecimalDivideFunctionINS0_4exec10VectorExecEEENS0_12ShortDecimalINS0_15IntegerVariableILm3EEENSA_ILm7EEEEENS0_15ConstantCheckerIJNS9_INSA_ILm1EEENSA_ILm5EEEEENS0_11LongDecimalINSA_ILm2EEENSA_ILm6EEEEEEEEJSH_SL_EE8priorityEv:bb.a
  ret i32 %i.b
}

; Function Attrs: mustprogress nofree norecurse nounwind willreturn memory(readwrite, target_mem: none) uwtable
define internal void @_ZNK8facebook5velox4core22SimpleFunctionMetadataINS0_9functions12_GLOBAL__N_121DecimalDivideFunctionINS0_4exec10VectorExecEEENS0_12ShortDecimalINS0_15IntegerVariableILm3EEENSA_ILm7EEEEENS0_15ConstantCheckerIJNS9_INSA_ILm1EEENSA_ILm5EEEEENS0_11LongDecimalINSA_ILm2EEENSA_ILm6EEEEEEEEJSH_SL_EE9signatureEv(ptr dead_on_unwind noalias writable writeonly sret(%"class.std::shared_ptr.22") align 8 captures(none) initializes((0, 16)) %0, ptr noundef nonnull readonly align 8 captures(none) dereferenceable(80) %1) unnamed_addr #19 align 2 personality ptr @__gxx_personality_v0 {
bb.a:
  %i.a = getelementptr inbounds nuw i8, ptr %1, i64 16
end_hunk_20
begin_hunk_21_@_ZNK8facebook5velox4core22SimpleFunctionMetadataINS0_9functions12_GLOBAL__N_121DecimalDivideFunctionINS0_4exec10VectorExecEEENS0_12ShortDecimalINS0_15IntegerVariableILm3EEENSA_ILm7EEEEENS0_15ConstantCheckerIJNS0_11LongDecimalINSA_ILm1EEENSA_ILm5EEEEENS9_INSA_ILm2EEENSA_ILm6EEEEEEEEJSI_SL_EE8priorityEv:bb.a
  ret i32 %i.b
}

; Function Attrs: mustprogress nofree norecurse nounwind willreturn memory(readwrite, target_mem: none) uwtable
define internal void @_ZNK8facebook5velox4core22SimpleFunctionMetadataINS0_9functions12_GLOBAL__N_121DecimalDivideFunctionINS0_4exec10VectorExecEEENS0_12ShortDecimalINS0_15IntegerVariableILm3EEENSA_ILm7EEEEENS0_15ConstantCheckerIJNS0_11LongDecimalINSA_ILm1EEENSA_ILm5EEEEENS9_INSA_ILm2EEENSA_ILm6EEEEEEEEJSI_SL_EE9signatureEv(ptr dead_on_unwind noalias writable writeonly sret(%"class.std::shared_ptr.22") align 8 captures(none) initializes((0, 16)) %0, ptr noundef nonnull readonly align 8 captures(none) dereferenceable(80) %1) unnamed_addr #19 align 2 personality ptr @__gxx_personality_v0 {
bb.a:
  %i.a = getelementptr inbounds nuw i8, ptr %1, i64 16
end_hunk_21
begin_hunk_22_@_ZNK8facebook5velox4core22SimpleFunctionMetadataINS0_9functions12_GLOBAL__N_122DecimalModulusFunctionINS0_4exec10VectorExecEEENS0_12ShortDecimalINS0_15IntegerVariableILm3EEENSA_ILm7EEEEENS0_15ConstantCheckerIJNS9_INSA_ILm1EEENSA_ILm5EEEEENS9_INSA_ILm2EEENSA_ILm6EEEEEEEEJSH_SK_EE8priorityEv:bb.a
  ret i32 %i.b
}

; Function Attrs: mustprogress nofree norecurse nounwind willreturn memory(readwrite, target_mem: none) uwtable
define internal void @_ZNK8facebook5velox4core22SimpleFunctionMetadataINS0_9functions12_GLOBAL__N_122DecimalModulusFunctionINS0_4exec10VectorExecEEENS0_12ShortDecimalINS0_15IntegerVariableILm3EEENSA_ILm7EEEEENS0_15ConstantCheckerIJNS9_INSA_ILm1EEENSA_ILm5EEEEENS9_INSA_ILm2EEENSA_ILm6EEEEEEEEJSH_SK_EE9signatureEv(ptr dead_on_unwind noalias writable writeonly sret(%"class.std::shared_ptr.22") align 8 captures(none) initializes((0, 16)) %0, ptr noundef nonnull readonly align 8 captures(none) dereferenceable(80) %1) unnamed_addr #19 align 2 personality ptr @__gxx_personality_v0 {
bb.a:
  %i.a = getelementptr inbounds nuw i8, ptr %1, i64 16
end_hunk_22
begin_hunk_23_@_ZNK8facebook5velox4core22SimpleFunctionMetadataINS0_9functions12_GLOBAL__N_122DecimalModulusFunctionINS0_4exec10VectorExecEEENS0_12ShortDecimalINS0_15IntegerVariableILm3EEENSA_ILm7EEEEENS0_15ConstantCheckerIJNS9_INSA_ILm1EEENSA_ILm5EEEEENS0_11LongDecimalINSA_ILm2EEENSA_ILm6EEEEEEEEJSH_SL_EE8priorityEv:bb.a
  ret i32 %i.b
}

; Function Attrs: mustprogress nofree norecurse nounwind willreturn memory(readwrite, target_mem: none) uwtable
define internal void @_ZNK8facebook5velox4core22SimpleFunctionMetadataINS0_9functions12_GLOBAL__N_122DecimalModulusFunctionINS0_4exec10VectorExecEEENS0_12ShortDecimalINS0_15IntegerVariableILm3EEENSA_ILm7EEEEENS0_15ConstantCheckerIJNS9_INSA_ILm1EEENSA_ILm5EEEEENS0_11LongDecimalINSA_ILm2EEENSA_ILm6EEEEEEEEJSH_SL_EE9signatureEv(ptr dead_on_unwind noalias writable writeonly sret(%"class.std::shared_ptr.22") align 8 captures(none) initializes((0, 16)) %0, ptr noundef nonnull readonly align 8 captures(none) dereferenceable(80) %1) unnamed_addr #19 align 2 personality ptr @__gxx_personality_v0 {
bb.a:
  %i.a = getelementptr inbounds nuw i8, ptr %1, i64 16
end_hunk_23
begin_hunk_24_@_ZNK8facebook5velox4core22SimpleFunctionMetadataINS0_9functions12_GLOBAL__N_122DecimalModulusFunctionINS0_4exec10VectorExecEEENS0_12ShortDecimalINS0_15IntegerVariableILm3EEENSA_ILm7EEEEENS0_15ConstantCheckerIJNS0_11LongDecimalINSA_ILm1EEENSA_ILm5EEEEENS9_INSA_ILm2EEENSA_ILm6EEEEEEEEJSI_SL_EE8priorityEv:bb.a
  ret i32 %i.b
}

; Function Attrs: mustprogress nofree norecurse nounwind willreturn memory(readwrite, target_mem: none) uwtable
define internal void @_ZNK8facebook5velox4core22SimpleFunctionMetadataINS0_9functions12_GLOBAL__N_122DecimalModulusFunctionINS0_4exec10VectorExecEEENS0_12ShortDecimalINS0_15IntegerVariableILm3EEENSA_ILm7EEEEENS0_15ConstantCheckerIJNS0_11LongDecimalINSA_ILm1EEENSA_ILm5EEEEENS9_INSA_ILm2EEENSA_ILm6EEEEEEEEJSI_SL_EE9signatureEv(ptr dead_on_unwind noalias writable writeonly sret(%"class.std::shared_ptr.22") align 8 captures(none) initializes((0, 16)) %0, ptr noundef nonnull readonly align 8 captures(none) dereferenceable(80) %1) unnamed_addr #19 align 2 personality ptr @__gxx_personality_v0 {
bb.a:
  %i.a = getelementptr inbounds nuw i8, ptr %1, i64 16
end_hunk_24
begin_hunk_25_@_ZNK8facebook5velox4core22SimpleFunctionMetadataINS0_9functions12_GLOBAL__N_122DecimalModulusFunctionINS0_4exec10VectorExecEEENS0_11LongDecimalINS0_15IntegerVariableILm3EEENSA_ILm7EEEEENS0_15ConstantCheckerIJNS0_12ShortDecimalINSA_ILm1EEENSA_ILm5EEEEENS9_INSA_ILm2EEENSA_ILm6EEEEEEEEJSI_SL_EE8priorityEv:bb.a
  ret i32 %i.b
}

; Function Attrs: mustprogress nofree norecurse nounwind willreturn memory(readwrite, target_mem: none) uwtable
define internal void @_ZNK8facebook5velox4core22SimpleFunctionMetadataINS0_9functions12_GLOBAL__N_122DecimalModulusFunctionINS0_4exec10VectorExecEEENS0_11LongDecimalINS0_15IntegerVariableILm3EEENSA_ILm7EEEEENS0_15ConstantCheckerIJNS0_12ShortDecimalINSA_ILm1EEENSA_ILm5EEEEENS9_INSA_ILm2EEENSA_ILm6EEEEEEEEJSI_SL_EE9signatureEv(ptr dead_on_unwind noalias writable writeonly sret(%"class.std::shared_ptr.22") align 8 captures(none) initializes((0, 16)) %0, ptr noundef nonnull readonly align 8 captures(none) dereferenceable(80) %1) unnamed_addr #19 align 2 personality ptr @__gxx_personality_v0 {
bb.a:
  %i.a = getelementptr inbounds nuw i8, ptr %1, i64 16
end_hunk_25
begin_hunk_26_@_ZNK8facebook5velox4core22SimpleFunctionMetadataINS0_9functions12_GLOBAL__N_122DecimalModulusFunctionINS0_4exec10VectorExecEEENS0_11LongDecimalINS0_15IntegerVariableILm3EEENSA_ILm7EEEEENS0_15ConstantCheckerIJNS9_INSA_ILm1EEENSA_ILm5EEEEENS0_12ShortDecimalINSA_ILm2EEENSA_ILm6EEEEEEEEJSH_SL_EE8priorityEv:bb.a
  ret i32 %i.b
}

; Function Attrs: mustprogress nofree norecurse nounwind willreturn memory(readwrite, target_mem: none) uwtable
define internal void @_ZNK8facebook5velox4core22SimpleFunctionMetadataINS0_9functions12_GLOBAL__N_122DecimalModulusFunctionINS0_4exec10VectorExecEEENS0_11LongDecimalINS0_15IntegerVariableILm3EEENSA_ILm7EEEEENS0_15ConstantCheckerIJNS9_INSA_ILm1EEENSA_ILm5EEEEENS0_12ShortDecimalINSA_ILm2EEENSA_ILm6EEEEEEEEJSH_SL_EE9signatureEv(ptr dead_on_unwind noalias writable writeonly sret(%"class.std::shared_ptr.22") align 8 captures(none) initializes((0, 16)) %0, ptr noundef nonnull readonly align 8 captures(none) dereferenceable(80) %1) unnamed_addr #19 align 2 personality ptr @__gxx_personality_v0 {
bb.a:
  %i.a = getelementptr inbounds nuw i8, ptr %1, i64 16
end_hunk_26
begin_hunk_27_@_ZNK8facebook5velox4core22SimpleFunctionMetadataINS0_9functions12_GLOBAL__N_122DecimalModulusFunctionINS0_4exec10VectorExecEEENS0_11LongDecimalINS0_15IntegerVariableILm3EEENSA_ILm7EEEEENS0_15ConstantCheckerIJNS9_INSA_ILm1EEENSA_ILm5EEEEENS9_INSA_ILm2EEENSA_ILm6EEEEEEEEJSH_SK_EE8priorityEv:bb.a
  ret i32 %i.b
}

; Function Attrs: mustprogress nofree norecurse nounwind willreturn memory(readwrite, target_mem: none) uwtable
define internal void @_ZNK8facebook5velox4core22SimpleFunctionMetadataINS0_9functions12_GLOBAL__N_122DecimalModulusFunctionINS0_4exec10VectorExecEEENS0_11LongDecimalINS0_15IntegerVariableILm3EEENSA_ILm7EEEEENS0_15ConstantCheckerIJNS9_INSA_ILm1EEENSA_ILm5EEEEENS9_INSA_ILm2EEENSA_ILm6EEEEEEEEJSH_SK_EE9signatureEv(ptr dead_on_unwind noalias writable writeonly sret(%"class.std::shared_ptr.22") align 8 captures(none) initializes((0, 16)) %0, ptr noundef nonnull readonly align 8 captures(none) dereferenceable(80) %1) unnamed_addr #19 align 2 personality ptr @__gxx_personality_v0 {
bb.a:
  %i.a = getelementptr inbounds nuw i8, ptr %1, i64 16
end_hunk_27
begin_hunk_28_@_ZNK8facebook5velox4core22SimpleFunctionMetadataINS0_9functions12_GLOBAL__N_120DecimalFloorFunctionINS0_4exec10VectorExecEEENS0_11LongDecimalINS0_15IntegerVariableILm2EEENSA_ILm6EEEEENS0_15ConstantCheckerIJNS9_INSA_ILm1EEENSA_ILm5EEEEEEEEJSH_EE8priorityEv:bb.a
  ret i32 %i.b
}

; Function Attrs: mustprogress nofree norecurse nounwind willreturn memory(readwrite, target_mem: none) uwtable
define internal void @_ZNK8facebook5velox4core22SimpleFunctionMetadataINS0_9functions12_GLOBAL__N_120DecimalFloorFunctionINS0_4exec10VectorExecEEENS0_11LongDecimalINS0_15IntegerVariableILm2EEENSA_ILm6EEEEENS0_15ConstantCheckerIJNS9_INSA_ILm1EEENSA_ILm5EEEEEEEEJSH_EE9signatureEv(ptr dead_on_unwind noalias writable writeonly sret(%"class.std::shared_ptr.22") align 8 captures(none) initializes((0, 16)) %0, ptr noundef nonnull readonly align 8 captures(none) dereferenceable(80) %1) unnamed_addr #19 align 2 personality ptr @__gxx_personality_v0 {
bb.a:
  %i.a = getelementptr inbounds nuw i8, ptr %1, i64 16
end_hunk_28
begin_hunk_29_@_ZNK8facebook5velox4core22SimpleFunctionMetadataINS0_9functions12_GLOBAL__N_120DecimalFloorFunctionINS0_4exec10VectorExecEEENS0_12ShortDecimalINS0_15IntegerVariableILm2EEENSA_ILm6EEEEENS0_15ConstantCheckerIJNS0_11LongDecimalINSA_ILm1EEENSA_ILm5EEEEEEEEJSI_EE8priorityEv:bb.a
  ret i32 %i.b
}

; Function Attrs: mustprogress nofree norecurse nounwind willreturn memory(readwrite, target_mem: none) uwtable
define internal void @_ZNK8facebook5velox4core22SimpleFunctionMetadataINS0_9functions12_GLOBAL__N_120DecimalFloorFunctionINS0_4exec10VectorExecEEENS0_12ShortDecimalINS0_15IntegerVariableILm2EEENSA_ILm6EEEEENS0_15ConstantCheckerIJNS0_11LongDecimalINSA_ILm1EEENSA_ILm5EEEEEEEEJSI_EE9signatureEv(ptr dead_on_unwind noalias writable writeonly sret(%"class.std::shared_ptr.22") align 8 captures(none) initializes((0, 16)) %0, ptr noundef nonnull readonly align 8 captures(none) dereferenceable(80) %1) unnamed_addr #19 align 2 personality ptr @__gxx_personality_v0 {
bb.a:
  %i.a = getelementptr inbounds nuw i8, ptr %1, i64 16
end_hunk_29
begin_hunk_30_@_ZNK8facebook5velox4core22SimpleFunctionMetadataINS0_9functions12_GLOBAL__N_120DecimalFloorFunctionINS0_4exec10VectorExecEEENS0_12ShortDecimalINS0_15IntegerVariableILm2EEENSA_ILm6EEEEENS0_15ConstantCheckerIJNS9_INSA_ILm1EEENSA_ILm5EEEEEEEEJSH_EE8priorityEv:bb.a
  ret i32 %i.b
}

; Function Attrs: mustprogress nofree norecurse nounwind willreturn memory(readwrite, target_mem: none) uwtable
define internal void @_ZNK8facebook5velox4core22SimpleFunctionMetadataINS0_9functions12_GLOBAL__N_120DecimalFloorFunctionINS0_4exec10VectorExecEEENS0_12ShortDecimalINS0_15IntegerVariableILm2EEENSA_ILm6EEEEENS0_15ConstantCheckerIJNS9_INSA_ILm1EEENSA_ILm5EEEEEEEEJSH_EE9signatureEv(ptr dead_on_unwind noalias writable writeonly sret(%"class.std::shared_ptr.22") align 8 captures(none) initializes((0, 16)) %0, ptr noundef nonnull readonly align 8 captures(none) dereferenceable(80) %1) unnamed_addr #19 align 2 personality ptr @__gxx_personality_v0 {
bb.a:
  %i.a = getelementptr inbounds nuw i8, ptr %1, i64 16
end_hunk_30
begin_hunk_31_@_ZNK8facebook5velox4core22SimpleFunctionMetadataINS0_9functions12_GLOBAL__N_120DecimalRoundFunctionINS0_4exec10VectorExecEEENS0_11LongDecimalINS0_15IntegerVariableILm2EEENSA_ILm6EEEEENS0_15ConstantCheckerIJNS9_INSA_ILm1EEENSA_ILm5EEEEEEEEJSH_EE8priorityEv:bb.a
  ret i32 %i.b
}

; Function Attrs: mustprogress nofree norecurse nounwind willreturn memory(readwrite, target_mem: none) uwtable
define internal void @_ZNK8facebook5velox4core22SimpleFunctionMetadataINS0_9functions12_GLOBAL__N_120DecimalRoundFunctionINS0_4exec10VectorExecEEENS0_11LongDecimalINS0_15IntegerVariableILm2EEENSA_ILm6EEEEENS0_15ConstantCheckerIJNS9_INSA_ILm1EEENSA_ILm5EEEEEEEEJSH_EE9signatureEv(ptr dead_on_unwind noalias writable writeonly sret(%"class.std::shared_ptr.22") align 8 captures(none) initializes((0, 16)) %0, ptr noundef nonnull readonly align 8 captures(none) dereferenceable(80) %1) unnamed_addr #19 align 2 personality ptr @__gxx_personality_v0 {
bb.a:
  %i.a = getelementptr inbounds nuw i8, ptr %1, i64 16
end_hunk_31
begin_hunk_32_@_ZNK8facebook5velox4core22SimpleFunctionMetadataINS0_9functions12_GLOBAL__N_120DecimalRoundFunctionINS0_4exec10VectorExecEEENS0_12ShortDecimalINS0_15IntegerVariableILm2EEENSA_ILm6EEEEENS0_15ConstantCheckerIJNS0_11LongDecimalINSA_ILm1EEENSA_ILm5EEEEEEEEJSI_EE8priorityEv:bb.a
  ret i32 %i.b
}

; Function Attrs: mustprogress nofree norecurse nounwind willreturn memory(readwrite, target_mem: none) uwtable
define internal void @_ZNK8facebook5velox4core22SimpleFunctionMetadataINS0_9functions12_GLOBAL__N_120DecimalRoundFunctionINS0_4exec10VectorExecEEENS0_12ShortDecimalINS0_15IntegerVariableILm2EEENSA_ILm6EEEEENS0_15ConstantCheckerIJNS0_11LongDecimalINSA_ILm1EEENSA_ILm5EEEEEEEEJSI_EE9signatureEv(ptr dead_on_unwind noalias writable writeonly sret(%"class.std::shared_ptr.22") align 8 captures(none) initializes((0, 16)) %0, ptr noundef nonnull readonly align 8 captures(none) dereferenceable(80) %1) unnamed_addr #19 align 2 personality ptr @__gxx_personality_v0 {
bb.a:
  %i.a = getelementptr inbounds nuw i8, ptr %1, i64 16
end_hunk_32
begin_hunk_33_@_ZNK8facebook5velox4core22SimpleFunctionMetadataINS0_9functions12_GLOBAL__N_120DecimalRoundFunctionINS0_4exec10VectorExecEEENS0_12ShortDecimalINS0_15IntegerVariableILm2EEENSA_ILm6EEEEENS0_15ConstantCheckerIJNS9_INSA_ILm1EEENSA_ILm5EEEEEEEEJSH_EE8priorityEv:bb.a
  ret i32 %i.b
}

; Function Attrs: mustprogress nofree norecurse nounwind willreturn memory(readwrite, target_mem: none) uwtable
define internal void @_ZNK8facebook5velox4core22SimpleFunctionMetadataINS0_9functions12_GLOBAL__N_120DecimalRoundFunctionINS0_4exec10VectorExecEEENS0_12ShortDecimalINS0_15IntegerVariableILm2EEENSA_ILm6EEEEENS0_15ConstantCheckerIJNS9_INSA_ILm1EEENSA_ILm5EEEEEEEEJSH_EE9signatureEv(ptr dead_on_unwind noalias writable writeonly sret(%"class.std::shared_ptr.22") align 8 captures(none) initializes((0, 16)) %0, ptr noundef nonnull readonly align 8 captures(none) dereferenceable(80) %1) unnamed_addr #19 align 2 personality ptr @__gxx_personality_v0 {
bb.a:
  %i.a = getelementptr inbounds nuw i8, ptr %1, i64 16
end_hunk_33
begin_hunk_34_@_ZNK8facebook5velox4core22SimpleFunctionMetadataINS0_9functions12_GLOBAL__N_120DecimalRoundFunctionINS0_4exec10VectorExecEEENS0_11LongDecimalINS0_15IntegerVariableILm2EEENSA_ILm5EEEEENS0_15ConstantCheckerIJNS9_INSA_ILm1EEESC_EEiEEEJSG_iEE8priorityEv:bb.a
  ret i32 %i.b
}

; Function Attrs: mustprogress nofree norecurse nounwind willreturn memory(readwrite, target_mem: none) uwtable
define internal void @_ZNK8facebook5velox4core22SimpleFunctionMetadataINS0_9functions12_GLOBAL__N_120DecimalRoundFunctionINS0_4exec10VectorExecEEENS0_11LongDecimalINS0_15IntegerVariableILm2EEENSA_ILm5EEEEENS0_15ConstantCheckerIJNS9_INSA_ILm1EEESC_EEiEEEJSG_iEE9signatureEv(ptr dead_on_unwind noalias writable writeonly sret(%"class.std::shared_ptr.22") align 8 captures(none) initializes((0, 16)) %0, ptr noundef nonnull readonly align 8 captures(none) dereferenceable(80) %1) unnamed_addr #19 align 2 personality ptr @__gxx_personality_v0 {
bb.a:
  %i.a = getelementptr inbounds nuw i8, ptr %1, i64 16
end_hunk_34
begin_hunk_35_@_ZNK8facebook5velox4core22SimpleFunctionMetadataINS0_9functions12_GLOBAL__N_120DecimalRoundFunctionINS0_4exec10VectorExecEEENS0_12ShortDecimalINS0_15IntegerVariableILm2EEENSA_ILm5EEEEENS0_15ConstantCheckerIJNS9_INSA_ILm1EEESC_EEiEEEJSG_iEE8priorityEv:bb.a
  ret i32 %i.b
}

; Function Attrs: mustprogress nofree norecurse nounwind willreturn memory(readwrite, target_mem: none) uwtable
define internal void @_ZNK8facebook5velox4core22SimpleFunctionMetadataINS0_9functions12_GLOBAL__N_120DecimalRoundFunctionINS0_4exec10VectorExecEEENS0_12ShortDecimalINS0_15IntegerVariableILm2EEENSA_ILm5EEEEENS0_15ConstantCheckerIJNS9_INSA_ILm1EEESC_EEiEEEJSG_iEE9signatureEv(ptr dead_on_unwind noalias writable writeonly sret(%"class.std::shared_ptr.22") align 8 captures(none) initializes((0, 16)) %0, ptr noundef nonnull readonly align 8 captures(none) dereferenceable(80) %1) unnamed_addr #19 align 2 personality ptr @__gxx_personality_v0 {
bb.a:
  %i.a = getelementptr inbounds nuw i8, ptr %1, i64 16
end_hunk_35
begin_hunk_36_@_ZNK8facebook5velox4core22SimpleFunctionMetadataINS0_9functions12_GLOBAL__N_120DecimalRoundFunctionINS0_4exec10VectorExecEEENS0_11LongDecimalINS0_15IntegerVariableILm2EEENSA_ILm5EEEEENS0_15ConstantCheckerIJNS0_12ShortDecimalINSA_ILm1EEESC_EEiEEEJSH_iEE8priorityEv:bb.a
  ret i32 %i.b
}

; Function Attrs: mustprogress nofree norecurse nounwind willreturn memory(readwrite, target_mem: none) uwtable
define internal void @_ZNK8facebook5velox4core22SimpleFunctionMetadataINS0_9functions12_GLOBAL__N_120DecimalRoundFunctionINS0_4exec10VectorExecEEENS0_11LongDecimalINS0_15IntegerVariableILm2EEENSA_ILm5EEEEENS0_15ConstantCheckerIJNS0_12ShortDecimalINSA_ILm1EEESC_EEiEEEJSH_iEE9signatureEv(ptr dead_on_unwind noalias writable writeonly sret(%"class.std::shared_ptr.22") align 8 captures(none) initializes((0, 16)) %0, ptr noundef nonnull readonly align 8 captures(none) dereferenceable(80) %1) unnamed_addr #19 align 2 personality ptr @__gxx_personality_v0 {
bb.a:
  %i.a = getelementptr inbounds nuw i8, ptr %1, i64 16
end_hunk_36
begin_hunk_37_@_ZNK8facebook5velox4core22SimpleFunctionMetadataINS0_9functions12_GLOBAL__N_123DecimalTruncateFunctionINS0_4exec10VectorExecEEENS0_12ShortDecimalINS0_15IntegerVariableILm2EEENSA_ILm6EEEEENS0_15ConstantCheckerIJNS9_INSA_ILm1EEENSA_ILm5EEEEEEEEJSH_EE8priorityEv:bb.a
  ret i32 %i.b
}

; Function Attrs: mustprogress nofree norecurse nounwind willreturn memory(readwrite, target_mem: none) uwtable
define internal void @_ZNK8facebook5velox4core22SimpleFunctionMetadataINS0_9functions12_GLOBAL__N_123DecimalTruncateFunctionINS0_4exec10VectorExecEEENS0_12ShortDecimalINS0_15IntegerVariableILm2EEENSA_ILm6EEEEENS0_15ConstantCheckerIJNS9_INSA_ILm1EEENSA_ILm5EEEEEEEEJSH_EE9signatureEv(ptr dead_on_unwind noalias writable writeonly sret(%"class.std::shared_ptr.22") align 8 captures(none) initializes((0, 16)) %0, ptr noundef nonnull readonly align 8 captures(none) dereferenceable(80) %1) unnamed_addr #19 align 2 personality ptr @__gxx_personality_v0 {
bb.a:
  %i.a = getelementptr inbounds nuw i8, ptr %1, i64 16
end_hunk_37
begin_hunk_38_@_ZNK8facebook5velox4core22SimpleFunctionMetadataINS0_9functions12_GLOBAL__N_123DecimalTruncateFunctionINS0_4exec10VectorExecEEENS0_11LongDecimalINS0_15IntegerVariableILm2EEENSA_ILm6EEEEENS0_15ConstantCheckerIJNS9_INSA_ILm1EEENSA_ILm5EEEEEEEEJSH_EE8priorityEv:bb.a
  ret i32 %i.b
}

; Function Attrs: mustprogress nofree norecurse nounwind willreturn memory(readwrite, target_mem: none) uwtable
define internal void @_ZNK8facebook5velox4core22SimpleFunctionMetadataINS0_9functions12_GLOBAL__N_123DecimalTruncateFunctionINS0_4exec10VectorExecEEENS0_11LongDecimalINS0_15IntegerVariableILm2EEENSA_ILm6EEEEENS0_15ConstantCheckerIJNS9_INSA_ILm1EEENSA_ILm5EEEEEEEEJSH_EE9signatureEv(ptr dead_on_unwind noalias writable writeonly sret(%"class.std::shared_ptr.22") align 8 captures(none) initializes((0, 16)) %0, ptr noundef nonnull readonly align 8 captures(none) dereferenceable(80) %1) unnamed_addr #19 align 2 personality ptr @__gxx_personality_v0 {
bb.a:
  %i.a = getelementptr inbounds nuw i8, ptr %1, i64 16
end_hunk_38
begin_hunk_39_@_ZNK8facebook5velox4core22SimpleFunctionMetadataINS0_9functions12_GLOBAL__N_123DecimalTruncateFunctionINS0_4exec10VectorExecEEENS0_12ShortDecimalINS0_15IntegerVariableILm2EEENSA_ILm6EEEEENS0_15ConstantCheckerIJNS0_11LongDecimalINSA_ILm1EEENSA_ILm5EEEEEEEEJSI_EE8priorityEv:bb.a
  ret i32 %i.b
}

; Function Attrs: mustprogress nofree norecurse nounwind willreturn memory(readwrite, target_mem: none) uwtable
define internal void @_ZNK8facebook5velox4core22SimpleFunctionMetadataINS0_9functions12_GLOBAL__N_123DecimalTruncateFunctionINS0_4exec10VectorExecEEENS0_12ShortDecimalINS0_15IntegerVariableILm2EEENSA_ILm6EEEEENS0_15ConstantCheckerIJNS0_11LongDecimalINSA_ILm1EEENSA_ILm5EEEEEEEEJSI_EE9signatureEv(ptr dead_on_unwind noalias writable writeonly sret(%"class.std::shared_ptr.22") align 8 captures(none) initializes((0, 16)) %0, ptr noundef nonnull readonly align 8 captures(none) dereferenceable(80) %1) unnamed_addr #19 align 2 personality ptr @__gxx_personality_v0 {
bb.a:
  %i.a = getelementptr inbounds nuw i8, ptr %1, i64 16
end_hunk_39
begin_hunk_40_@_ZNK8facebook5velox4core22SimpleFunctionMetadataINS0_9functions12_GLOBAL__N_123DecimalTruncateFunctionINS0_4exec10VectorExecEEENS0_12ShortDecimalINS0_15IntegerVariableILm1EEENSA_ILm5EEEEENS0_15ConstantCheckerIJSD_iEEEJSD_iEE8priorityEv:bb.a
  ret i32 %i.b
}

; Function Attrs: mustprogress nofree norecurse nounwind willreturn memory(readwrite, target_mem: none) uwtable
define internal void @_ZNK8facebook5velox4core22SimpleFunctionMetadataINS0_9functions12_GLOBAL__N_123DecimalTruncateFunctionINS0_4exec10VectorExecEEENS0_12ShortDecimalINS0_15IntegerVariableILm1EEENSA_ILm5EEEEENS0_15ConstantCheckerIJSD_iEEEJSD_iEE9signatureEv(ptr dead_on_unwind noalias writable writeonly sret(%"class.std::shared_ptr.22") align 8 captures(none) initializes((0, 16)) %0, ptr noundef nonnull readonly align 8 captures(none) dereferenceable(80) %1) unnamed_addr #19 align 2 personality ptr @__gxx_personality_v0 {
bb.a:
  %i.a = getelementptr inbounds nuw i8, ptr %1, i64 16
end_hunk_40
begin_hunk_41_@_ZNK8facebook5velox4core22SimpleFunctionMetadataINS0_9functions12_GLOBAL__N_123DecimalTruncateFunctionINS0_4exec10VectorExecEEENS0_11LongDecimalINS0_15IntegerVariableILm1EEENSA_ILm5EEEEENS0_15ConstantCheckerIJSD_iEEEJSD_iEE8priorityEv:bb.a
  ret i32 %i.b
}

; Function Attrs: mustprogress nofree norecurse nounwind willreturn memory(readwrite, target_mem: none) uwtable
define internal void @_ZNK8facebook5velox4core22SimpleFunctionMetadataINS0_9functions12_GLOBAL__N_123DecimalTruncateFunctionINS0_4exec10VectorExecEEENS0_11LongDecimalINS0_15IntegerVariableILm1EEENSA_ILm5EEEEENS0_15ConstantCheckerIJSD_iEEEJSD_iEE9signatureEv(ptr dead_on_unwind noalias writable writeonly sret(%"class.std::shared_ptr.22") align 8 captures(none) initializes((0, 16)) %0, ptr noundef nonnull readonly align 8 captures(none) dereferenceable(80) %1) unnamed_addr #19 align 2 personality ptr @__gxx_personality_v0 {
bb.a:
  %i.a = getelementptr inbounds nuw i8, ptr %1, i64 16
end_hunk_41
begin_hunk_42_@llvm.abs.i64
attributes #16 = { mustprogress nofree norecurse nounwind willreturn memory(read, inaccessiblemem: none, target_mem: none) uwtable "min-legal-vector-width"="0" "no-trapping-math"="true" "stack-protector-buffer-size"="8" "target-cpu"="x86-64" "target-features"="+avx,+avx2,+bmi2,+cmov,+crc32,+cx8,+f16c,+fma,+fxsr,+lzcnt,+mmx,+popcnt,+sse,+sse2,+sse3,+sse4.1,+sse4.2,+ssse3,+x87,+xsave" "tune-cpu"="generic" }
attributes #17 = { mustprogress nofree norecurse nosync nounwind willreturn memory(none) uwtable "min-legal-vector-width"="0" "no-trapping-math"="true" "stack-protector-buffer-size"="8" "target-cpu"="x86-64" "target-features"="+avx,+avx2,+bmi2,+cmov,+crc32,+cx8,+f16c,+fma,+fxsr,+lzcnt,+mmx,+popcnt,+sse,+sse2,+sse3,+sse4.1,+sse4.2,+ssse3,+x87,+xsave" "tune-cpu"="generic" }
attributes #18 = { mustprogress nofree norecurse nosync nounwind willreturn memory(argmem: read) uwtable "min-legal-vector-width"="0" "no-trapping-math"="true" "stack-protector-buffer-size"="8" "target-cpu"="x86-64" "target-features"="+avx,+avx2,+bmi2,+cmov,+crc32,+cx8,+f16c,+fma,+fxsr,+lzcnt,+mmx,+popcnt,+sse,+sse2,+sse3,+sse4.1,+sse4.2,+ssse3,+x87,+xsave" "tune-cpu"="generic" }
attributes #19 = { mustprogress nofree norecurse nounwind willreturn memory(readwrite, target_mem: none) uwtable "min-legal-vector-width"="0" "no-trapping-math"="true" "stack-protector-buffer-size"="8" "target-cpu"="x86-64" "target-features"="+avx,+avx2,+bmi2,+cmov,+crc32,+cx8,+f16c,+fma,+fxsr,+lzcnt,+mmx,+popcnt,+sse,+sse2,+sse3,+sse4.1,+sse4.2,+ssse3,+x87,+xsave" "tune-cpu"="generic" }
attributes #20 = { nounwind "no-trapping-math"="true" "stack-protector-buffer-size"="8" "target-cpu"="x86-64" "target-features"="+avx,+avx2,+bmi2,+cmov,+crc32,+cx8,+f16c,+fma,+fxsr,+lzcnt,+mmx,+popcnt,+sse,+sse2,+sse3,+sse4.1,+sse4.2,+ssse3,+x87,+xsave" "tune-cpu"="generic" }
attributes #21 = { mustprogress nofree nounwind willreturn memory(read) "no-trapping-math"="true" "stack-protector-buffer-size"="8" "target-cpu"="x86-64" "target-features"="+avx,+avx2,+bmi2,+cmov,+crc32,+cx8,+f16c,+fma,+fxsr,+lzcnt,+mmx,+popcnt,+sse,+sse2,+sse3,+sse4.1,+sse4.2,+ssse3,+x87,+xsave" "tune-cpu"="generic" }
attributes #22 = { mustprogress noinline nounwind uwtable "min-legal-vector-width"="0" "no-trapping-math"="true" "stack-protector-buffer-size"="8" "target-cpu"="x86-64" "target-features"="+avx,+avx2,+bmi2,+cmov,+crc32,+cx8,+f16c,+fma,+fxsr,+lzcnt,+mmx,+popcnt,+sse,+sse2,+sse3,+sse4.1,+sse4.2,+ssse3,+x87,+xsave" "tune-cpu"="generic" }
end_hunk_42
