begin_hunk_0
  br label %.thread132

.thread132:                                       ; preds = %bb.v, %.thread135
  %.sroa.0121.0 = phi i1 [ true, %.thread135 ], [ false, %bb.v ]
  br label %.thread134

.thread134:                                       ; preds = %bb.v, %bb.v, %bb.v, %bb.v, %bb.v, %bb.v, %bb.v, %bb.v, %bb.v, %bb.v, %bb.v, %bb.v, %bb.v, %bb.v, %.thread132
end_hunk_0
begin_hunk_1
  br label %.thread137

.thread137:                                       ; preds = %bb.o, %.thread140
  %.sroa.0126.0 = phi i1 [ true, %.thread140 ], [ false, %bb.o ]
  br label %.thread139

.thread139:                                       ; preds = %bb.o, %bb.o, %bb.o, %bb.o, %bb.o, %bb.o, %bb.o, %bb.o, %bb.o, %bb.o, %bb.o, %bb.o, %bb.o, %bb.o, %.thread137
end_hunk_1
begin_hunk_2
  br label %_ZNO8simdjson8fallback35implementation_simdjson_result_baseINS0_8ondemand9json_typeEE10take_valueEv.exit30.i

_ZNO8simdjson8fallback35implementation_simdjson_result_baseINS0_8ondemand9json_typeEE10take_valueEv.exit30.i: ; preds = %bb.p, %.thread276
  %.sroa.0262.0 = phi i1 [ true, %.thread276 ], [ false, %bb.p ]
  br label %.thread275

.thread275:                                       ; preds = %bb.p, %bb.p, %bb.p, %bb.p, %bb.p, %bb.p, %bb.p, %bb.p, %bb.p, %bb.p, %bb.p, %bb.p, %bb.p, %bb.p, %_ZNO8simdjson8fallback35implementation_simdjson_result_baseINS0_8ondemand9json_typeEE10take_valueEv.exit30.i
end_hunk_2
begin_hunk_3
  br label %.thread303

.thread303:                                       ; preds = %bb.bf, %.thread306
  %.sroa.0191.0 = phi i1 [ true, %.thread306 ], [ false, %bb.bf ]
  br label %.thread305

.thread305:                                       ; preds = %bb.bf, %bb.bf, %bb.bf, %bb.bf, %bb.bf, %bb.bf, %bb.bf, %bb.bf, %bb.bf, %bb.bf, %bb.bf, %bb.bf, %bb.bf, %bb.bf, %.thread303
end_hunk_3
begin_hunk_4
  br label %_ZNO8simdjson8fallback35implementation_simdjson_result_baseINS0_8ondemand9json_typeEE10take_valueEv.exit21.i

_ZNO8simdjson8fallback35implementation_simdjson_result_baseINS0_8ondemand9json_typeEE10take_valueEv.exit21.i: ; preds = %bb.v, %.thread107
  %.sroa.094.0 = phi i1 [ true, %.thread107 ], [ false, %bb.v ]
  br label %.thread106

.thread106:                                       ; preds = %bb.v, %bb.v, %bb.v, %bb.v, %bb.v, %bb.v, %bb.v, %bb.v, %bb.v, %bb.v, %bb.v, %bb.v, %bb.v, %bb.v, %_ZNO8simdjson8fallback35implementation_simdjson_result_baseINS0_8ondemand9json_typeEE10take_valueEv.exit21.i
end_hunk_4
begin_hunk_5
  br label %_ZNO8simdjson8fallback35implementation_simdjson_result_baseINS0_8ondemand9json_typeEE10take_valueEv.exit21.i

_ZNO8simdjson8fallback35implementation_simdjson_result_baseINS0_8ondemand9json_typeEE10take_valueEv.exit21.i: ; preds = %bb.o, %.thread113
  %.sroa.0100.0 = phi i1 [ true, %.thread113 ], [ false, %bb.o ]
  br label %.thread112

.thread112:                                       ; preds = %bb.o, %bb.o, %bb.o, %bb.o, %bb.o, %bb.o, %bb.o, %bb.o, %bb.o, %bb.o, %bb.o, %bb.o, %bb.o, %bb.o, %_ZNO8simdjson8fallback35implementation_simdjson_result_baseINS0_8ondemand9json_typeEE10take_valueEv.exit21.i
end_hunk_5
begin_hunk_6
  br label %_ZNO8simdjson8fallback35implementation_simdjson_result_baseINS0_8ondemand9json_typeEE10take_valueEv.exit21.i.i

_ZNO8simdjson8fallback35implementation_simdjson_result_baseINS0_8ondemand9json_typeEE10take_valueEv.exit21.i.i: ; preds = %bb.p, %.thread250
  %.sroa.0236.0 = phi i1 [ true, %.thread250 ], [ false, %bb.p ]
  br label %.thread249

.thread249:                                       ; preds = %bb.p, %bb.p, %bb.p, %bb.p, %bb.p, %bb.p, %bb.p, %bb.p, %bb.p, %bb.p, %bb.p, %bb.p, %bb.p, %bb.p, %_ZNO8simdjson8fallback35implementation_simdjson_result_baseINS0_8ondemand9json_typeEE10take_valueEv.exit21.i.i
end_hunk_6
begin_hunk_7
  br label %_ZNO8simdjson8fallback35implementation_simdjson_result_baseINS0_8ondemand9json_typeEE10take_valueEv.exit21.i

_ZNO8simdjson8fallback35implementation_simdjson_result_baseINS0_8ondemand9json_typeEE10take_valueEv.exit21.i: ; preds = %bb.bf, %.thread278
  %.sroa.0165.0 = phi i1 [ true, %.thread278 ], [ false, %bb.bf ]
  br label %.thread277

.thread277:                                       ; preds = %bb.bf, %bb.bf, %bb.bf, %bb.bf, %bb.bf, %bb.bf, %bb.bf, %bb.bf, %bb.bf, %bb.bf, %bb.bf, %bb.bf, %bb.bf, %bb.bf, %_ZNO8simdjson8fallback35implementation_simdjson_result_baseINS0_8ondemand9json_typeEE10take_valueEv.exit21.i
end_hunk_7
begin_hunk_8
  br label %_ZNO8simdjson8fallback35implementation_simdjson_result_baseINS0_8ondemand9json_typeEE10take_valueEv.exit21.i

_ZNO8simdjson8fallback35implementation_simdjson_result_baseINS0_8ondemand9json_typeEE10take_valueEv.exit21.i: ; preds = %bb.z, %.thread108
  %.sroa.095.0 = phi i1 [ true, %.thread108 ], [ false, %bb.z ]
  br label %.thread107

.thread107:                                       ; preds = %bb.z, %bb.z, %bb.z, %bb.z, %bb.z, %bb.z, %bb.z, %bb.z, %bb.z, %bb.z, %bb.z, %bb.z, %bb.z, %bb.z, %_ZNO8simdjson8fallback35implementation_simdjson_result_baseINS0_8ondemand9json_typeEE10take_valueEv.exit21.i
end_hunk_8
begin_hunk_9
  br label %_ZNO8simdjson8fallback35implementation_simdjson_result_baseINS0_8ondemand9json_typeEE10take_valueEv.exit21.i

_ZNO8simdjson8fallback35implementation_simdjson_result_baseINS0_8ondemand9json_typeEE10take_valueEv.exit21.i: ; preds = %bb.s, %.thread114
  %.sroa.0101.0 = phi i1 [ true, %.thread114 ], [ false, %bb.s ]
  br label %.thread113

.thread113:                                       ; preds = %bb.s, %bb.s, %bb.s, %bb.s, %bb.s, %bb.s, %bb.s, %bb.s, %bb.s, %bb.s, %bb.s, %bb.s, %bb.s, %bb.s, %_ZNO8simdjson8fallback35implementation_simdjson_result_baseINS0_8ondemand9json_typeEE10take_valueEv.exit21.i
end_hunk_9
begin_hunk_10
  br label %_ZNO8simdjson8fallback35implementation_simdjson_result_baseINS0_8ondemand9json_typeEE10take_valueEv.exit21.i.i

_ZNO8simdjson8fallback35implementation_simdjson_result_baseINS0_8ondemand9json_typeEE10take_valueEv.exit21.i.i: ; preds = %bb.t, %.thread256
  %.sroa.0242.0 = phi i1 [ true, %.thread256 ], [ false, %bb.t ]
  br label %.thread255

.thread255:                                       ; preds = %bb.t, %bb.t, %bb.t, %bb.t, %bb.t, %bb.t, %bb.t, %bb.t, %bb.t, %bb.t, %bb.t, %bb.t, %bb.t, %bb.t, %_ZNO8simdjson8fallback35implementation_simdjson_result_baseINS0_8ondemand9json_typeEE10take_valueEv.exit21.i.i
end_hunk_10
begin_hunk_11
  br label %_ZNO8simdjson8fallback35implementation_simdjson_result_baseINS0_8ondemand9json_typeEE10take_valueEv.exit21.i

_ZNO8simdjson8fallback35implementation_simdjson_result_baseINS0_8ondemand9json_typeEE10take_valueEv.exit21.i: ; preds = %bb.bn, %.thread284
  %.sroa.0171.0 = phi i1 [ true, %.thread284 ], [ false, %bb.bn ]
  br label %.thread283

.thread283:                                       ; preds = %bb.bn, %bb.bn, %bb.bn, %bb.bn, %bb.bn, %bb.bn, %bb.bn, %bb.bn, %bb.bn, %bb.bn, %bb.bn, %bb.bn, %bb.bn, %bb.bn, %_ZNO8simdjson8fallback35implementation_simdjson_result_baseINS0_8ondemand9json_typeEE10take_valueEv.exit21.i
end_hunk_11
begin_hunk_12
  br label %_ZNO8simdjson8fallback35implementation_simdjson_result_baseINS0_8ondemand9json_typeEE10take_valueEv.exit20.i

_ZNO8simdjson8fallback35implementation_simdjson_result_baseINS0_8ondemand9json_typeEE10take_valueEv.exit20.i: ; preds = %bb.v, %.thread110
  %.sroa.097.0 = phi i1 [ true, %.thread110 ], [ false, %bb.v ]
  br label %.thread109

.thread109:                                       ; preds = %bb.v, %bb.v, %bb.v, %bb.v, %bb.v, %bb.v, %bb.v, %bb.v, %bb.v, %bb.v, %bb.v, %bb.v, %bb.v, %bb.v, %_ZNO8simdjson8fallback35implementation_simdjson_result_baseINS0_8ondemand9json_typeEE10take_valueEv.exit20.i
end_hunk_12
begin_hunk_13
  br label %_ZNO8simdjson8fallback35implementation_simdjson_result_baseINS0_8ondemand9json_typeEE10take_valueEv.exit20.i

_ZNO8simdjson8fallback35implementation_simdjson_result_baseINS0_8ondemand9json_typeEE10take_valueEv.exit20.i: ; preds = %bb.o, %.thread116
  %.sroa.0103.0 = phi i1 [ true, %.thread116 ], [ false, %bb.o ]
  br label %.thread115

.thread115:                                       ; preds = %bb.o, %bb.o, %bb.o, %bb.o, %bb.o, %bb.o, %bb.o, %bb.o, %bb.o, %bb.o, %bb.o, %bb.o, %bb.o, %bb.o, %_ZNO8simdjson8fallback35implementation_simdjson_result_baseINS0_8ondemand9json_typeEE10take_valueEv.exit20.i
end_hunk_13
begin_hunk_14
  br label %_ZNO8simdjson8fallback35implementation_simdjson_result_baseINS0_8ondemand9json_typeEE10take_valueEv.exit20.i.i

_ZNO8simdjson8fallback35implementation_simdjson_result_baseINS0_8ondemand9json_typeEE10take_valueEv.exit20.i.i: ; preds = %bb.p, %.thread253
  %.sroa.0239.0 = phi i1 [ true, %.thread253 ], [ false, %bb.p ]
  br label %.thread252

.thread252:                                       ; preds = %bb.p, %bb.p, %bb.p, %bb.p, %bb.p, %bb.p, %bb.p, %bb.p, %bb.p, %bb.p, %bb.p, %bb.p, %bb.p, %bb.p, %_ZNO8simdjson8fallback35implementation_simdjson_result_baseINS0_8ondemand9json_typeEE10take_valueEv.exit20.i.i
end_hunk_14
begin_hunk_15
  br label %_ZNO8simdjson8fallback35implementation_simdjson_result_baseINS0_8ondemand9json_typeEE10take_valueEv.exit20.i

_ZNO8simdjson8fallback35implementation_simdjson_result_baseINS0_8ondemand9json_typeEE10take_valueEv.exit20.i: ; preds = %bb.bf, %.thread281
  %.sroa.0168.0 = phi i1 [ true, %.thread281 ], [ false, %bb.bf ]
  br label %.thread280

.thread280:                                       ; preds = %bb.bf, %bb.bf, %bb.bf, %bb.bf, %bb.bf, %bb.bf, %bb.bf, %bb.bf, %bb.bf, %bb.bf, %bb.bf, %bb.bf, %bb.bf, %bb.bf, %_ZNO8simdjson8fallback35implementation_simdjson_result_baseINS0_8ondemand9json_typeEE10take_valueEv.exit20.i
end_hunk_15
begin_hunk_16
  br label %_ZNO8simdjson8fallback35implementation_simdjson_result_baseINS0_8ondemand9json_typeEE10take_valueEv.exit20.i.i

_ZNO8simdjson8fallback35implementation_simdjson_result_baseINS0_8ondemand9json_typeEE10take_valueEv.exit20.i.i: ; preds = %bb.v, %.thread105
  %.sroa.092.0 = phi i1 [ true, %.thread105 ], [ false, %bb.v ]
  br label %.thread104

.thread104:                                       ; preds = %bb.v, %bb.v, %bb.v, %bb.v, %bb.v, %bb.v, %bb.v, %bb.v, %bb.v, %bb.v, %bb.v, %bb.v, %bb.v, %bb.v, %_ZNO8simdjson8fallback35implementation_simdjson_result_baseINS0_8ondemand9json_typeEE10take_valueEv.exit20.i.i
end_hunk_16
begin_hunk_17
  br label %_ZNO8simdjson8fallback35implementation_simdjson_result_baseINS0_8ondemand9json_typeEE10take_valueEv.exit20.i.i

_ZNO8simdjson8fallback35implementation_simdjson_result_baseINS0_8ondemand9json_typeEE10take_valueEv.exit20.i.i: ; preds = %bb.o, %.thread111
  %.sroa.098.0 = phi i1 [ true, %.thread111 ], [ false, %bb.o ]
  br label %.thread110

.thread110:                                       ; preds = %bb.o, %bb.o, %bb.o, %bb.o, %bb.o, %bb.o, %bb.o, %bb.o, %bb.o, %bb.o, %bb.o, %bb.o, %bb.o, %bb.o, %_ZNO8simdjson8fallback35implementation_simdjson_result_baseINS0_8ondemand9json_typeEE10take_valueEv.exit20.i.i
end_hunk_17
begin_hunk_18
  br label %_ZNO8simdjson8fallback35implementation_simdjson_result_baseINS0_8ondemand9json_typeEE10take_valueEv.exit20.i.i.i

_ZNO8simdjson8fallback35implementation_simdjson_result_baseINS0_8ondemand9json_typeEE10take_valueEv.exit20.i.i.i: ; preds = %bb.p, %.thread248
  %.sroa.0234.0 = phi i1 [ true, %.thread248 ], [ false, %bb.p ]
  br label %.thread247

.thread247:                                       ; preds = %bb.p, %bb.p, %bb.p, %bb.p, %bb.p, %bb.p, %bb.p, %bb.p, %bb.p, %bb.p, %bb.p, %bb.p, %bb.p, %bb.p, %_ZNO8simdjson8fallback35implementation_simdjson_result_baseINS0_8ondemand9json_typeEE10take_valueEv.exit20.i.i.i
end_hunk_18
begin_hunk_19
  br label %_ZNO8simdjson8fallback35implementation_simdjson_result_baseINS0_8ondemand9json_typeEE10take_valueEv.exit20.i.i

_ZNO8simdjson8fallback35implementation_simdjson_result_baseINS0_8ondemand9json_typeEE10take_valueEv.exit20.i.i: ; preds = %bb.bf, %.thread276
  %.sroa.0163.0 = phi i1 [ true, %.thread276 ], [ false, %bb.bf ]
  br label %.thread275

.thread275:                                       ; preds = %bb.bf, %bb.bf, %bb.bf, %bb.bf, %bb.bf, %bb.bf, %bb.bf, %bb.bf, %bb.bf, %bb.bf, %bb.bf, %bb.bf, %bb.bf, %bb.bf, %_ZNO8simdjson8fallback35implementation_simdjson_result_baseINS0_8ondemand9json_typeEE10take_valueEv.exit20.i.i
end_hunk_19
begin_hunk_20
  br label %_ZNO8simdjson8fallback35implementation_simdjson_result_baseINS0_8ondemand9json_typeEE10take_valueEv.exit20.i.i

_ZNO8simdjson8fallback35implementation_simdjson_result_baseINS0_8ondemand9json_typeEE10take_valueEv.exit20.i.i: ; preds = %bb.z, %.thread107
  %.sroa.094.0 = phi i1 [ true, %.thread107 ], [ false, %bb.z ]
  br label %.thread106

.thread106:                                       ; preds = %bb.z, %bb.z, %bb.z, %bb.z, %bb.z, %bb.z, %bb.z, %bb.z, %bb.z, %bb.z, %bb.z, %bb.z, %bb.z, %bb.z, %_ZNO8simdjson8fallback35implementation_simdjson_result_baseINS0_8ondemand9json_typeEE10take_valueEv.exit20.i.i
end_hunk_20
begin_hunk_21
  br label %_ZNO8simdjson8fallback35implementation_simdjson_result_baseINS0_8ondemand9json_typeEE10take_valueEv.exit20.i.i

_ZNO8simdjson8fallback35implementation_simdjson_result_baseINS0_8ondemand9json_typeEE10take_valueEv.exit20.i.i: ; preds = %bb.s, %.thread113
  %.sroa.0100.0 = phi i1 [ true, %.thread113 ], [ false, %bb.s ]
  br label %.thread112

.thread112:                                       ; preds = %bb.s, %bb.s, %bb.s, %bb.s, %bb.s, %bb.s, %bb.s, %bb.s, %bb.s, %bb.s, %bb.s, %bb.s, %bb.s, %bb.s, %_ZNO8simdjson8fallback35implementation_simdjson_result_baseINS0_8ondemand9json_typeEE10take_valueEv.exit20.i.i
end_hunk_21
begin_hunk_22
  br label %_ZNO8simdjson8fallback35implementation_simdjson_result_baseINS0_8ondemand9json_typeEE10take_valueEv.exit20.i.i.i

_ZNO8simdjson8fallback35implementation_simdjson_result_baseINS0_8ondemand9json_typeEE10take_valueEv.exit20.i.i.i: ; preds = %bb.t, %.thread254
  %.sroa.0240.0 = phi i1 [ true, %.thread254 ], [ false, %bb.t ]
  br label %.thread253

.thread253:                                       ; preds = %bb.t, %bb.t, %bb.t, %bb.t, %bb.t, %bb.t, %bb.t, %bb.t, %bb.t, %bb.t, %bb.t, %bb.t, %bb.t, %bb.t, %_ZNO8simdjson8fallback35implementation_simdjson_result_baseINS0_8ondemand9json_typeEE10take_valueEv.exit20.i.i.i
end_hunk_22
begin_hunk_23
  br label %_ZNO8simdjson8fallback35implementation_simdjson_result_baseINS0_8ondemand9json_typeEE10take_valueEv.exit20.i.i

_ZNO8simdjson8fallback35implementation_simdjson_result_baseINS0_8ondemand9json_typeEE10take_valueEv.exit20.i.i: ; preds = %bb.bn, %.thread282
  %.sroa.0169.0 = phi i1 [ true, %.thread282 ], [ false, %bb.bn ]
  br label %.thread281

.thread281:                                       ; preds = %bb.bn, %bb.bn, %bb.bn, %bb.bn, %bb.bn, %bb.bn, %bb.bn, %bb.bn, %bb.bn, %bb.bn, %bb.bn, %bb.bn, %bb.bn, %bb.bn, %_ZNO8simdjson8fallback35implementation_simdjson_result_baseINS0_8ondemand9json_typeEE10take_valueEv.exit20.i.i
end_hunk_23
