inline.NumInlined: 92650
inline.NumDeleted: 25950
begin_hunk_0_@_ZN5folly3f146detail8F14TableINS1_20ValueContainerPolicyIPKN8facebook5velox6BufferEvvvvEEE19tryEmplaceValueImplIS8_JS8_EEESt4pairINS1_11F14ItemIterIPNS1_8F14ChunkIS8_EEEEbESC_ImmERKT_DpOT0_:bb.a
_ZN5folly3f146detail8F14TableINS1_20ValueContainerPolicyIPKN8facebook5velox6BufferEvvvvEEE13insertAtBlankIJS8_EEEvNS1_11F14ItemIterIPNS1_8F14ChunkIS8_EEEESt4pairImmEDpOT_.exit: ; preds = %_ZN5folly3f146detail8F14ChunkIPKN8facebook5velox6BufferEE6setTagEmm.exit, %bb.o
  %i.cb = load i64, ptr %i.a, align 8, !tbaa !1394 ; 2 uses
  %i.cc = and i64 %i.cb, -256
  %6 = and i64 %i.cb, 255
  %7 = add i64 %i.cc, 256
  %i.cd = or disjoint i64 %7, %6
  store i64 %i.cd, ptr %i.a, align 8, !tbaa !1394
  br label %bb.p

end_hunk_0
begin_hunk_1_@_ZN5folly3f146detail8F14TableINS1_20ValueContainerPolicyIbbvvvEEE19tryEmplaceValueImplIbJRKSt21piecewise_construct_tSt5tupleIJObEESA_IJEEEEESt4pairINS1_11F14ItemIterIPNS1_8F14ChunkISE_IKbbEEEEEbESE_ImmERKT_DpOT0_:bb.a
_ZN5folly3f146detail8F14TableINS1_20ValueContainerPolicyIbbvvvEEE13insertAtBlankIJRKSt21piecewise_construct_tSt5tupleIJObEESA_IJEEEEEvNS1_11F14ItemIterIPNS1_8F14ChunkISt4pairIKbbEEEEESG_ImmEDpOT_.exit: ; preds = %_ZN5folly3f146detail8F14ChunkISt4pairIKbbEE6setTagEmm.exit, %bb.o
  %i.cd = load i64, ptr %i.a, align 8, !tbaa !1394 ; 2 uses
  %i.ce = and i64 %i.cd, -256
  %8 = and i64 %i.cd, 255
  %9 = add i64 %i.ce, 256
  %i.cf = or disjoint i64 %9, %8
  store i64 %i.cf, ptr %i.a, align 8, !tbaa !1394
  br label %bb.p

end_hunk_1
begin_hunk_2_@_ZN5folly3f146detail8F14TableINS1_20ValueContainerPolicyIaavvvEEE19tryEmplaceValueImplIaJRKSt21piecewise_construct_tSt5tupleIJOaEESA_IJEEEEESt4pairINS1_11F14ItemIterIPNS1_8F14ChunkISE_IKaaEEEEEbESE_ImmERKT_DpOT0_:bb.a
_ZN5folly3f146detail8F14TableINS1_20ValueContainerPolicyIaavvvEEE13insertAtBlankIJRKSt21piecewise_construct_tSt5tupleIJOaEESA_IJEEEEEvNS1_11F14ItemIterIPNS1_8F14ChunkISt4pairIKaaEEEEESG_ImmEDpOT_.exit: ; preds = %_ZN5folly3f146detail8F14ChunkISt4pairIKaaEE6setTagEmm.exit, %bb.o
  %i.cd = load i64, ptr %i.a, align 8, !tbaa !1394 ; 2 uses
  %i.ce = and i64 %i.cd, -256
  %8 = and i64 %i.cd, 255
  %9 = add i64 %i.ce, 256
  %i.cf = or disjoint i64 %9, %8
  store i64 %i.cf, ptr %i.a, align 8, !tbaa !1394
  br label %bb.p

end_hunk_2
begin_hunk_3_@_ZN5folly3f146detail8F14TableINS1_20ValueContainerPolicyIssvvvEEE19tryEmplaceValueImplIsJRKSt21piecewise_construct_tSt5tupleIJOsEESA_IJEEEEESt4pairINS1_11F14ItemIterIPNS1_8F14ChunkISE_IKssEEEEEbESE_ImmERKT_DpOT0_:bb.a
_ZN5folly3f146detail8F14TableINS1_20ValueContainerPolicyIssvvvEEE13insertAtBlankIJRKSt21piecewise_construct_tSt5tupleIJOsEESA_IJEEEEEvNS1_11F14ItemIterIPNS1_8F14ChunkISt4pairIKssEEEEESG_ImmEDpOT_.exit: ; preds = %_ZN5folly3f146detail8F14ChunkISt4pairIKssEE6setTagEmm.exit, %bb.o
  %i.cd = load i64, ptr %i.a, align 8, !tbaa !1394 ; 2 uses
  %i.ce = and i64 %i.cd, -256
  %8 = and i64 %i.cd, 255
  %9 = add i64 %i.ce, 256
  %i.cf = or disjoint i64 %9, %8
  store i64 %i.cf, ptr %i.a, align 8, !tbaa !1394
  br label %bb.p

end_hunk_3
begin_hunk_4_@_ZN5folly3f146detail8F14TableINS1_20ValueContainerPolicyIiivvvEEE19tryEmplaceValueImplIiJRKSt21piecewise_construct_tSt5tupleIJOiEESA_IJEEEEESt4pairINS1_11F14ItemIterIPNS1_8F14ChunkISE_IKiiEEEEEbESE_ImmERKT_DpOT0_:bb.a
_ZN5folly3f146detail8F14TableINS1_20ValueContainerPolicyIiivvvEEE13insertAtBlankIJRKSt21piecewise_construct_tSt5tupleIJOiEESA_IJEEEEEvNS1_11F14ItemIterIPNS1_8F14ChunkISt4pairIKiiEEEEESG_ImmEDpOT_.exit: ; preds = %_ZN5folly3f146detail8F14ChunkISt4pairIKiiEE6setTagEmm.exit, %bb.o
  %i.ce = load i64, ptr %i.a, align 8, !tbaa !1394 ; 2 uses
  %i.cf = and i64 %i.ce, -256
  %8 = and i64 %i.ce, 255
  %9 = add i64 %i.cf, 256
  %i.cg = or disjoint i64 %9, %8
  store i64 %i.cg, ptr %i.a, align 8, !tbaa !1394
  br label %bb.p

end_hunk_4
begin_hunk_5_@_ZN5folly3f146detail8F14TableINS1_20ValueContainerPolicyIllvvvEEE19tryEmplaceValueImplIlJRKSt21piecewise_construct_tSt5tupleIJOlEESA_IJEEEEESt4pairINS1_11F14ItemIterIPNS1_8F14ChunkISE_IKllEEEEEbESE_ImmERKT_DpOT0_:bb.a
_ZN5folly3f146detail8F14TableINS1_20ValueContainerPolicyIllvvvEEE13insertAtBlankIJRKSt21piecewise_construct_tSt5tupleIJOlEESA_IJEEEEEvNS1_11F14ItemIterIPNS1_8F14ChunkISt4pairIKllEEEEESG_ImmEDpOT_.exit: ; preds = %_ZN5folly3f146detail8F14ChunkISt4pairIKllEE6setTagEmm.exit, %bb.n
  %i.cc = load i64, ptr %i.a, align 8, !tbaa !1394 ; 2 uses
  %i.cd = and i64 %i.cc, -256
  %8 = and i64 %i.cc, 255
  %9 = add i64 %i.cd, 256
  %i.ce = or disjoint i64 %9, %8
  store i64 %i.ce, ptr %i.a, align 8, !tbaa !1394
  br label %.loopexit

end_hunk_5
begin_hunk_6_@_ZN5folly3f146detail8F14TableINS1_20ValueContainerPolicyIffvvvEEE19tryEmplaceValueImplIfJRKSt21piecewise_construct_tSt5tupleIJOfEESA_IJEEEEESt4pairINS1_11F14ItemIterIPNS1_8F14ChunkISE_IKffEEEEEbESE_ImmERKT_DpOT0_:bb.a
_ZN5folly3f146detail8F14TableINS1_20ValueContainerPolicyIffvvvEEE13insertAtBlankIJRKSt21piecewise_construct_tSt5tupleIJOfEESA_IJEEEEEvNS1_11F14ItemIterIPNS1_8F14ChunkISt4pairIKffEEEEESG_ImmEDpOT_.exit: ; preds = %_ZN5folly3f146detail8F14ChunkISt4pairIKffEE6setTagEmm.exit, %bb.o
  %i.ce = load i64, ptr %i.a, align 8, !tbaa !1394 ; 2 uses
  %i.cf = and i64 %i.ce, -256
  %8 = and i64 %i.ce, 255
  %9 = add i64 %i.cf, 256
  %i.cg = or disjoint i64 %9, %8
  store i64 %i.cg, ptr %i.a, align 8, !tbaa !1394
  br label %bb.p

end_hunk_6
begin_hunk_7_@_ZN5folly3f146detail8F14TableINS1_20ValueContainerPolicyIddvvvEEE19tryEmplaceValueImplIdJRKSt21piecewise_construct_tSt5tupleIJOdEESA_IJEEEEESt4pairINS1_11F14ItemIterIPNS1_8F14ChunkISE_IKddEEEEEbESE_ImmERKT_DpOT0_:bb.a
_ZN5folly3f146detail8F14TableINS1_20ValueContainerPolicyIddvvvEEE13insertAtBlankIJRKSt21piecewise_construct_tSt5tupleIJOdEESA_IJEEEEEvNS1_11F14ItemIterIPNS1_8F14ChunkISt4pairIKddEEEEESG_ImmEDpOT_.exit: ; preds = %_ZN5folly3f146detail8F14ChunkISt4pairIKddEE6setTagEmm.exit, %bb.n
  %i.cc = load i64, ptr %i.a, align 8, !tbaa !1394 ; 2 uses
  %i.cd = and i64 %i.cc, -256
  %8 = and i64 %i.cc, 255
  %9 = add i64 %i.cd, 256
  %i.ce = or disjoint i64 %9, %8
  store i64 %i.ce, ptr %i.a, align 8, !tbaa !1394
  br label %.loopexit

end_hunk_7
begin_hunk_8_@_ZN5folly3f146detail8F14TableINS1_21VectorContainerPolicyIN8facebook5velox9TimestampES6_vvvSt17integral_constantIbLb1EEEEE19tryEmplaceValueImplIS6_JRKSt21piecewise_construct_tSt5tupleIJOS6_EESF_IJEEEEESt4pairINS1_11F14ItemIterIPNS1_8F14ChunkIjEEEEbESJ_ImmERKT_DpOT0_:bb.a
  tail call void @llvm.memset.p0.i64(ptr noundef nonnull align 8 dereferenceable(16) %i.cm, i8 0, i64 16, i1 false)
  %i.cn = load i64, ptr %i.a, align 8, !tbaa !1394 ; 2 uses
  %i.co = and i64 %i.cn, -256
  %8 = and i64 %i.cn, 255
  %9 = add i64 %i.co, 256
  %i.cp = or disjoint i64 %9, %8
  store i64 %i.cp, ptr %i.a, align 8, !tbaa !1394
  br label %bb.o

end_hunk_8
begin_hunk_9_@_ZN5folly3f146detail8F14TableINS1_21VectorContainerPolicyIN8facebook5velox10StringViewES6_vvvSt17integral_constantIbLb1EEEEE19tryEmplaceValueImplIS6_JRKSt21piecewise_construct_tSt5tupleIJOS6_EESF_IJEEEEESt4pairINS1_11F14ItemIterIPNS1_8F14ChunkIjEEEEbESJ_ImmERKT_DpOT0_:bb.a
  tail call void @llvm.memset.p0.i64(ptr noundef nonnull align 8 dereferenceable(16) %i.ep, i8 0, i64 16, i1 false)
  %i.eq = load i64, ptr %i.a, align 8, !tbaa !1394 ; 2 uses
  %i.er = and i64 %i.eq, -256
  %8 = and i64 %i.eq, 255
  %9 = add i64 %i.er, 256
  %i.es = or disjoint i64 %9, %8
  store i64 %i.es, ptr %i.a, align 8, !tbaa !1394
  br label %bb.r

end_hunk_9
begin_hunk_10_@_ZN5folly3f146detail8F14TableINS1_20ValueContainerPolicyIbvvvvEEE19tryEmplaceValueImplIbJRKbEEESt4pairINS1_11F14ItemIterIPNS1_8F14ChunkIbEEEEbES9_ImmERKT_DpOT0_:bb.a
_ZN5folly3f146detail8F14TableINS1_20ValueContainerPolicyIbvvvvEEE13insertAtBlankIJRKbEEEvNS1_11F14ItemIterIPNS1_8F14ChunkIbEEEESt4pairImmEDpOT_.exit: ; preds = %_ZN5folly3f146detail8F14ChunkIbE6setTagEmm.exit, %bb.o
  %i.by = load i64, ptr %i.a, align 8, !tbaa !1394 ; 2 uses
  %i.bz = and i64 %i.by, -256
  %6 = and i64 %i.by, 255
  %7 = add i64 %i.bz, 256
  %i.ca = or disjoint i64 %7, %6
  store i64 %i.ca, ptr %i.a, align 8, !tbaa !1394
  br label %bb.p

end_hunk_10
begin_hunk_11_@_ZN5folly3f146detail8F14TableINS1_20ValueContainerPolicyIavvvvEEE19tryEmplaceValueImplIaJRKaEEESt4pairINS1_11F14ItemIterIPNS1_8F14ChunkIaEEEEbES9_ImmERKT_DpOT0_:bb.a
_ZN5folly3f146detail8F14TableINS1_20ValueContainerPolicyIavvvvEEE13insertAtBlankIJRKaEEEvNS1_11F14ItemIterIPNS1_8F14ChunkIaEEEESt4pairImmEDpOT_.exit: ; preds = %_ZN5folly3f146detail8F14ChunkIaE6setTagEmm.exit, %bb.o
  %i.by = load i64, ptr %i.a, align 8, !tbaa !1394 ; 2 uses
  %i.bz = and i64 %i.by, -256
  %6 = and i64 %i.by, 255
  %7 = add i64 %i.bz, 256
  %i.ca = or disjoint i64 %7, %6
  store i64 %i.ca, ptr %i.a, align 8, !tbaa !1394
  br label %bb.p

end_hunk_11
begin_hunk_12_@_ZN5folly3f146detail8F14TableINS1_20ValueContainerPolicyIsvvvvEEE19tryEmplaceValueImplIsJRKsEEESt4pairINS1_11F14ItemIterIPNS1_8F14ChunkIsEEEEbES9_ImmERKT_DpOT0_:bb.a
_ZN5folly3f146detail8F14TableINS1_20ValueContainerPolicyIsvvvvEEE13insertAtBlankIJRKsEEEvNS1_11F14ItemIterIPNS1_8F14ChunkIsEEEESt4pairImmEDpOT_.exit: ; preds = %_ZN5folly3f146detail8F14ChunkIsE6setTagEmm.exit, %bb.o
  %i.ca = load i64, ptr %i.a, align 8, !tbaa !1394 ; 2 uses
  %i.cb = and i64 %i.ca, -256
  %6 = and i64 %i.ca, 255
  %7 = add i64 %i.cb, 256
  %i.cc = or disjoint i64 %7, %6
  store i64 %i.cc, ptr %i.a, align 8, !tbaa !1394
  br label %bb.p

end_hunk_12
begin_hunk_13_@_ZN5folly3f146detail8F14TableINS1_20ValueContainerPolicyIivvvvEEE19tryEmplaceValueImplIiJRKiEEESt4pairINS1_11F14ItemIterIPNS1_8F14ChunkIiEEEEbES9_ImmERKT_DpOT0_:bb.a
_ZN5folly3f146detail8F14TableINS1_20ValueContainerPolicyIivvvvEEE13insertAtBlankIJRKiEEEvNS1_11F14ItemIterIPNS1_8F14ChunkIiEEEESt4pairImmEDpOT_.exit: ; preds = %_ZN5folly3f146detail8F14ChunkIiE6setTagEmm.exit, %bb.o
  %i.ca = load i64, ptr %i.a, align 8, !tbaa !1394 ; 2 uses
  %i.cb = and i64 %i.ca, -256
  %6 = and i64 %i.ca, 255
  %7 = add i64 %i.cb, 256
  %i.cc = or disjoint i64 %7, %6
  store i64 %i.cc, ptr %i.a, align 8, !tbaa !1394
  br label %bb.p

end_hunk_13
begin_hunk_14_@_ZN5folly3f146detail8F14TableINS1_20ValueContainerPolicyIlvvvvEEE19tryEmplaceValueImplIlJRKlEEESt4pairINS1_11F14ItemIterIPNS1_8F14ChunkIlEEEEbES9_ImmERKT_DpOT0_:bb.a
_ZN5folly3f146detail8F14TableINS1_20ValueContainerPolicyIlvvvvEEE13insertAtBlankIJRKlEEEvNS1_11F14ItemIterIPNS1_8F14ChunkIlEEEESt4pairImmEDpOT_.exit: ; preds = %_ZN5folly3f146detail8F14ChunkIlE6setTagEmm.exit, %bb.o
  %i.cb = load i64, ptr %i.a, align 8, !tbaa !1394 ; 2 uses
  %i.cc = and i64 %i.cb, -256
  %6 = and i64 %i.cb, 255
  %7 = add i64 %i.cc, 256
  %i.cd = or disjoint i64 %7, %6
  store i64 %i.cd, ptr %i.a, align 8, !tbaa !1394
  br label %bb.p

end_hunk_14
begin_hunk_15_@_ZN5folly3f146detail8F14TableINS1_20ValueContainerPolicyIfvN8facebook5velox4util14floating_point12NaNAwareHashIfLb1EEENS7_14NaNAwareEqualsIfLb1EEEvEEE19tryEmplaceValueImplIfJRKfEEESt4pairINS1_11F14ItemIterIPNS1_8F14ChunkIfEEEEbESH_ImmERKT_DpOT0_:bb.a
_ZN5folly3f146detail8F14TableINS1_20ValueContainerPolicyIfvN8facebook5velox4util14floating_point12NaNAwareHashIfLb1EEENS7_14NaNAwareEqualsIfLb1EEEvEEE13insertAtBlankIJRKfEEEvNS1_11F14ItemIterIPNS1_8F14ChunkIfEEEESt4pairImmEDpOT_.exit: ; preds = %_ZN5folly3f146detail8F14ChunkIfE6setTagEmm.exit, %bb.o
  %i.cc = load i64, ptr %i.a, align 8, !tbaa !1394 ; 2 uses
  %i.cd = and i64 %i.cc, -256
  %6 = and i64 %i.cc, 255
  %7 = add i64 %i.cd, 256
  %i.ce = or disjoint i64 %7, %6
  store i64 %i.ce, ptr %i.a, align 8, !tbaa !1394
  br label %bb.p

end_hunk_15
begin_hunk_16_@_ZN5folly3f146detail8F14TableINS1_20ValueContainerPolicyIdvN8facebook5velox4util14floating_point12NaNAwareHashIdLb1EEENS7_14NaNAwareEqualsIdLb1EEEvEEE19tryEmplaceValueImplIdJRKdEEESt4pairINS1_11F14ItemIterIPNS1_8F14ChunkIdEEEEbESH_ImmERKT_DpOT0_:bb.a
_ZN5folly3f146detail8F14TableINS1_20ValueContainerPolicyIdvN8facebook5velox4util14floating_point12NaNAwareHashIdLb1EEENS7_14NaNAwareEqualsIdLb1EEEvEEE13insertAtBlankIJRKdEEEvNS1_11F14ItemIterIPNS1_8F14ChunkIdEEEESt4pairImmEDpOT_.exit: ; preds = %_ZN5folly3f146detail8F14ChunkIdE6setTagEmm.exit, %bb.o
  %i.cd = load i64, ptr %i.a, align 8, !tbaa !1394 ; 2 uses
  %i.ce = and i64 %i.cd, -256
  %6 = and i64 %i.cd, 255
  %7 = add i64 %i.ce, 256
  %i.cf = or disjoint i64 %7, %6
  store i64 %i.cf, ptr %i.a, align 8, !tbaa !1394
  br label %bb.p

end_hunk_16
begin_hunk_17_@_ZN5folly3f146detail8F14TableINS1_20ValueContainerPolicyIN8facebook5velox9TimestampEvvvvEEE19tryEmplaceValueImplIS6_JRKS6_EEESt4pairINS1_11F14ItemIterIPNS1_8F14ChunkIS6_EEEEbESC_ImmERKT_DpOT0_:bb.a
_ZN5folly3f146detail8F14TableINS1_20ValueContainerPolicyIN8facebook5velox9TimestampEvvvvEEE13insertAtBlankIJRKS6_EEEvNS1_11F14ItemIterIPNS1_8F14ChunkIS6_EEEESt4pairImmEDpOT_.exit: ; preds = %_ZN5folly3f146detail8F14ChunkIN8facebook5velox9TimestampEE6setTagEmm.exit, %bb.n
  %i.cb = load i64, ptr %i.a, align 8, !tbaa !1394 ; 2 uses
  %i.cc = and i64 %i.cb, -256
  %6 = and i64 %i.cb, 255
  %7 = add i64 %i.cc, 256
  %i.cd = or disjoint i64 %7, %6
  store i64 %i.cd, ptr %i.a, align 8, !tbaa !1394
  br label %.loopexit

end_hunk_17
begin_hunk_18_@_ZN5folly3f146detail8F14TableINS1_20ValueContainerPolicyIN8facebook5velox10StringViewEvvvvEEE19tryEmplaceValueImplIS6_JRKS6_EEESt4pairINS1_11F14ItemIterIPNS1_8F14ChunkIS6_EEEEbESC_ImmERKT_DpOT0_:bb.a
_ZN5folly3f146detail8F14TableINS1_20ValueContainerPolicyIN8facebook5velox10StringViewEvvvvEEE13insertAtBlankIJRKS6_EEEvNS1_11F14ItemIterIPNS1_8F14ChunkIS6_EEEESt4pairImmEDpOT_.exit: ; preds = %_ZN5folly3f146detail8F14ChunkIN8facebook5velox10StringViewEE6setTagEmm.exit, %bb.r
  %i.ea = load i64, ptr %i.a, align 8, !tbaa !1394 ; 2 uses
  %i.eb = and i64 %i.ea, -256
  %6 = and i64 %i.ea, 255
  %7 = add i64 %i.eb, 256
  %i.ec = or disjoint i64 %7, %6
  store i64 %i.ec, ptr %i.a, align 8, !tbaa !1394
  br label %_ZNK5folly3f146detail20ValueContainerPolicyIN8facebook5velox10StringViewEvvvvE14keyMatchesItemIS5_EEbRKT_RKS5_.exit.thread

end_hunk_18
begin_hunk_19_@_ZN5folly3f146detail8F14TableINS1_20ValueContainerPolicyIN8facebook5velox10StringViewEvvvvEEE19tryEmplaceValueImplIS6_JS6_EEESt4pairINS1_11F14ItemIterIPNS1_8F14ChunkIS6_EEEEbESA_ImmERKT_DpOT0_:bb.a
_ZN5folly3f146detail8F14TableINS1_20ValueContainerPolicyIN8facebook5velox10StringViewEvvvvEEE13insertAtBlankIJS6_EEEvNS1_11F14ItemIterIPNS1_8F14ChunkIS6_EEEESt4pairImmEDpOT_.exit: ; preds = %_ZN5folly3f146detail8F14ChunkIN8facebook5velox10StringViewEE6setTagEmm.exit, %bb.r
  %i.ea = load i64, ptr %i.a, align 8, !tbaa !1394 ; 2 uses
  %i.eb = and i64 %i.ea, -256
  %6 = and i64 %i.ea, 255
  %7 = add i64 %i.eb, 256
  %i.ec = or disjoint i64 %7, %6
  store i64 %i.ec, ptr %i.a, align 8, !tbaa !1394
  br label %_ZNK5folly3f146detail20ValueContainerPolicyIN8facebook5velox10StringViewEvvvvE14keyMatchesItemIS5_EEbRKT_RKS5_.exit.thread

end_hunk_19
begin_hunk_20_@_ZNK8facebook5velox17SelectivityVector15applyToSelectedIZNS0_4exec7EvalCtx22applyToSelectedNoThrowIZNKS3_21SimpleFunctionAdapterINS0_4core9UDFHolderINS0_9functions31MapKeysOverlapPrimitiveFunctionINS3_10VectorExecEbEESB_bNS0_15ConstantCheckerIJNS0_3MapIbNS0_7GenericINS0_12TypeVariableILm1EEELb0ELb0EEEEENS0_5ArrayIbEEEEEJSJ_SL_EEEE7iterateIJNS3_12VectorReaderISJ_EENSQ_ISL_EEEEEvRNSO_12ApplyContextEDpRT_EUlT_E1_ZNS4_22applyToSelectedNoThrowISZ_EEvRKS1_SY_EUlSY_E_EEvS12_SY_T0_EUlSY_E_EEvSY_:bb.a
  %i.hu = phi i64 [ %i.hr, %bb.an ], [ %i.hs, %_ZN5folly3f146detail8F14ChunkIbE6setTagEmm.exit.i ]
  %i.hv = load i64, ptr %i.aj, align 8, !tbaa !1394, !noalias !17343 ; 2 uses
  %i.hw = and i64 %i.hv, -256
  %6 = and i64 %i.hv, 255
  %7 = add i64 %i.hw, 256
  %i.hx = or disjoint i64 %7, %6                  ; 2 uses
  store i64 %i.hx, ptr %i.aj, align 8, !tbaa !1394, !noalias !17343
  br label %.loopexit

end_hunk_20
begin_hunk_21_@_ZN5folly3f146detail8F14TableINS1_20ValueContainerPolicyIbvvvvEEE19tryEmplaceValueImplIbJbEEESt4pairINS1_11F14ItemIterIPNS1_8F14ChunkIbEEEEbES7_ImmERKT_DpOT0_:bb.a
_ZN5folly3f146detail8F14TableINS1_20ValueContainerPolicyIbvvvvEEE13insertAtBlankIJbEEEvNS1_11F14ItemIterIPNS1_8F14ChunkIbEEEESt4pairImmEDpOT_.exit: ; preds = %_ZN5folly3f146detail8F14ChunkIbE6setTagEmm.exit, %bb.o
  %i.by = load i64, ptr %i.a, align 8, !tbaa !1394 ; 2 uses
  %i.bz = and i64 %i.by, -256
  %6 = and i64 %i.by, 255
  %7 = add i64 %i.bz, 256
  %i.ca = or disjoint i64 %7, %6
  store i64 %i.ca, ptr %i.a, align 8, !tbaa !1394
  br label %bb.p

end_hunk_21
begin_hunk_22_@_ZZN8facebook5velox4bits10forEachBitIZNS0_4exec7EvalCtx22applyToSelectedNoThrowIZNKS3_21SimpleFunctionAdapterINS0_4core9UDFHolderINS0_9functions31MapKeysOverlapPrimitiveFunctionINS3_10VectorExecEbEESB_bNS0_15ConstantCheckerIJNS0_3MapIbNS0_7GenericINS0_12TypeVariableILm1EEELb0ELb0EEEEENS0_5ArrayIbEEEEEJSJ_SL_EEEE7iterateIJNS3_12VectorReaderISJ_EENSQ_ISL_EEEEEvRNSO_12ApplyContextEDpRT_EUlT_E1_ZNS4_22applyToSelectedNoThrowISZ_EEvRKNS0_17SelectivityVectorESY_EUlSY_E_EEvS13_SY_T0_EUlSY_E_EEvPKmiibSY_ENKUlimE_clEim:bb.a
  %i.hb = phi i64 [ %i.gy, %bb.ag ], [ %i.gz, %_ZN5folly3f146detail8F14ChunkIbE6setTagEmm.exit.i ]
  %i.hc = load i64, ptr %i.o, align 8, !tbaa !1394, !noalias !17368 ; 2 uses
  %i.hd = and i64 %i.hc, -256
  %7 = and i64 %i.hc, 255
  %8 = add i64 %i.hd, 256
  %i.he = or disjoint i64 %8, %7                  ; 2 uses
  store i64 %i.he, ptr %i.o, align 8, !tbaa !1394, !noalias !17368
  br label %.loopexit

end_hunk_22
begin_hunk_23_@_ZZN8facebook5velox4bits10forEachBitIZNS0_4exec7EvalCtx22applyToSelectedNoThrowIZNKS3_21SimpleFunctionAdapterINS0_4core9UDFHolderINS0_9functions31MapKeysOverlapPrimitiveFunctionINS3_10VectorExecEbEESB_bNS0_15ConstantCheckerIJNS0_3MapIbNS0_7GenericINS0_12TypeVariableILm1EEELb0ELb0EEEEENS0_5ArrayIbEEEEEJSJ_SL_EEEE7iterateIJNS3_12VectorReaderISJ_EENSQ_ISL_EEEEEvRNSO_12ApplyContextEDpRT_EUlT_E1_ZNS4_22applyToSelectedNoThrowISZ_EEvRKNS0_17SelectivityVectorESY_EUlSY_E_EEvS13_SY_T0_EUlSY_E_EEvPKmiibSY_ENKUliE_clEi:bb.a
  %i.rm = phi i64 [ %i.rj, %bb.ce ], [ %i.rk, %_ZN5folly3f146detail8F14ChunkIbE6setTagEmm.exit.i ]
  %i.rn = load i64, ptr %i.o, align 8, !tbaa !1394, !noalias !17410 ; 2 uses
  %i.ro = and i64 %i.rn, -256
  %11 = and i64 %i.rn, 255
  %12 = add i64 %i.ro, 256
  %i.rp = or disjoint i64 %12, %11                ; 2 uses
  store i64 %i.rp, ptr %i.o, align 8, !tbaa !1394, !noalias !17410
  br label %.loopexit423

end_hunk_23
begin_hunk_24_@_ZNK8facebook5velox17SelectivityVector15applyToSelectedIZNS0_4exec7EvalCtx22applyToSelectedNoThrowIZNKS3_21SimpleFunctionAdapterINS0_4core9UDFHolderINS0_9functions31MapKeysOverlapPrimitiveFunctionINS3_10VectorExecEaEESB_bNS0_15ConstantCheckerIJNS0_3MapIaNS0_7GenericINS0_12TypeVariableILm1EEELb0ELb0EEEEENS0_5ArrayIaEEEEEJSJ_SL_EEEE7iterateIJNS3_12VectorReaderISJ_EENSQ_ISL_EEEEEvRNSO_12ApplyContextEDpRT_EUlT_E1_ZNS4_22applyToSelectedNoThrowISZ_EEvRKS1_SY_EUlSY_E_EEvS12_SY_T0_EUlSY_E_EEvSY_:bb.a
  %i.hp = phi i64 [ %i.hm, %bb.an ], [ %i.hn, %_ZN5folly3f146detail8F14ChunkIaE6setTagEmm.exit.i ]
  %i.hq = load i64, ptr %i.aj, align 8, !tbaa !1394, !noalias !17517 ; 2 uses
  %i.hr = and i64 %i.hq, -256
  %6 = and i64 %i.hq, 255
  %7 = add i64 %i.hr, 256
  %i.hs = or disjoint i64 %7, %6                  ; 2 uses
  store i64 %i.hs, ptr %i.aj, align 8, !tbaa !1394, !noalias !17517
  br label %.loopexit

end_hunk_24
begin_hunk_25_@_ZN5folly3f146detail8F14TableINS1_20ValueContainerPolicyIavvvvEEE19tryEmplaceValueImplIaJaEEESt4pairINS1_11F14ItemIterIPNS1_8F14ChunkIaEEEEbES7_ImmERKT_DpOT0_:bb.a
_ZN5folly3f146detail8F14TableINS1_20ValueContainerPolicyIavvvvEEE13insertAtBlankIJaEEEvNS1_11F14ItemIterIPNS1_8F14ChunkIaEEEESt4pairImmEDpOT_.exit: ; preds = %_ZN5folly3f146detail8F14ChunkIaE6setTagEmm.exit, %bb.o
  %i.by = load i64, ptr %i.a, align 8, !tbaa !1394 ; 2 uses
  %i.bz = and i64 %i.by, -256
  %6 = and i64 %i.by, 255
  %7 = add i64 %i.bz, 256
  %i.ca = or disjoint i64 %7, %6
  store i64 %i.ca, ptr %i.a, align 8, !tbaa !1394
  br label %bb.p

end_hunk_25
begin_hunk_26_@_ZZN8facebook5velox4bits10forEachBitIZNS0_4exec7EvalCtx22applyToSelectedNoThrowIZNKS3_21SimpleFunctionAdapterINS0_4core9UDFHolderINS0_9functions31MapKeysOverlapPrimitiveFunctionINS3_10VectorExecEaEESB_bNS0_15ConstantCheckerIJNS0_3MapIaNS0_7GenericINS0_12TypeVariableILm1EEELb0ELb0EEEEENS0_5ArrayIaEEEEEJSJ_SL_EEEE7iterateIJNS3_12VectorReaderISJ_EENSQ_ISL_EEEEEvRNSO_12ApplyContextEDpRT_EUlT_E1_ZNS4_22applyToSelectedNoThrowISZ_EEvRKNS0_17SelectivityVectorESY_EUlSY_E_EEvS13_SY_T0_EUlSY_E_EEvPKmiibSY_ENKUlimE_clEim:bb.a
  %i.gw = phi i64 [ %i.gt, %bb.ag ], [ %i.gu, %_ZN5folly3f146detail8F14ChunkIaE6setTagEmm.exit.i ]
  %i.gx = load i64, ptr %i.o, align 8, !tbaa !1394, !noalias !17542 ; 2 uses
  %i.gy = and i64 %i.gx, -256
  %7 = and i64 %i.gx, 255
  %8 = add i64 %i.gy, 256
  %i.gz = or disjoint i64 %8, %7                  ; 2 uses
  store i64 %i.gz, ptr %i.o, align 8, !tbaa !1394, !noalias !17542
  br label %.loopexit

end_hunk_26
begin_hunk_27_@_ZZN8facebook5velox4bits10forEachBitIZNS0_4exec7EvalCtx22applyToSelectedNoThrowIZNKS3_21SimpleFunctionAdapterINS0_4core9UDFHolderINS0_9functions31MapKeysOverlapPrimitiveFunctionINS3_10VectorExecEaEESB_bNS0_15ConstantCheckerIJNS0_3MapIaNS0_7GenericINS0_12TypeVariableILm1EEELb0ELb0EEEEENS0_5ArrayIaEEEEEJSJ_SL_EEEE7iterateIJNS3_12VectorReaderISJ_EENSQ_ISL_EEEEEvRNSO_12ApplyContextEDpRT_EUlT_E1_ZNS4_22applyToSelectedNoThrowISZ_EEvRKNS0_17SelectivityVectorESY_EUlSY_E_EEvS13_SY_T0_EUlSY_E_EEvPKmiibSY_ENKUliE_clEi:bb.a
  %i.qx = phi i64 [ %i.qu, %bb.ce ], [ %i.qv, %_ZN5folly3f146detail8F14ChunkIaE6setTagEmm.exit.i ]
  %i.qy = load i64, ptr %i.o, align 8, !tbaa !1394, !noalias !17584 ; 2 uses
  %i.qz = and i64 %i.qy, -256
  %11 = and i64 %i.qy, 255
  %12 = add i64 %i.qz, 256
  %i.ra = or disjoint i64 %12, %11                ; 2 uses
  store i64 %i.ra, ptr %i.o, align 8, !tbaa !1394, !noalias !17584
  br label %.loopexit423

end_hunk_27
begin_hunk_28_@_ZNK8facebook5velox17SelectivityVector15applyToSelectedIZNS0_4exec7EvalCtx22applyToSelectedNoThrowIZNKS3_21SimpleFunctionAdapterINS0_4core9UDFHolderINS0_9functions31MapKeysOverlapPrimitiveFunctionINS3_10VectorExecEsEESB_bNS0_15ConstantCheckerIJNS0_3MapIsNS0_7GenericINS0_12TypeVariableILm1EEELb0ELb0EEEEENS0_5ArrayIsEEEEEJSJ_SL_EEEE7iterateIJNS3_12VectorReaderISJ_EENSQ_ISL_EEEEEvRNSO_12ApplyContextEDpRT_EUlT_E1_ZNS4_22applyToSelectedNoThrowISZ_EEvRKS1_SY_EUlSY_E_EEvS12_SY_T0_EUlSY_E_EEvSY_:bb.a
  %i.hr = phi i64 [ %i.ho, %bb.an ], [ %i.hp, %_ZN5folly3f146detail8F14ChunkIsE6setTagEmm.exit.i ]
  %i.hs = load i64, ptr %i.aj, align 8, !tbaa !1394, !noalias !17691 ; 2 uses
  %i.ht = and i64 %i.hs, -256
  %6 = and i64 %i.hs, 255
  %7 = add i64 %i.ht, 256
  %i.hu = or disjoint i64 %7, %6                  ; 2 uses
  store i64 %i.hu, ptr %i.aj, align 8, !tbaa !1394, !noalias !17691
  br label %.loopexit

end_hunk_28
begin_hunk_29_@_ZN5folly3f146detail8F14TableINS1_20ValueContainerPolicyIsvvvvEEE19tryEmplaceValueImplIsJsEEESt4pairINS1_11F14ItemIterIPNS1_8F14ChunkIsEEEEbES7_ImmERKT_DpOT0_:bb.a
_ZN5folly3f146detail8F14TableINS1_20ValueContainerPolicyIsvvvvEEE13insertAtBlankIJsEEEvNS1_11F14ItemIterIPNS1_8F14ChunkIsEEEESt4pairImmEDpOT_.exit: ; preds = %_ZN5folly3f146detail8F14ChunkIsE6setTagEmm.exit, %bb.o
  %i.ca = load i64, ptr %i.a, align 8, !tbaa !1394 ; 2 uses
  %i.cb = and i64 %i.ca, -256
  %6 = and i64 %i.ca, 255
  %7 = add i64 %i.cb, 256
  %i.cc = or disjoint i64 %7, %6
  store i64 %i.cc, ptr %i.a, align 8, !tbaa !1394
  br label %bb.p

end_hunk_29
begin_hunk_30_@_ZZN8facebook5velox4bits10forEachBitIZNS0_4exec7EvalCtx22applyToSelectedNoThrowIZNKS3_21SimpleFunctionAdapterINS0_4core9UDFHolderINS0_9functions31MapKeysOverlapPrimitiveFunctionINS3_10VectorExecEsEESB_bNS0_15ConstantCheckerIJNS0_3MapIsNS0_7GenericINS0_12TypeVariableILm1EEELb0ELb0EEEEENS0_5ArrayIsEEEEEJSJ_SL_EEEE7iterateIJNS3_12VectorReaderISJ_EENSQ_ISL_EEEEEvRNSO_12ApplyContextEDpRT_EUlT_E1_ZNS4_22applyToSelectedNoThrowISZ_EEvRKNS0_17SelectivityVectorESY_EUlSY_E_EEvS13_SY_T0_EUlSY_E_EEvPKmiibSY_ENKUlimE_clEim:bb.a
  %i.gy = phi i64 [ %i.gv, %bb.ag ], [ %i.gw, %_ZN5folly3f146detail8F14ChunkIsE6setTagEmm.exit.i ]
  %i.gz = load i64, ptr %i.o, align 8, !tbaa !1394, !noalias !17716 ; 2 uses
  %i.ha = and i64 %i.gz, -256
  %7 = and i64 %i.gz, 255
  %8 = add i64 %i.ha, 256
  %i.hb = or disjoint i64 %8, %7                  ; 2 uses
  store i64 %i.hb, ptr %i.o, align 8, !tbaa !1394, !noalias !17716
  br label %.loopexit

end_hunk_30
begin_hunk_31_@_ZZN8facebook5velox4bits10forEachBitIZNS0_4exec7EvalCtx22applyToSelectedNoThrowIZNKS3_21SimpleFunctionAdapterINS0_4core9UDFHolderINS0_9functions31MapKeysOverlapPrimitiveFunctionINS3_10VectorExecEsEESB_bNS0_15ConstantCheckerIJNS0_3MapIsNS0_7GenericINS0_12TypeVariableILm1EEELb0ELb0EEEEENS0_5ArrayIsEEEEEJSJ_SL_EEEE7iterateIJNS3_12VectorReaderISJ_EENSQ_ISL_EEEEEvRNSO_12ApplyContextEDpRT_EUlT_E1_ZNS4_22applyToSelectedNoThrowISZ_EEvRKNS0_17SelectivityVectorESY_EUlSY_E_EEvS13_SY_T0_EUlSY_E_EEvPKmiibSY_ENKUliE_clEi:bb.a
  %i.ra = phi i64 [ %i.qx, %bb.ce ], [ %i.qy, %_ZN5folly3f146detail8F14ChunkIsE6setTagEmm.exit.i ]
  %i.rb = load i64, ptr %i.o, align 8, !tbaa !1394, !noalias !17758 ; 2 uses
  %i.rc = and i64 %i.rb, -256
  %11 = and i64 %i.rb, 255
  %12 = add i64 %i.rc, 256
  %i.rd = or disjoint i64 %12, %11                ; 2 uses
  store i64 %i.rd, ptr %i.o, align 8, !tbaa !1394, !noalias !17758
  br label %.loopexit424

end_hunk_31
begin_hunk_32_@_ZNK8facebook5velox17SelectivityVector15applyToSelectedIZNS0_4exec7EvalCtx22applyToSelectedNoThrowIZNKS3_21SimpleFunctionAdapterINS0_4core9UDFHolderINS0_9functions31MapKeysOverlapPrimitiveFunctionINS3_10VectorExecEiEESB_bNS0_15ConstantCheckerIJNS0_3MapIiNS0_7GenericINS0_12TypeVariableILm1EEELb0ELb0EEEEENS0_5ArrayIiEEEEEJSJ_SL_EEEE7iterateIJNS3_12VectorReaderISJ_EENSQ_ISL_EEEEEvRNSO_12ApplyContextEDpRT_EUlT_E1_ZNS4_22applyToSelectedNoThrowISZ_EEvRKS1_SY_EUlSY_E_EEvS12_SY_T0_EUlSY_E_EEvSY_:bb.a
  %i.hr = phi i64 [ %i.ho, %bb.an ], [ %i.hp, %_ZN5folly3f146detail8F14ChunkIiE6setTagEmm.exit.i ]
  %i.hs = load i64, ptr %i.aj, align 8, !tbaa !1394, !noalias !17865 ; 2 uses
  %i.ht = and i64 %i.hs, -256
  %6 = and i64 %i.hs, 255
  %7 = add i64 %i.ht, 256
  %i.hu = or disjoint i64 %7, %6                  ; 2 uses
  store i64 %i.hu, ptr %i.aj, align 8, !tbaa !1394, !noalias !17865
  br label %.loopexit

end_hunk_32
begin_hunk_33_@_ZN5folly3f146detail8F14TableINS1_20ValueContainerPolicyIivvvvEEE19tryEmplaceValueImplIiJiEEESt4pairINS1_11F14ItemIterIPNS1_8F14ChunkIiEEEEbES7_ImmERKT_DpOT0_:bb.a
_ZN5folly3f146detail8F14TableINS1_20ValueContainerPolicyIivvvvEEE13insertAtBlankIJiEEEvNS1_11F14ItemIterIPNS1_8F14ChunkIiEEEESt4pairImmEDpOT_.exit: ; preds = %_ZN5folly3f146detail8F14ChunkIiE6setTagEmm.exit, %bb.o
  %i.ca = load i64, ptr %i.a, align 8, !tbaa !1394 ; 2 uses
  %i.cb = and i64 %i.ca, -256
  %6 = and i64 %i.ca, 255
  %7 = add i64 %i.cb, 256
  %i.cc = or disjoint i64 %7, %6
  store i64 %i.cc, ptr %i.a, align 8, !tbaa !1394
  br label %bb.p

end_hunk_33
begin_hunk_34_@_ZZN8facebook5velox4bits10forEachBitIZNS0_4exec7EvalCtx22applyToSelectedNoThrowIZNKS3_21SimpleFunctionAdapterINS0_4core9UDFHolderINS0_9functions31MapKeysOverlapPrimitiveFunctionINS3_10VectorExecEiEESB_bNS0_15ConstantCheckerIJNS0_3MapIiNS0_7GenericINS0_12TypeVariableILm1EEELb0ELb0EEEEENS0_5ArrayIiEEEEEJSJ_SL_EEEE7iterateIJNS3_12VectorReaderISJ_EENSQ_ISL_EEEEEvRNSO_12ApplyContextEDpRT_EUlT_E1_ZNS4_22applyToSelectedNoThrowISZ_EEvRKNS0_17SelectivityVectorESY_EUlSY_E_EEvS13_SY_T0_EUlSY_E_EEvPKmiibSY_ENKUlimE_clEim:bb.a
  %i.gy = phi i64 [ %i.gv, %bb.ag ], [ %i.gw, %_ZN5folly3f146detail8F14ChunkIiE6setTagEmm.exit.i ]
  %i.gz = load i64, ptr %i.o, align 8, !tbaa !1394, !noalias !17890 ; 2 uses
  %i.ha = and i64 %i.gz, -256
  %7 = and i64 %i.gz, 255
  %8 = add i64 %i.ha, 256
  %i.hb = or disjoint i64 %8, %7                  ; 2 uses
  store i64 %i.hb, ptr %i.o, align 8, !tbaa !1394, !noalias !17890
  br label %.loopexit

end_hunk_34
begin_hunk_35_@_ZZN8facebook5velox4bits10forEachBitIZNS0_4exec7EvalCtx22applyToSelectedNoThrowIZNKS3_21SimpleFunctionAdapterINS0_4core9UDFHolderINS0_9functions31MapKeysOverlapPrimitiveFunctionINS3_10VectorExecEiEESB_bNS0_15ConstantCheckerIJNS0_3MapIiNS0_7GenericINS0_12TypeVariableILm1EEELb0ELb0EEEEENS0_5ArrayIiEEEEEJSJ_SL_EEEE7iterateIJNS3_12VectorReaderISJ_EENSQ_ISL_EEEEEvRNSO_12ApplyContextEDpRT_EUlT_E1_ZNS4_22applyToSelectedNoThrowISZ_EEvRKNS0_17SelectivityVectorESY_EUlSY_E_EEvS13_SY_T0_EUlSY_E_EEvPKmiibSY_ENKUliE_clEi:bb.a
  %i.qz = phi i64 [ %i.qw, %bb.ce ], [ %i.qx, %_ZN5folly3f146detail8F14ChunkIiE6setTagEmm.exit.i ]
  %i.ra = load i64, ptr %i.o, align 8, !tbaa !1394, !noalias !17932 ; 2 uses
  %i.rb = and i64 %i.ra, -256
  %11 = and i64 %i.ra, 255
  %12 = add i64 %i.rb, 256
  %i.rc = or disjoint i64 %12, %11                ; 2 uses
  store i64 %i.rc, ptr %i.o, align 8, !tbaa !1394, !noalias !17932
  br label %.loopexit424

end_hunk_35
begin_hunk_36_@_ZNK8facebook5velox17SelectivityVector15applyToSelectedIZNS0_4exec7EvalCtx22applyToSelectedNoThrowIZNKS3_21SimpleFunctionAdapterINS0_4core9UDFHolderINS0_9functions31MapKeysOverlapPrimitiveFunctionINS3_10VectorExecElEESB_bNS0_15ConstantCheckerIJNS0_3MapIlNS0_7GenericINS0_12TypeVariableILm1EEELb0ELb0EEEEENS0_5ArrayIlEEEEEJSJ_SL_EEEE7iterateIJNS3_12VectorReaderISJ_EENSQ_ISL_EEEEEvRNSO_12ApplyContextEDpRT_EUlT_E1_ZNS4_22applyToSelectedNoThrowISZ_EEvRKS1_SY_EUlSY_E_EEvS12_SY_T0_EUlSY_E_EEvSY_:bb.a
  %i.hr = phi i64 [ %i.ho, %bb.an ], [ %i.hp, %_ZN5folly3f146detail8F14ChunkIlE6setTagEmm.exit.i ]
  %i.hs = load i64, ptr %i.aj, align 8, !tbaa !1394, !noalias !18039 ; 2 uses
  %i.ht = and i64 %i.hs, -256
  %6 = and i64 %i.hs, 255
  %7 = add i64 %i.ht, 256
  %i.hu = or disjoint i64 %7, %6                  ; 2 uses
  store i64 %i.hu, ptr %i.aj, align 8, !tbaa !1394, !noalias !18039
  br label %.loopexit

end_hunk_36
begin_hunk_37_@_ZN5folly3f146detail8F14TableINS1_20ValueContainerPolicyIlvvvvEEE19tryEmplaceValueImplIlJlEEESt4pairINS1_11F14ItemIterIPNS1_8F14ChunkIlEEEEbES7_ImmERKT_DpOT0_:bb.a
_ZN5folly3f146detail8F14TableINS1_20ValueContainerPolicyIlvvvvEEE13insertAtBlankIJlEEEvNS1_11F14ItemIterIPNS1_8F14ChunkIlEEEESt4pairImmEDpOT_.exit: ; preds = %_ZN5folly3f146detail8F14ChunkIlE6setTagEmm.exit, %bb.o
  %i.cb = load i64, ptr %i.a, align 8, !tbaa !1394 ; 2 uses
  %i.cc = and i64 %i.cb, -256
  %6 = and i64 %i.cb, 255
  %7 = add i64 %i.cc, 256
  %i.cd = or disjoint i64 %7, %6
  store i64 %i.cd, ptr %i.a, align 8, !tbaa !1394
  br label %bb.p

end_hunk_37
begin_hunk_38_@_ZZN8facebook5velox4bits10forEachBitIZNS0_4exec7EvalCtx22applyToSelectedNoThrowIZNKS3_21SimpleFunctionAdapterINS0_4core9UDFHolderINS0_9functions31MapKeysOverlapPrimitiveFunctionINS3_10VectorExecElEESB_bNS0_15ConstantCheckerIJNS0_3MapIlNS0_7GenericINS0_12TypeVariableILm1EEELb0ELb0EEEEENS0_5ArrayIlEEEEEJSJ_SL_EEEE7iterateIJNS3_12VectorReaderISJ_EENSQ_ISL_EEEEEvRNSO_12ApplyContextEDpRT_EUlT_E1_ZNS4_22applyToSelectedNoThrowISZ_EEvRKNS0_17SelectivityVectorESY_EUlSY_E_EEvS13_SY_T0_EUlSY_E_EEvPKmiibSY_ENKUlimE_clEim:bb.a
  %i.gy = phi i64 [ %i.gv, %bb.ag ], [ %i.gw, %_ZN5folly3f146detail8F14ChunkIlE6setTagEmm.exit.i ]
  %i.gz = load i64, ptr %i.o, align 8, !tbaa !1394, !noalias !18064 ; 2 uses
  %i.ha = and i64 %i.gz, -256
  %7 = and i64 %i.gz, 255
  %8 = add i64 %i.ha, 256
  %i.hb = or disjoint i64 %8, %7                  ; 2 uses
  store i64 %i.hb, ptr %i.o, align 8, !tbaa !1394, !noalias !18064
  br label %.loopexit

end_hunk_38
begin_hunk_39_@_ZZN8facebook5velox4bits10forEachBitIZNS0_4exec7EvalCtx22applyToSelectedNoThrowIZNKS3_21SimpleFunctionAdapterINS0_4core9UDFHolderINS0_9functions31MapKeysOverlapPrimitiveFunctionINS3_10VectorExecElEESB_bNS0_15ConstantCheckerIJNS0_3MapIlNS0_7GenericINS0_12TypeVariableILm1EEELb0ELb0EEEEENS0_5ArrayIlEEEEEJSJ_SL_EEEE7iterateIJNS3_12VectorReaderISJ_EENSQ_ISL_EEEEEvRNSO_12ApplyContextEDpRT_EUlT_E1_ZNS4_22applyToSelectedNoThrowISZ_EEvRKNS0_17SelectivityVectorESY_EUlSY_E_EEvS13_SY_T0_EUlSY_E_EEvPKmiibSY_ENKUliE_clEi:bb.a
  %i.qz = phi i64 [ %i.qw, %bb.ce ], [ %i.qx, %_ZN5folly3f146detail8F14ChunkIlE6setTagEmm.exit.i ]
  %i.ra = load i64, ptr %i.o, align 8, !tbaa !1394, !noalias !18106 ; 2 uses
  %i.rb = and i64 %i.ra, -256
  %11 = and i64 %i.ra, 255
  %12 = add i64 %i.rb, 256
  %i.rc = or disjoint i64 %12, %11                ; 2 uses
  store i64 %i.rc, ptr %i.o, align 8, !tbaa !1394, !noalias !18106
  br label %.loopexit422

end_hunk_39
begin_hunk_40_@_ZNK8facebook5velox17SelectivityVector15applyToSelectedIZNS0_4exec7EvalCtx22applyToSelectedNoThrowIZNKS3_21SimpleFunctionAdapterINS0_4core9UDFHolderINS0_9functions31MapKeysOverlapPrimitiveFunctionINS3_10VectorExecEfEESB_bNS0_15ConstantCheckerIJNS0_3MapIfNS0_7GenericINS0_12TypeVariableILm1EEELb0ELb0EEEEENS0_5ArrayIfEEEEEJSJ_SL_EEEE7iterateIJNS3_12VectorReaderISJ_EENSQ_ISL_EEEEEvRNSO_12ApplyContextEDpRT_EUlT_E1_ZNS4_22applyToSelectedNoThrowISZ_EEvRKS1_SY_EUlSY_E_EEvS12_SY_T0_EUlSY_E_EEvSY_:bb.a
_ZN5folly3f146detail8F14TableINS1_20ValueContainerPolicyIfvvvvEEE13insertAtBlankIJfEEEvNS1_11F14ItemIterIPNS1_8F14ChunkIfEEEESt4pairImmEDpOT_.exit.i: ; preds = %bb.ap, %_ZN5folly3f146detail8F14ChunkIfE6setTagEmm.exit.i
  %i.hx = load i64, ptr %i.al, align 8, !tbaa !1394, !noalias !18226 ; 2 uses
  %i.hy = and i64 %i.hx, -256
  %6 = and i64 %i.hx, 255
  %7 = add i64 %i.hy, 256
  %i.hz = or disjoint i64 %7, %6                  ; 2 uses
  store i64 %i.hz, ptr %i.al, align 8, !tbaa !1394, !noalias !18226
  br label %.loopexit

end_hunk_40
begin_hunk_41_@_ZN5folly3f146detail8F14TableINS1_20ValueContainerPolicyIfvvvvEEE19tryEmplaceValueImplIfJfEEESt4pairINS1_11F14ItemIterIPNS1_8F14ChunkIfEEEEbES7_ImmERKT_DpOT0_:bb.a
_ZN5folly3f146detail8F14TableINS1_20ValueContainerPolicyIfvvvvEEE13insertAtBlankIJfEEEvNS1_11F14ItemIterIPNS1_8F14ChunkIfEEEESt4pairImmEDpOT_.exit: ; preds = %_ZN5folly3f146detail8F14ChunkIfE6setTagEmm.exit, %bb.o
  %i.ca = load i64, ptr %i.a, align 8, !tbaa !1394 ; 2 uses
  %i.cb = and i64 %i.ca, -256
  %6 = and i64 %i.ca, 255
  %7 = add i64 %i.cb, 256
  %i.cc = or disjoint i64 %7, %6
  store i64 %i.cc, ptr %i.a, align 8, !tbaa !1394
  br label %bb.p

end_hunk_41
begin_hunk_42_@_ZZN8facebook5velox4bits10forEachBitIZNS0_4exec7EvalCtx22applyToSelectedNoThrowIZNKS3_21SimpleFunctionAdapterINS0_4core9UDFHolderINS0_9functions31MapKeysOverlapPrimitiveFunctionINS3_10VectorExecEfEESB_bNS0_15ConstantCheckerIJNS0_3MapIfNS0_7GenericINS0_12TypeVariableILm1EEELb0ELb0EEEEENS0_5ArrayIfEEEEEJSJ_SL_EEEE7iterateIJNS3_12VectorReaderISJ_EENSQ_ISL_EEEEEvRNSO_12ApplyContextEDpRT_EUlT_E1_ZNS4_22applyToSelectedNoThrowISZ_EEvRKNS0_17SelectivityVectorESY_EUlSY_E_EEvS13_SY_T0_EUlSY_E_EEvPKmiibSY_ENKUlimE_clEim:bb.a
_ZN5folly3f146detail8F14TableINS1_20ValueContainerPolicyIfvvvvEEE13insertAtBlankIJfEEEvNS1_11F14ItemIterIPNS1_8F14ChunkIfEEEESt4pairImmEDpOT_.exit.i: ; preds = %bb.ai, %_ZN5folly3f146detail8F14ChunkIfE6setTagEmm.exit.i
  %i.he = load i64, ptr %i.q, align 8, !tbaa !1394, !noalias !18285 ; 2 uses
  %i.hf = and i64 %i.he, -256
  %7 = and i64 %i.he, 255
  %8 = add i64 %i.hf, 256
  %i.hg = or disjoint i64 %8, %7                  ; 2 uses
  store i64 %i.hg, ptr %i.q, align 8, !tbaa !1394, !noalias !18285
  br label %.loopexit

end_hunk_42
begin_hunk_43_@_ZZN8facebook5velox4bits10forEachBitIZNS0_4exec7EvalCtx22applyToSelectedNoThrowIZNKS3_21SimpleFunctionAdapterINS0_4core9UDFHolderINS0_9functions31MapKeysOverlapPrimitiveFunctionINS3_10VectorExecEfEESB_bNS0_15ConstantCheckerIJNS0_3MapIfNS0_7GenericINS0_12TypeVariableILm1EEELb0ELb0EEEEENS0_5ArrayIfEEEEEJSJ_SL_EEEE7iterateIJNS3_12VectorReaderISJ_EENSQ_ISL_EEEEEvRNSO_12ApplyContextEDpRT_EUlT_E1_ZNS4_22applyToSelectedNoThrowISZ_EEvRKNS0_17SelectivityVectorESY_EUlSY_E_EEvS13_SY_T0_EUlSY_E_EEvPKmiibSY_ENKUliE_clEi:bb.a
_ZN5folly3f146detail8F14TableINS1_20ValueContainerPolicyIfvvvvEEE13insertAtBlankIJfEEEvNS1_11F14ItemIterIPNS1_8F14ChunkIfEEEESt4pairImmEDpOT_.exit.i: ; preds = %bb.ck, %_ZN5folly3f146detail8F14ChunkIfE6setTagEmm.exit.i
  %i.rr = load i64, ptr %i.s, align 8, !tbaa !1394, !noalias !18345 ; 2 uses
  %i.rs = and i64 %i.rr, -256
  %11 = and i64 %i.rr, 255
  %12 = add i64 %i.rs, 256
  %i.rt = or disjoint i64 %12, %11                ; 2 uses
  store i64 %i.rt, ptr %i.s, align 8, !tbaa !1394, !noalias !18345
  br label %.loopexit431

end_hunk_43
begin_hunk_44_@_ZNK8facebook5velox17SelectivityVector15applyToSelectedIZNS0_4exec7EvalCtx22applyToSelectedNoThrowIZNKS3_21SimpleFunctionAdapterINS0_4core9UDFHolderINS0_9functions31MapKeysOverlapPrimitiveFunctionINS3_10VectorExecEdEESB_bNS0_15ConstantCheckerIJNS0_3MapIdNS0_7GenericINS0_12TypeVariableILm1EEELb0ELb0EEEEENS0_5ArrayIdEEEEEJSJ_SL_EEEE7iterateIJNS3_12VectorReaderISJ_EENSQ_ISL_EEEEEvRNSO_12ApplyContextEDpRT_EUlT_E1_ZNS4_22applyToSelectedNoThrowISZ_EEvRKS1_SY_EUlSY_E_EEvS12_SY_T0_EUlSY_E_EEvSY_:bb.a
_ZN5folly3f146detail8F14TableINS1_20ValueContainerPolicyIdvvvvEEE13insertAtBlankIJdEEEvNS1_11F14ItemIterIPNS1_8F14ChunkIdEEEESt4pairImmEDpOT_.exit.i: ; preds = %bb.ap, %_ZN5folly3f146detail8F14ChunkIdE6setTagEmm.exit.i
  %i.hy = load i64, ptr %i.al, align 8, !tbaa !1394, !noalias !18465 ; 2 uses
  %i.hz = and i64 %i.hy, -256
  %6 = and i64 %i.hy, 255
  %7 = add i64 %i.hz, 256
  %i.ia = or disjoint i64 %7, %6                  ; 2 uses
  store i64 %i.ia, ptr %i.al, align 8, !tbaa !1394, !noalias !18465
  br label %.loopexit

end_hunk_44
begin_hunk_45_@_ZN5folly3f146detail8F14TableINS1_20ValueContainerPolicyIdvvvvEEE19tryEmplaceValueImplIdJdEEESt4pairINS1_11F14ItemIterIPNS1_8F14ChunkIdEEEEbES7_ImmERKT_DpOT0_:bb.a
_ZN5folly3f146detail8F14TableINS1_20ValueContainerPolicyIdvvvvEEE13insertAtBlankIJdEEEvNS1_11F14ItemIterIPNS1_8F14ChunkIdEEEESt4pairImmEDpOT_.exit: ; preds = %_ZN5folly3f146detail8F14ChunkIdE6setTagEmm.exit, %bb.o
  %i.cb = load i64, ptr %i.a, align 8, !tbaa !1394 ; 2 uses
  %i.cc = and i64 %i.cb, -256
  %6 = and i64 %i.cb, 255
  %7 = add i64 %i.cc, 256
  %i.cd = or disjoint i64 %7, %6
  store i64 %i.cd, ptr %i.a, align 8, !tbaa !1394
  br label %bb.p

end_hunk_45
begin_hunk_46_@_ZZN8facebook5velox4bits10forEachBitIZNS0_4exec7EvalCtx22applyToSelectedNoThrowIZNKS3_21SimpleFunctionAdapterINS0_4core9UDFHolderINS0_9functions31MapKeysOverlapPrimitiveFunctionINS3_10VectorExecEdEESB_bNS0_15ConstantCheckerIJNS0_3MapIdNS0_7GenericINS0_12TypeVariableILm1EEELb0ELb0EEEEENS0_5ArrayIdEEEEEJSJ_SL_EEEE7iterateIJNS3_12VectorReaderISJ_EENSQ_ISL_EEEEEvRNSO_12ApplyContextEDpRT_EUlT_E1_ZNS4_22applyToSelectedNoThrowISZ_EEvRKNS0_17SelectivityVectorESY_EUlSY_E_EEvS13_SY_T0_EUlSY_E_EEvPKmiibSY_ENKUlimE_clEim:bb.a
_ZN5folly3f146detail8F14TableINS1_20ValueContainerPolicyIdvvvvEEE13insertAtBlankIJdEEEvNS1_11F14ItemIterIPNS1_8F14ChunkIdEEEESt4pairImmEDpOT_.exit.i: ; preds = %bb.ai, %_ZN5folly3f146detail8F14ChunkIdE6setTagEmm.exit.i
  %i.hf = load i64, ptr %i.q, align 8, !tbaa !1394, !noalias !18524 ; 2 uses
  %i.hg = and i64 %i.hf, -256
  %7 = and i64 %i.hf, 255
  %8 = add i64 %i.hg, 256
  %i.hh = or disjoint i64 %8, %7                  ; 2 uses
  store i64 %i.hh, ptr %i.q, align 8, !tbaa !1394, !noalias !18524
  br label %.loopexit

end_hunk_46
begin_hunk_47_@_ZZN8facebook5velox4bits10forEachBitIZNS0_4exec7EvalCtx22applyToSelectedNoThrowIZNKS3_21SimpleFunctionAdapterINS0_4core9UDFHolderINS0_9functions31MapKeysOverlapPrimitiveFunctionINS3_10VectorExecEdEESB_bNS0_15ConstantCheckerIJNS0_3MapIdNS0_7GenericINS0_12TypeVariableILm1EEELb0ELb0EEEEENS0_5ArrayIdEEEEEJSJ_SL_EEEE7iterateIJNS3_12VectorReaderISJ_EENSQ_ISL_EEEEEvRNSO_12ApplyContextEDpRT_EUlT_E1_ZNS4_22applyToSelectedNoThrowISZ_EEvRKNS0_17SelectivityVectorESY_EUlSY_E_EEvS13_SY_T0_EUlSY_E_EEvPKmiibSY_ENKUliE_clEi:bb.a
_ZN5folly3f146detail8F14TableINS1_20ValueContainerPolicyIdvvvvEEE13insertAtBlankIJdEEEvNS1_11F14ItemIterIPNS1_8F14ChunkIdEEEESt4pairImmEDpOT_.exit.i: ; preds = %bb.ck, %_ZN5folly3f146detail8F14ChunkIdE6setTagEmm.exit.i
  %i.ru = load i64, ptr %i.s, align 8, !tbaa !1394, !noalias !18584 ; 2 uses
  %i.rv = and i64 %i.ru, -256
  %11 = and i64 %i.ru, 255
  %12 = add i64 %i.rv, 256
  %i.rw = or disjoint i64 %12, %11                ; 2 uses
  store i64 %i.rw, ptr %i.s, align 8, !tbaa !1394, !noalias !18584
  br label %.loopexit429

end_hunk_47
begin_hunk_48_@_ZNK8facebook5velox17SelectivityVector15applyToSelectedIZNS0_4exec7EvalCtx22applyToSelectedNoThrowIZNKS3_21SimpleFunctionAdapterINS0_4core9UDFHolderINS0_9functions31MapKeysOverlapPrimitiveFunctionINS3_10VectorExecENS0_9TimestampEEESB_bNS0_15ConstantCheckerIJNS0_3MapISC_NS0_7GenericINS0_12TypeVariableILm1EEELb0ELb0EEEEENS0_5ArrayISC_EEEEEJSK_SM_EEEE7iterateIJNS3_12VectorReaderISK_EENSR_ISM_EEEEEvRNSP_12ApplyContextEDpRT_EUlT_E1_ZNS4_22applyToSelectedNoThrowIS10_EEvRKS1_SZ_EUlSZ_E_EEvS13_SZ_T0_EUlSZ_E_EEvSZ_:bb.a
  %i.ic = phi i64 [ %i.hz, %bb.an ], [ %i.ia, %_ZN5folly3f146detail8F14ChunkIN8facebook5velox9TimestampEE6setTagEmm.exit.i ]
  %i.id = load i64, ptr %i.aj, align 8, !tbaa !1394, !noalias !18691 ; 2 uses
  %i.ie = and i64 %i.id, -256
  %6 = and i64 %i.id, 255
  %7 = add i64 %i.ie, 256
  %i.if = or disjoint i64 %7, %6                  ; 2 uses
  store i64 %i.if, ptr %i.aj, align 8, !tbaa !1394, !noalias !18691
  br label %.loopexit

end_hunk_48
begin_hunk_49_@_ZN5folly3f146detail8F14TableINS1_20ValueContainerPolicyIN8facebook5velox9TimestampEvvvvEEE19tryEmplaceValueImplIS6_JS6_EEESt4pairINS1_11F14ItemIterIPNS1_8F14ChunkIS6_EEEEbESA_ImmERKT_DpOT0_:bb.a
_ZN5folly3f146detail8F14TableINS1_20ValueContainerPolicyIN8facebook5velox9TimestampEvvvvEEE13insertAtBlankIJS6_EEEvNS1_11F14ItemIterIPNS1_8F14ChunkIS6_EEEESt4pairImmEDpOT_.exit: ; preds = %_ZN5folly3f146detail8F14ChunkIN8facebook5velox9TimestampEE6setTagEmm.exit, %bb.n
  %i.cb = load i64, ptr %i.a, align 8, !tbaa !1394 ; 2 uses
  %i.cc = and i64 %i.cb, -256
  %6 = and i64 %i.cb, 255
  %7 = add i64 %i.cc, 256
  %i.cd = or disjoint i64 %7, %6
  store i64 %i.cd, ptr %i.a, align 8, !tbaa !1394
  br label %.loopexit

end_hunk_49
begin_hunk_50_@_ZZN8facebook5velox4bits10forEachBitIZNS0_4exec7EvalCtx22applyToSelectedNoThrowIZNKS3_21SimpleFunctionAdapterINS0_4core9UDFHolderINS0_9functions31MapKeysOverlapPrimitiveFunctionINS3_10VectorExecENS0_9TimestampEEESB_bNS0_15ConstantCheckerIJNS0_3MapISC_NS0_7GenericINS0_12TypeVariableILm1EEELb0ELb0EEEEENS0_5ArrayISC_EEEEEJSK_SM_EEEE7iterateIJNS3_12VectorReaderISK_EENSR_ISM_EEEEEvRNSP_12ApplyContextEDpRT_EUlT_E1_ZNS4_22applyToSelectedNoThrowIS10_EEvRKNS0_17SelectivityVectorESZ_EUlSZ_E_EEvS14_SZ_T0_EUlSZ_E_EEvPKmiibSZ_ENKUlimE_clEim:bb.a
  %i.hj = phi i64 [ %i.hg, %bb.ag ], [ %i.hh, %_ZN5folly3f146detail8F14ChunkIN8facebook5velox9TimestampEE6setTagEmm.exit.i ]
  %i.hk = load i64, ptr %i.o, align 8, !tbaa !1394, !noalias !18716 ; 2 uses
  %i.hl = and i64 %i.hk, -256
  %7 = and i64 %i.hk, 255
  %8 = add i64 %i.hl, 256
  %i.hm = or disjoint i64 %8, %7                  ; 2 uses
  store i64 %i.hm, ptr %i.o, align 8, !tbaa !1394, !noalias !18716
  br label %.loopexit

end_hunk_50
begin_hunk_51_@_ZZN8facebook5velox4bits10forEachBitIZNS0_4exec7EvalCtx22applyToSelectedNoThrowIZNKS3_21SimpleFunctionAdapterINS0_4core9UDFHolderINS0_9functions31MapKeysOverlapPrimitiveFunctionINS3_10VectorExecENS0_9TimestampEEESB_bNS0_15ConstantCheckerIJNS0_3MapISC_NS0_7GenericINS0_12TypeVariableILm1EEELb0ELb0EEEEENS0_5ArrayISC_EEEEEJSK_SM_EEEE7iterateIJNS3_12VectorReaderISK_EENSR_ISM_EEEEEvRNSP_12ApplyContextEDpRT_EUlT_E1_ZNS4_22applyToSelectedNoThrowIS10_EEvRKNS0_17SelectivityVectorESZ_EUlSZ_E_EEvS14_SZ_T0_EUlSZ_E_EEvPKmiibSZ_ENKUliE_clEi:bb.a
  %i.si = phi i64 [ %i.sf, %bb.ce ], [ %i.sg, %_ZN5folly3f146detail8F14ChunkIN8facebook5velox9TimestampEE6setTagEmm.exit.i ]
  %i.sj = load i64, ptr %i.n, align 8, !tbaa !1394, !noalias !18758 ; 2 uses
  %i.sk = and i64 %i.sj, -256
  %12 = and i64 %i.sj, 255
  %13 = add i64 %i.sk, 256
  %i.sl = or disjoint i64 %13, %12                ; 2 uses
  store i64 %i.sl, ptr %i.n, align 8, !tbaa !1394, !noalias !18758
  br label %.loopexit442

end_hunk_51
begin_hunk_52_@_ZNK8facebook5velox17SelectivityVector15applyToSelectedIZNS0_4exec7EvalCtx22applyToSelectedNoThrowIZNKS3_21SimpleFunctionAdapterINS0_4core9UDFHolderINS0_9functions31MapKeysOverlapPrimitiveFunctionINS3_10VectorExecENS0_4DateEEESB_bNS0_15ConstantCheckerIJNS0_3MapISC_NS0_7GenericINS0_12TypeVariableILm1EEELb0ELb0EEEEENS0_5ArrayISC_EEEEEJSK_SM_EEEE7iterateIJNS3_12VectorReaderISK_EENSR_ISM_EEEEEvRNSP_12ApplyContextEDpRT_EUlT_E1_ZNS4_22applyToSelectedNoThrowIS10_EEvRKS1_SZ_EUlSZ_E_EEvS13_SZ_T0_EUlSZ_E_EEvSZ_:bb.a
  %i.hr = phi i64 [ %i.ho, %bb.an ], [ %i.hp, %_ZN5folly3f146detail8F14ChunkIiE6setTagEmm.exit.i ]
  %i.hs = load i64, ptr %i.aj, align 8, !tbaa !1394, !noalias !18865 ; 2 uses
  %i.ht = and i64 %i.hs, -256
  %6 = and i64 %i.hs, 255
  %7 = add i64 %i.ht, 256
  %i.hu = or disjoint i64 %7, %6                  ; 2 uses
  store i64 %i.hu, ptr %i.aj, align 8, !tbaa !1394, !noalias !18865
  br label %.loopexit

end_hunk_52
begin_hunk_53_@_ZZN8facebook5velox4bits10forEachBitIZNS0_4exec7EvalCtx22applyToSelectedNoThrowIZNKS3_21SimpleFunctionAdapterINS0_4core9UDFHolderINS0_9functions31MapKeysOverlapPrimitiveFunctionINS3_10VectorExecENS0_4DateEEESB_bNS0_15ConstantCheckerIJNS0_3MapISC_NS0_7GenericINS0_12TypeVariableILm1EEELb0ELb0EEEEENS0_5ArrayISC_EEEEEJSK_SM_EEEE7iterateIJNS3_12VectorReaderISK_EENSR_ISM_EEEEEvRNSP_12ApplyContextEDpRT_EUlT_E1_ZNS4_22applyToSelectedNoThrowIS10_EEvRKNS0_17SelectivityVectorESZ_EUlSZ_E_EEvS14_SZ_T0_EUlSZ_E_EEvPKmiibSZ_ENKUlimE_clEim:bb.a
  %i.gy = phi i64 [ %i.gv, %bb.ag ], [ %i.gw, %_ZN5folly3f146detail8F14ChunkIiE6setTagEmm.exit.i ]
  %i.gz = load i64, ptr %i.o, align 8, !tbaa !1394, !noalias !18889 ; 2 uses
  %i.ha = and i64 %i.gz, -256
  %7 = and i64 %i.gz, 255
  %8 = add i64 %i.ha, 256
  %i.hb = or disjoint i64 %8, %7                  ; 2 uses
  store i64 %i.hb, ptr %i.o, align 8, !tbaa !1394, !noalias !18889
  br label %.loopexit

end_hunk_53
begin_hunk_54_@_ZZN8facebook5velox4bits10forEachBitIZNS0_4exec7EvalCtx22applyToSelectedNoThrowIZNKS3_21SimpleFunctionAdapterINS0_4core9UDFHolderINS0_9functions31MapKeysOverlapPrimitiveFunctionINS3_10VectorExecENS0_4DateEEESB_bNS0_15ConstantCheckerIJNS0_3MapISC_NS0_7GenericINS0_12TypeVariableILm1EEELb0ELb0EEEEENS0_5ArrayISC_EEEEEJSK_SM_EEEE7iterateIJNS3_12VectorReaderISK_EENSR_ISM_EEEEEvRNSP_12ApplyContextEDpRT_EUlT_E1_ZNS4_22applyToSelectedNoThrowIS10_EEvRKNS0_17SelectivityVectorESZ_EUlSZ_E_EEvS14_SZ_T0_EUlSZ_E_EEvPKmiibSZ_ENKUliE_clEi:bb.a
  %i.qz = phi i64 [ %i.qw, %bb.ce ], [ %i.qx, %_ZN5folly3f146detail8F14ChunkIiE6setTagEmm.exit.i ]
  %i.ra = load i64, ptr %i.o, align 8, !tbaa !1394, !noalias !18931 ; 2 uses
  %i.rb = and i64 %i.ra, -256
  %11 = and i64 %i.ra, 255
  %12 = add i64 %i.rb, 256
  %i.rc = or disjoint i64 %12, %11                ; 2 uses
  store i64 %i.rc, ptr %i.o, align 8, !tbaa !1394, !noalias !18931
  br label %.loopexit410

end_hunk_54
begin_hunk_55_@_ZN5folly3f146detail8F14TableINS1_21VectorContainerPolicyIN8facebook5velox4exec11GenericViewEvSt4hashIS7_ENS5_9functions37MapKeysOverlapFunctionEqualComparatorEvSt17integral_constantIbLb1EEEEE19tryEmplaceValueImplIS7_JS7_EEESt4pairINS1_11F14ItemIterIPNS1_8F14ChunkIjEEEEbESH_ImmERKT_DpOT0_:bb.a
  tail call void @llvm.memcpy.p0.p0.i64(ptr noundef nonnull align 8 dereferenceable(32) %i.dy, ptr noundef nonnull align 8 dereferenceable(32) %5, i64 32, i1 false)
  %i.dz = load i64, ptr %i.a, align 8, !tbaa !1394 ; 2 uses
  %i.ea = and i64 %i.dz, -256
  %6 = and i64 %i.dz, 255
  %7 = add i64 %i.ea, 256
  %i.eb = or disjoint i64 %7, %6
  store i64 %i.eb, ptr %i.a, align 8, !tbaa !1394
  br label %bb.u

end_hunk_55
begin_hunk_56_@_ZN5folly3f146detail8F14TableINS1_21VectorContainerPolicyIN8facebook5velox4exec11GenericViewEvSt4hashIS7_ENS5_9functions32MapAppendFunctionEqualComparatorEvSt17integral_constantIbLb1EEEEE19tryEmplaceValueImplIS7_JRKS7_EEESt4pairINS1_11F14ItemIterIPNS1_8F14ChunkIjEEEEbESJ_ImmERKT_DpOT0_:bb.a
  tail call void @llvm.memcpy.p0.p0.i64(ptr noundef nonnull align 8 dereferenceable(32) %i.ea, ptr noundef nonnull align 8 dereferenceable(32) %5, i64 32, i1 false)
  %i.eb = load i64, ptr %i.a, align 8, !tbaa !1394 ; 2 uses
  %i.ec = and i64 %i.eb, -256
  %6 = and i64 %i.eb, 255
  %7 = add i64 %i.ec, 256
  %i.ed = or disjoint i64 %7, %6
  store i64 %i.ed, ptr %i.a, align 8, !tbaa !1394
  br label %bb.v

end_hunk_56
begin_hunk_57_@_ZN5folly3f146detail8F14TableINS1_20ValueContainerPolicyIbmvvvEEE19tryEmplaceValueImplIbJbRmEEESt4pairINS1_11F14ItemIterIPNS1_8F14ChunkIS8_IKbmEEEEEbES8_ImmERKT_DpOT0_:bb.a
_ZN5folly3f146detail8F14TableINS1_20ValueContainerPolicyIbmvvvEEE13insertAtBlankIJbRmEEEvNS1_11F14ItemIterIPNS1_8F14ChunkISt4pairIKbmEEEEESA_ImmEDpOT_.exit: ; preds = %_ZN5folly3f146detail8F14ChunkISt4pairIKbmEE6setTagEmm.exit, %bb.n
  %i.cb = load i64, ptr %i.a, align 8, !tbaa !1394 ; 2 uses
  %i.cc = and i64 %i.cb, -256
  %7 = and i64 %i.cb, 255
  %8 = add i64 %i.cc, 256
  %i.cd = or disjoint i64 %8, %7
  store i64 %i.cd, ptr %i.a, align 8, !tbaa !1394
  br label %.loopexit

end_hunk_57
begin_hunk_58_@_ZN5folly3f146detail8F14TableINS1_20ValueContainerPolicyIamvvvEEE19tryEmplaceValueImplIaJaRmEEESt4pairINS1_11F14ItemIterIPNS1_8F14ChunkIS8_IKamEEEEEbES8_ImmERKT_DpOT0_:bb.a
_ZN5folly3f146detail8F14TableINS1_20ValueContainerPolicyIamvvvEEE13insertAtBlankIJaRmEEEvNS1_11F14ItemIterIPNS1_8F14ChunkISt4pairIKamEEEEESA_ImmEDpOT_.exit: ; preds = %_ZN5folly3f146detail8F14ChunkISt4pairIKamEE6setTagEmm.exit, %bb.n
  %i.cb = load i64, ptr %i.a, align 8, !tbaa !1394 ; 2 uses
  %i.cc = and i64 %i.cb, -256
  %7 = and i64 %i.cb, 255
  %8 = add i64 %i.cc, 256
  %i.cd = or disjoint i64 %8, %7
  store i64 %i.cd, ptr %i.a, align 8, !tbaa !1394
  br label %.loopexit

end_hunk_58
begin_hunk_59_@_ZN5folly3f146detail8F14TableINS1_20ValueContainerPolicyIsmvvvEEE19tryEmplaceValueImplIsJsRmEEESt4pairINS1_11F14ItemIterIPNS1_8F14ChunkIS8_IKsmEEEEEbES8_ImmERKT_DpOT0_:bb.a
_ZN5folly3f146detail8F14TableINS1_20ValueContainerPolicyIsmvvvEEE13insertAtBlankIJsRmEEEvNS1_11F14ItemIterIPNS1_8F14ChunkISt4pairIKsmEEEEESA_ImmEDpOT_.exit: ; preds = %_ZN5folly3f146detail8F14ChunkISt4pairIKsmEE6setTagEmm.exit, %bb.n
  %i.cb = load i64, ptr %i.a, align 8, !tbaa !1394 ; 2 uses
  %i.cc = and i64 %i.cb, -256
  %7 = and i64 %i.cb, 255
  %8 = add i64 %i.cc, 256
  %i.cd = or disjoint i64 %8, %7
  store i64 %i.cd, ptr %i.a, align 8, !tbaa !1394
  br label %.loopexit

end_hunk_59
begin_hunk_60_@_ZN5folly3f146detail8F14TableINS1_20ValueContainerPolicyIimvvvEEE19tryEmplaceValueImplIiJiRmEEESt4pairINS1_11F14ItemIterIPNS1_8F14ChunkIS8_IKimEEEEEbES8_ImmERKT_DpOT0_:bb.a
_ZN5folly3f146detail8F14TableINS1_20ValueContainerPolicyIimvvvEEE13insertAtBlankIJiRmEEEvNS1_11F14ItemIterIPNS1_8F14ChunkISt4pairIKimEEEEESA_ImmEDpOT_.exit: ; preds = %_ZN5folly3f146detail8F14ChunkISt4pairIKimEE6setTagEmm.exit, %bb.n
  %i.cb = load i64, ptr %i.a, align 8, !tbaa !1394 ; 2 uses
  %i.cc = and i64 %i.cb, -256
  %7 = and i64 %i.cb, 255
  %8 = add i64 %i.cc, 256
  %i.cd = or disjoint i64 %8, %7
  store i64 %i.cd, ptr %i.a, align 8, !tbaa !1394
  br label %.loopexit

end_hunk_60
begin_hunk_61_@_ZN5folly3f146detail8F14TableINS1_20ValueContainerPolicyIlmvvvEEE19tryEmplaceValueImplIlJlRmEEESt4pairINS1_11F14ItemIterIPNS1_8F14ChunkIS8_IKlmEEEEEbES8_ImmERKT_DpOT0_:bb.a
_ZN5folly3f146detail8F14TableINS1_20ValueContainerPolicyIlmvvvEEE13insertAtBlankIJlRmEEEvNS1_11F14ItemIterIPNS1_8F14ChunkISt4pairIKlmEEEEESA_ImmEDpOT_.exit: ; preds = %_ZN5folly3f146detail8F14ChunkISt4pairIKlmEE6setTagEmm.exit, %bb.n
  %i.cb = load i64, ptr %i.a, align 8, !tbaa !1394 ; 2 uses
  %i.cc = and i64 %i.cb, -256
  %7 = and i64 %i.cb, 255
  %8 = add i64 %i.cc, 256
  %i.cd = or disjoint i64 %8, %7
  store i64 %i.cd, ptr %i.a, align 8, !tbaa !1394
  br label %.loopexit

end_hunk_61
begin_hunk_62_@_ZN5folly3f146detail8F14TableINS1_20ValueContainerPolicyIfmN8facebook5velox4util14floating_point12NaNAwareHashIfLb1EEENS7_14NaNAwareEqualsIfLb1EEEvEEE19tryEmplaceValueImplIfJfRmEEESt4pairINS1_11F14ItemIterIPNS1_8F14ChunkISG_IKfmEEEEEbESG_ImmERKT_DpOT0_:bb.a
_ZN5folly3f146detail8F14TableINS1_20ValueContainerPolicyIfmN8facebook5velox4util14floating_point12NaNAwareHashIfLb1EEENS7_14NaNAwareEqualsIfLb1EEEvEEE13insertAtBlankIJfRmEEEvNS1_11F14ItemIterIPNS1_8F14ChunkISt4pairIKfmEEEEESI_ImmEDpOT_.exit: ; preds = %_ZN5folly3f146detail8F14ChunkISt4pairIKfmEE6setTagEmm.exit, %bb.n
  %i.cd = load i64, ptr %i.a, align 8, !tbaa !1394 ; 2 uses
  %i.ce = and i64 %i.cd, -256
  %7 = and i64 %i.cd, 255
  %8 = add i64 %i.ce, 256
  %i.cf = or disjoint i64 %8, %7
  store i64 %i.cf, ptr %i.a, align 8, !tbaa !1394
  br label %.loopexit

end_hunk_62
begin_hunk_63_@_ZN5folly3f146detail8F14TableINS1_20ValueContainerPolicyIdmN8facebook5velox4util14floating_point12NaNAwareHashIdLb1EEENS7_14NaNAwareEqualsIdLb1EEEvEEE19tryEmplaceValueImplIdJdRmEEESt4pairINS1_11F14ItemIterIPNS1_8F14ChunkISG_IKdmEEEEEbESG_ImmERKT_DpOT0_:bb.a
_ZN5folly3f146detail8F14TableINS1_20ValueContainerPolicyIdmN8facebook5velox4util14floating_point12NaNAwareHashIdLb1EEENS7_14NaNAwareEqualsIdLb1EEEvEEE13insertAtBlankIJdRmEEEvNS1_11F14ItemIterIPNS1_8F14ChunkISt4pairIKdmEEEEESI_ImmEDpOT_.exit: ; preds = %_ZN5folly3f146detail8F14ChunkISt4pairIKdmEE6setTagEmm.exit, %bb.n
  %i.cd = load i64, ptr %i.a, align 8, !tbaa !1394 ; 2 uses
  %i.ce = and i64 %i.cd, -256
  %7 = and i64 %i.cd, 255
  %8 = add i64 %i.ce, 256
  %i.cf = or disjoint i64 %8, %7
  store i64 %i.cf, ptr %i.a, align 8, !tbaa !1394
  br label %.loopexit

end_hunk_63
begin_hunk_64_@_ZN5folly3f146detail8F14TableINS1_21VectorContainerPolicyIN8facebook5velox9TimestampEmvvvSt17integral_constantIbLb1EEEEE19tryEmplaceValueImplIS6_JS6_RmEEESt4pairINS1_11F14ItemIterIPNS1_8F14ChunkIjEEEEbESD_ImmERKT_DpOT0_:bb.a
  store i64 %i.cl, ptr %i.ck, align 8, !tbaa !25052
  %i.cm = load i64, ptr %i.a, align 8, !tbaa !1394 ; 2 uses
  %i.cn = and i64 %i.cm, -256
  %7 = and i64 %i.cm, 255
  %8 = add i64 %i.cn, 256
  %i.co = or disjoint i64 %8, %7
  store i64 %i.co, ptr %i.a, align 8, !tbaa !1394
  br label %bb.o

end_hunk_64
begin_hunk_65_@_ZN5folly3f146detail8F14TableINS1_21VectorContainerPolicyIN8facebook5velox10StringViewEmvvvSt17integral_constantIbLb1EEEEE19tryEmplaceValueImplIS6_JS6_RmEEESt4pairINS1_11F14ItemIterIPNS1_8F14ChunkIjEEEEbESD_ImmERKT_DpOT0_:bb.a
  store i64 %i.eo, ptr %i.en, align 8, !tbaa !25653
  %i.ep = load i64, ptr %i.a, align 8, !tbaa !1394 ; 2 uses
  %i.eq = and i64 %i.ep, -256
  %7 = and i64 %i.ep, 255
  %8 = add i64 %i.eq, 256
  %i.er = or disjoint i64 %8, %7
  store i64 %i.er, ptr %i.a, align 8, !tbaa !1394
  br label %bb.r

end_hunk_65
begin_hunk_66_@_ZN5folly3f146detail8F14TableINS1_21VectorContainerPolicyIN8facebook5velox4exec11GenericViewEmSt4hashIS7_ENS5_9functions32MapUpdateFunctionEqualComparatorEvSt17integral_constantIbLb1EEEEE19tryEmplaceValueImplIS7_JS7_RmEEESt4pairINS1_11F14ItemIterIPNS1_8F14ChunkIjEEEEbESI_ImmERKT_DpOT0_:bb.a
  store i64 %i.ec, ptr %i.eb, align 8, !tbaa !25990
  %i.ed = load i64, ptr %i.a, align 8, !tbaa !1394 ; 2 uses
  %i.ee = and i64 %i.ed, -256
  %7 = and i64 %i.ed, 255
  %8 = add i64 %i.ee, 256
  %i.ef = or disjoint i64 %8, %7
  store i64 %i.ef, ptr %i.a, align 8, !tbaa !1394
  br label %bb.v

end_hunk_66
begin_hunk_67_@_ZN5folly3f146detail8F14TableINS1_21VectorContainerPolicyIN8facebook5velox4exec11GenericViewEvSt4hashIS7_ENS5_9functions32MapUpdateFunctionEqualComparatorEvSt17integral_constantIbLb1EEEEE19tryEmplaceValueImplIS7_JRKS7_EEESt4pairINS1_11F14ItemIterIPNS1_8F14ChunkIjEEEEbESJ_ImmERKT_DpOT0_:bb.a
  tail call void @llvm.memcpy.p0.p0.i64(ptr noundef nonnull align 8 dereferenceable(32) %i.ea, ptr noundef nonnull align 8 dereferenceable(32) %5, i64 32, i1 false)
  %i.eb = load i64, ptr %i.a, align 8, !tbaa !1394 ; 2 uses
  %i.ec = and i64 %i.eb, -256
  %6 = and i64 %i.eb, 255
  %7 = add i64 %i.ec, 256
  %i.ed = or disjoint i64 %7, %6
  store i64 %i.ed, ptr %i.a, align 8, !tbaa !1394
  br label %bb.v

end_hunk_67
begin_hunk_68_@_ZN5folly3f146detail8F14TableINS1_21VectorContainerPolicyIN8facebook5velox4exec11GenericViewESt6vectorISt8optionalIS7_ESaISA_EEvvvSt17integral_constantIbLb1EEEEE19tryEmplaceValueImplIS7_JKS7_SC_EEESt4pairINS1_11F14ItemIterIPNS1_8F14ChunkIjEEEEbESJ_ImmERKT_DpOT0_:bb.a
  tail call void @llvm.memset.p0.i64(ptr noundef nonnull align 8 dereferenceable(24) %6, i8 0, i64 24, i1 false)
  %i.eg = load i64, ptr %i.a, align 8, !tbaa !1394 ; 2 uses
  %i.eh = and i64 %i.eg, -256
  %7 = and i64 %i.eg, 255
  %8 = add i64 %i.eh, 256
  %i.ei = or disjoint i64 %8, %7
  store i64 %i.ei, ptr %i.a, align 8, !tbaa !1394
  br label %bb.v

end_hunk_68
begin_hunk_69_@_ZN5folly3f146detail8F14TableINS1_21VectorContainerPolicyIN8facebook5velox4exec11GenericViewESt6vectorISt8optionalIS7_ESaISA_EEvvvSt17integral_constantIbLb1EEEEE19tryEmplaceValueImplIS7_JRKSt21piecewise_construct_tSt5tupleIJRKS7_EESL_IJEEEEESt4pairINS1_11F14ItemIterIPNS1_8F14ChunkIjEEEEbESQ_ImmERKT_DpOT0_:bb.a
  tail call void @llvm.memset.p0.i64(ptr noundef nonnull align 8 dereferenceable(24) %i.ed, i8 0, i64 24, i1 false)
  %i.ee = load i64, ptr %i.a, align 8, !tbaa !1394 ; 2 uses
  %i.ef = and i64 %i.ee, -256
  %8 = and i64 %i.ee, 255
  %9 = add i64 %i.ef, 256
  %i.eg = or disjoint i64 %9, %8
  store i64 %i.eg, ptr %i.a, align 8, !tbaa !1394
  br label %bb.v

end_hunk_69
