inline.NumInlined: 17231
inline.NumDeleted: 5947
begin_hunk_0_@_ZN5folly3f146detail8F14TableINS1_21VectorContainerPolicyIN8facebook5velox4core15AggregationNode4StepESt17basic_string_viewIcSt11char_traitsIcEEvvvSt17integral_constantIbLb1EEEEE19tryEmplaceValueImplIS8_JRKS8_RKSC_EEESt4pairINS1_11F14ItemIterIPNS1_8F14ChunkIjEEEEbESM_ImmERKT_DpOT0_:bb.a
  tail call void @llvm.memcpy.p0.p0.i64(ptr noundef nonnull align 8 dereferenceable(16) %i.ci, ptr noundef nonnull align 8 dereferenceable(16) %6, i64 16, i1 false), !tbaa.struct !1963
  %i.cj = load i64, ptr %i.a, align 8, !tbaa !226 ; 2 uses
  %i.ck = and i64 %i.cj, -256
  %7 = add i64 %i.ck, 256
  %8 = and i64 %i.cj, 255
  %i.cl = or disjoint i64 %7, %8
  store i64 %i.cl, ptr %i.a, align 8, !tbaa !226
  br label %bb.o

end_hunk_0
begin_hunk_1_@_ZN5folly3f146detail8F14TableINS1_21VectorContainerPolicyISt17basic_string_viewIcSt11char_traitsIcEEN8facebook5velox4core15AggregationNode4StepEvvvSt17integral_constantIbLb1EEEEE19tryEmplaceValueImplIS7_JRKS7_RKSC_EEESt4pairINS1_11F14ItemIterIPNS1_8F14ChunkIjEEEEbESM_ImmERKT_DpOT0_:bb.a
  store i32 %i.dm, ptr %i.dl, align 8, !tbaa !1967
  %i.dn = load i64, ptr %i.a, align 8, !tbaa !226 ; 2 uses
  %i.do = and i64 %i.dn, -256
  %7 = add i64 %i.do, 256
  %8 = and i64 %i.dn, 255
  %i.dp = or disjoint i64 %7, %8
  store i64 %i.dp, ptr %i.a, align 8, !tbaa !226
  br label %bb.o

end_hunk_1
begin_hunk_2_@_ZN5folly3f146detail8F14TableINS1_21VectorContainerPolicyIN8facebook5velox4core8JoinTypeESt17basic_string_viewIcSt11char_traitsIcEEvvvSt17integral_constantIbLb1EEEEE19tryEmplaceValueImplIS7_JRKS7_RKSB_EEESt4pairINS1_11F14ItemIterIPNS1_8F14ChunkIjEEEEbESL_ImmERKT_DpOT0_:bb.a
  tail call void @llvm.memcpy.p0.p0.i64(ptr noundef nonnull align 8 dereferenceable(16) %i.ci, ptr noundef nonnull align 8 dereferenceable(16) %6, i64 16, i1 false), !tbaa.struct !1963
  %i.cj = load i64, ptr %i.a, align 8, !tbaa !226 ; 2 uses
  %i.ck = and i64 %i.cj, -256
  %7 = add i64 %i.ck, 256
  %8 = and i64 %i.cj, 255
  %i.cl = or disjoint i64 %7, %8
  store i64 %i.cl, ptr %i.a, align 8, !tbaa !226
  br label %bb.o

end_hunk_2
begin_hunk_3_@_ZN5folly3f146detail8F14TableINS1_21VectorContainerPolicyISt17basic_string_viewIcSt11char_traitsIcEEN8facebook5velox4core8JoinTypeEvvvSt17integral_constantIbLb1EEEEE19tryEmplaceValueImplIS7_JRKS7_RKSB_EEESt4pairINS1_11F14ItemIterIPNS1_8F14ChunkIjEEEEbESL_ImmERKT_DpOT0_:bb.a
  store i32 %i.dm, ptr %i.dl, align 8, !tbaa !2474
  %i.dn = load i64, ptr %i.a, align 8, !tbaa !226 ; 2 uses
  %i.do = and i64 %i.dn, -256
  %7 = add i64 %i.do, 256
  %8 = and i64 %i.dn, 255
  %i.dp = or disjoint i64 %7, %8
  store i64 %i.dp, ptr %i.a, align 8, !tbaa !226
  br label %bb.o

end_hunk_3
begin_hunk_4_@_ZN5folly3f146detail8F14TableINS1_21VectorContainerPolicyIN8facebook5velox4core10WindowNode9BoundTypeESt17basic_string_viewIcSt11char_traitsIcEEvvvSt17integral_constantIbLb1EEEEE19tryEmplaceValueImplIS8_JRKS8_RKSC_EEESt4pairINS1_11F14ItemIterIPNS1_8F14ChunkIjEEEEbESM_ImmERKT_DpOT0_:bb.a
  tail call void @llvm.memcpy.p0.p0.i64(ptr noundef nonnull align 8 dereferenceable(16) %i.ci, ptr noundef nonnull align 8 dereferenceable(16) %6, i64 16, i1 false), !tbaa.struct !1963
  %i.cj = load i64, ptr %i.a, align 8, !tbaa !226 ; 2 uses
  %i.ck = and i64 %i.cj, -256
  %7 = add i64 %i.ck, 256
  %8 = and i64 %i.cj, 255
  %i.cl = or disjoint i64 %7, %8
  store i64 %i.cl, ptr %i.a, align 8, !tbaa !226
  br label %bb.o

end_hunk_4
begin_hunk_5_@_ZN5folly3f146detail8F14TableINS1_21VectorContainerPolicyISt17basic_string_viewIcSt11char_traitsIcEEN8facebook5velox4core10WindowNode9BoundTypeEvvvSt17integral_constantIbLb1EEEEE19tryEmplaceValueImplIS7_JRKS7_RKSC_EEESt4pairINS1_11F14ItemIterIPNS1_8F14ChunkIjEEEEbESM_ImmERKT_DpOT0_:bb.a
  store i32 %i.dm, ptr %i.dl, align 8, !tbaa !2577
  %i.dn = load i64, ptr %i.a, align 8, !tbaa !226 ; 2 uses
  %i.do = and i64 %i.dn, -256
  %7 = add i64 %i.do, 256
  %8 = and i64 %i.dn, 255
  %i.dp = or disjoint i64 %7, %8
  store i64 %i.dp, ptr %i.a, align 8, !tbaa !226
  br label %bb.o

end_hunk_5
begin_hunk_6_@_ZN5folly3f146detail8F14TableINS1_21VectorContainerPolicyIN8facebook5velox4core10WindowNode10WindowTypeESt17basic_string_viewIcSt11char_traitsIcEEvvvSt17integral_constantIbLb1EEEEE19tryEmplaceValueImplIS8_JRKS8_RKSC_EEESt4pairINS1_11F14ItemIterIPNS1_8F14ChunkIjEEEEbESM_ImmERKT_DpOT0_:bb.a
  tail call void @llvm.memcpy.p0.p0.i64(ptr noundef nonnull align 8 dereferenceable(16) %i.ci, ptr noundef nonnull align 8 dereferenceable(16) %6, i64 16, i1 false), !tbaa.struct !1963
  %i.cj = load i64, ptr %i.a, align 8, !tbaa !226 ; 2 uses
  %i.ck = and i64 %i.cj, -256
  %7 = add i64 %i.ck, 256
  %8 = and i64 %i.cj, 255
  %i.cl = or disjoint i64 %7, %8
  store i64 %i.cl, ptr %i.a, align 8, !tbaa !226
  br label %bb.o

end_hunk_6
begin_hunk_7_@_ZN5folly3f146detail8F14TableINS1_21VectorContainerPolicyISt17basic_string_viewIcSt11char_traitsIcEEN8facebook5velox4core10WindowNode10WindowTypeEvvvSt17integral_constantIbLb1EEEEE19tryEmplaceValueImplIS7_JRKS7_RKSC_EEESt4pairINS1_11F14ItemIterIPNS1_8F14ChunkIjEEEEbESM_ImmERKT_DpOT0_:bb.a
  store i32 %i.dm, ptr %i.dl, align 8, !tbaa !2654
  %i.dn = load i64, ptr %i.a, align 8, !tbaa !226 ; 2 uses
  %i.do = and i64 %i.dn, -256
  %7 = add i64 %i.do, 256
  %8 = and i64 %i.dn, 255
  %i.dp = or disjoint i64 %7, %8
  store i64 %i.dp, ptr %i.a, align 8, !tbaa !226
  br label %bb.o

end_hunk_7
begin_hunk_8_@_ZN5folly3f146detail8F14TableINS1_21VectorContainerPolicyIN8facebook5velox4core18LocalPartitionNode4TypeESt17basic_string_viewIcSt11char_traitsIcEEvvvSt17integral_constantIbLb1EEEEE19tryEmplaceValueImplIS8_JRKS8_RKSC_EEESt4pairINS1_11F14ItemIterIPNS1_8F14ChunkIjEEEEbESM_ImmERKT_DpOT0_:bb.a
  tail call void @llvm.memcpy.p0.p0.i64(ptr noundef nonnull align 8 dereferenceable(16) %i.ci, ptr noundef nonnull align 8 dereferenceable(16) %6, i64 16, i1 false), !tbaa.struct !1963
  %i.cj = load i64, ptr %i.a, align 8, !tbaa !226 ; 2 uses
  %i.ck = and i64 %i.cj, -256
  %7 = add i64 %i.ck, 256
  %8 = and i64 %i.cj, 255
  %i.cl = or disjoint i64 %7, %8
  store i64 %i.cl, ptr %i.a, align 8, !tbaa !226
  br label %bb.o

end_hunk_8
begin_hunk_9_@_ZN5folly3f146detail8F14TableINS1_21VectorContainerPolicyISt17basic_string_viewIcSt11char_traitsIcEEN8facebook5velox4core18LocalPartitionNode4TypeEvvvSt17integral_constantIbLb1EEEEE19tryEmplaceValueImplIS7_JRKS7_RKSC_EEESt4pairINS1_11F14ItemIterIPNS1_8F14ChunkIjEEEEbESM_ImmERKT_DpOT0_:bb.a
  store i32 %i.dm, ptr %i.dl, align 8, !tbaa !2756
  %i.dn = load i64, ptr %i.a, align 8, !tbaa !226 ; 2 uses
  %i.do = and i64 %i.dn, -256
  %7 = add i64 %i.do, 256
  %8 = and i64 %i.dn, 255
  %i.dp = or disjoint i64 %7, %8
  store i64 %i.dp, ptr %i.a, align 8, !tbaa !226
  br label %bb.o

end_hunk_9
begin_hunk_10_@_ZN5folly3f146detail8F14TableINS1_21VectorContainerPolicyIN8facebook5velox4core21PartitionedOutputNode4KindESt17basic_string_viewIcSt11char_traitsIcEEvvvSt17integral_constantIbLb1EEEEE19tryEmplaceValueImplIS8_JRKS8_RKSC_EEESt4pairINS1_11F14ItemIterIPNS1_8F14ChunkIjEEEEbESM_ImmERKT_DpOT0_:bb.a
  tail call void @llvm.memcpy.p0.p0.i64(ptr noundef nonnull align 8 dereferenceable(16) %i.ci, ptr noundef nonnull align 8 dereferenceable(16) %6, i64 16, i1 false), !tbaa.struct !1963
  %i.cj = load i64, ptr %i.a, align 8, !tbaa !226 ; 2 uses
  %i.ck = and i64 %i.cj, -256
  %7 = add i64 %i.ck, 256
  %8 = and i64 %i.cj, 255
  %i.cl = or disjoint i64 %7, %8
  store i64 %i.cl, ptr %i.a, align 8, !tbaa !226
  br label %bb.o

end_hunk_10
begin_hunk_11_@_ZN5folly3f146detail8F14TableINS1_21VectorContainerPolicyISt17basic_string_viewIcSt11char_traitsIcEEN8facebook5velox4core21PartitionedOutputNode4KindEvvvSt17integral_constantIbLb1EEEEE19tryEmplaceValueImplIS7_JRKS7_RKSC_EEESt4pairINS1_11F14ItemIterIPNS1_8F14ChunkIjEEEEbESM_ImmERKT_DpOT0_:bb.a
  store i32 %i.dm, ptr %i.dl, align 8, !tbaa !2833
  %i.dn = load i64, ptr %i.a, align 8, !tbaa !226 ; 2 uses
  %i.do = and i64 %i.dn, -256
  %7 = add i64 %i.do, 256
  %8 = and i64 %i.dn, 255
  %i.dp = or disjoint i64 %7, %8
  store i64 %i.dp, ptr %i.a, align 8, !tbaa !226
  br label %bb.o

end_hunk_11
begin_hunk_12_@_ZN5folly3f146detail8F14TableINS1_21VectorContainerPolicyINSt7__cxx1112basic_stringIcSt11char_traitsIcESaIcEEEvvvvSt17integral_constantIbLb1EEEEE13insertAtBlankIJRKS9_EEEvNS1_11F14ItemIterIPNS1_8F14ChunkIjEEEESt4pairImmEDpOT_:bb.a
_ZN5folly15catch_exceptionIZNS_3f146detail8F14TableINS2_21VectorContainerPolicyINSt7__cxx1112basic_stringIcSt11char_traitsIcESaIcEEEvvvvSt17integral_constantIbLb1EEEEE13insertAtBlankIJRKSA_EEEvNS2_11F14ItemIterIPNS2_8F14ChunkIjEEEESt4pairImmEDpOT_EUlvE_PFvPSE_SM_SO_EJST_RSM_RSO_EvEET2_OT_OT0_DpOT1_.exit: ; preds = %_ZZN5folly3f146detail8F14TableINS1_21VectorContainerPolicyINSt7__cxx1112basic_stringIcSt11char_traitsIcESaIcEEEvvvvSt17integral_constantIbLb1EEEEE13insertAtBlankIJRKS9_EEEvNS1_11F14ItemIterIPNS1_8F14ChunkIjEEEESt4pairImmEDpOT_ENKUlvE_clEv.exit, %_ZN5folly11invoke_coldIPFvPNS_3f146detail8F14TableINS2_21VectorContainerPolicyINSt7__cxx1112basic_stringIcSt11char_traitsIcESaIcEEEvvvvSt17integral_constantIbLb1EEEEEENS2_11F14ItemIterIPNS2_8F14ChunkIjEEEESt4pairImmEEJSF_RSK_RSM_ESN_TnNSt9enable_ifIXsr3std11is_functionIT1_EE5valueEiE4typeELi0EvEET3_OT_DpOT0_.exit
  %i.aa = load i64, ptr %i.a, align 8, !tbaa !226 ; 2 uses
  %i.ab = and i64 %i.aa, -256
  %6 = add i64 %i.ab, 256
  %7 = and i64 %i.aa, 255
  %i.ac = or disjoint i64 %6, %7
  store i64 %i.ac, ptr %i.a, align 8, !tbaa !226
  ret void
}
end_hunk_12
begin_hunk_13_@_ZN5folly3f146detail8F14TableINS1_20ValueContainerPolicyIPKN8facebook5velox4core10ITypedExprEvNS6_16ITypedExprHasherENS6_18ITypedExprComparerEvEEE19tryEmplaceValueImplIS9_JS9_EEESt4pairINS1_11F14ItemIterIPNS1_8F14ChunkIS9_EEEEbESF_ImmERKT_DpOT0_:bb.a
_ZN5folly3f146detail8F14TableINS1_20ValueContainerPolicyIPKN8facebook5velox4core10ITypedExprEvNS6_16ITypedExprHasherENS6_18ITypedExprComparerEvEEE13insertAtBlankIJS9_EEEvNS1_11F14ItemIterIPNS1_8F14ChunkIS9_EEEESt4pairImmEDpOT_.exit: ; preds = %_ZN5folly3f146detail8F14ChunkIPKN8facebook5velox4core10ITypedExprEE6setTagEmm.exit, %bb.o
  %i.ci = load i64, ptr %i.a, align 8, !tbaa !226 ; 2 uses
  %i.cj = and i64 %i.ci, -256
  %6 = add i64 %i.cj, 256
  %7 = and i64 %i.ci, 255
  %i.ck = or disjoint i64 %6, %7
  store i64 %i.ck, ptr %i.a, align 8, !tbaa !226
  br label %bb.p

end_hunk_13
begin_hunk_14_@_ZN5folly3f146detail8F14TableINS1_19NodeContainerPolicyINSt7__cxx1112basic_stringIcSt11char_traitsIcESaIcEEESt8functionIFSt10shared_ptrIKN8facebook5velox13ISerializableEERKNS_7dynamicEPvEEvvvEEE13insertAtBlankIJRKSt21piecewise_construct_tSt5tupleIJRKS9_EEST_IJEEEEEvNS1_11F14ItemIterIPNS1_8F14ChunkIPSt4pairISU_SM_EEEEES10_ImmEDpOT_:bb.a
  %i.o = getelementptr inbounds nuw i8, ptr %0, i64 8 ; 2 uses
  %i.p = load i64, ptr %i.o, align 8, !tbaa !226  ; 2 uses
  %i.q = and i64 %i.p, -256
  %8 = add i64 %i.q, 256
  %9 = and i64 %i.p, 255
  %i.r = or disjoint i64 %8, %9
  store i64 %i.r, ptr %i.o, align 8, !tbaa !226
  ret void
}
end_hunk_14
