begin_hunk_0
inline.NumInlined: 840
inline.NumDeleted: 378
target datalayout = "e-m:e-p270:32:32-p271:32:32-p272:64:64-i64:64-i128:128-f80:128-n8:16:32:64-S128"
target triple = "x86_64-pc-linux-gnu"
end_hunk_0
begin_hunk_1
%"struct.std::_Vector_base<facebook::velox::date::transition, std::allocator<facebook::velox::date::transition>>::_Vector_impl" = type { %"struct.std::_Vector_base<facebook::velox::date::transition, std::allocator<facebook::velox::date::transition>>::_Vector_impl_data" }
%"struct.std::_Vector_base<facebook::velox::date::transition, std::allocator<facebook::velox::date::transition>>::_Vector_impl_data" = type { ptr, ptr, ptr }
%"struct.facebook::velox::date::expanded_ttinfo" = type <{ %"class.std::chrono::duration", %"class.std::__cxx11::basic_string", i8, [7 x i8] }>

$_ZNSt7__cxx1112basic_stringIcSt11char_traitsIcESaIcEE9_M_mutateEmmPKcm = comdat any

$_ZN8facebook5velox4date16load_transitionsIiEESt6vectorINS1_10transitionESaIS4_EERSii = comdat any

end_hunk_1
begin_hunk_2_@_ZN8facebook5velox4date11load_ttinfoERSii:bb.a
; Function Attrs: mustprogress uwtable
define void @_ZN8facebook5velox4date18load_abbreviationsB5cxx11ERSii(ptr dead_on_unwind noalias writable sret(%"class.std::__cxx11::basic_string") align 8 %0, ptr noundef nonnull align 8 dereferenceable(16) %1, i32 noundef %2) local_unnamed_addr #0 personality ptr @__gxx_personality_v0 {
bb.a:
  %i.a = getelementptr inbounds nuw i8, ptr %0, i64 16 ; 7 uses
  store ptr %i.a, ptr %0, align 8, !tbaa !22
  %i.b = getelementptr inbounds nuw i8, ptr %0, i64 8 ; 2 uses
  store i64 0, ptr %i.b, align 8, !tbaa !24
end_hunk_2
begin_hunk_3_@_ZN8facebook5velox4date18load_abbreviationsB5cxx11ERSii:bb.a
  br i1 %.not.i.i.i, label %bb.b, label %_ZNSt7__cxx1112basic_stringIcSt11char_traitsIcESaIcEE7_S_moveEPcPKcm.exit.i.i.i

bb.b:                                             ; preds = %_ZNKSt7__cxx1112basic_stringIcSt11char_traitsIcESaIcEE8capacityEv.exit.i.i.i
  invoke void @_ZNSt7__cxx1112basic_stringIcSt11char_traitsIcESaIcEE9_M_mutateEmmPKcm(ptr noundef nonnull align 8 dereferenceable(32) %0, i64 noundef 0, i64 noundef 0, ptr noundef null, i64 noundef %i.c)
          to label %_ZNSt7__cxx1112basic_stringIcSt11char_traitsIcESaIcEE7_S_moveEPcPKcm.exit.i.i.i.thread unwind label %bb.d

_ZNSt7__cxx1112basic_stringIcSt11char_traitsIcESaIcEE7_S_moveEPcPKcm.exit.i.i.i.thread: ; preds = %bb.b
  %.pre.i = load ptr, ptr %0, align 8, !tbaa !27
  br label %bb.c

_ZNSt7__cxx1112basic_stringIcSt11char_traitsIcESaIcEE7_S_moveEPcPKcm.exit.i.i.i: ; preds = %_ZNKSt7__cxx1112basic_stringIcSt11char_traitsIcESaIcEE8capacityEv.exit.i.i.i
end_hunk_3
begin_hunk_4_@_ZN8facebook5velox4date18load_abbreviationsB5cxx11ERSii:bb.a
  br i1 %cond.i.i.i, label %.sink.split.i, label %bb.c

bb.c:                                             ; preds = %_ZNSt7__cxx1112basic_stringIcSt11char_traitsIcESaIcEE7_S_moveEPcPKcm.exit.i.i.i.thread, %_ZNSt7__cxx1112basic_stringIcSt11char_traitsIcESaIcEE7_S_moveEPcPKcm.exit.i.i.i
  %i.d = phi ptr [ %.pre.i, %_ZNSt7__cxx1112basic_stringIcSt11char_traitsIcESaIcEE7_S_moveEPcPKcm.exit.i.i.i.thread ], [ %i.a, %_ZNSt7__cxx1112basic_stringIcSt11char_traitsIcESaIcEE7_S_moveEPcPKcm.exit.i.i.i ]
  tail call void @llvm.memset.p0.i64(ptr align 1 %i.d, i8 0, i64 %i.c, i1 false)
  %.pre = load ptr, ptr %0, align 8, !tbaa !27
  br label %.sink.split.i

.sink.split.i:                                    ; preds = %_ZNSt7__cxx1112basic_stringIcSt11char_traitsIcESaIcEE7_S_moveEPcPKcm.exit.i.i.i, %bb.c
  %i.e = phi ptr [ %.pre, %bb.c ], [ %i.a, %_ZNSt7__cxx1112basic_stringIcSt11char_traitsIcESaIcEE7_S_moveEPcPKcm.exit.i.i.i ]
  store i64 %i.c, ptr %i.b, align 8, !tbaa !24
  %i.f = getelementptr inbounds nuw i8, ptr %i.e, i64 %i.c
  store i8 0, ptr %i.f, align 1, !tbaa !13
end_hunk_4
begin_hunk_5_@_ZN8facebook5velox4date20populate_transitionsERSt6vectorINS1_10transitionESaIS3_EERS2_INS1_15expanded_ttinfoESaIS7_EERSi:bb.a
          to label %_ZNSt7__cxx1112basic_stringIcSt11char_traitsIcESaIcEE7_S_moveEPcPKcm.exit.i.i.i.thread.i.i unwind label %bb.e ; 2 uses

_ZNSt7__cxx1112basic_stringIcSt11char_traitsIcESaIcEE7_S_moveEPcPKcm.exit.i.i.i.thread.i.i: ; preds = %_ZNSt7__cxx1112basic_stringIcSt11char_traitsIcESaIcEE9_M_createERmm.exit.i.i
  store ptr %i.bm, ptr %12, align 8, !tbaa !27
  store i64 %spec.select.i, ptr %i.bi, align 8, !tbaa !13
  br label %bb.d

_ZNSt7__cxx1112basic_stringIcSt11char_traitsIcESaIcEE7_S_moveEPcPKcm.exit.i.i.i.i.i: ; preds = %_ZNKSt7__cxx1112basic_stringIcSt11char_traitsIcESaIcEE8capacityEv.exit.i.i.i.i.i
end_hunk_5
begin_hunk_6_@_ZN8facebook5velox4date20populate_transitionsERSt6vectorINS1_10transitionESaIS3_EERS2_INS1_15expanded_ttinfoESaIS7_EERSi:bb.a
          to label %_ZNSt7__cxx1112basic_stringIcSt11char_traitsIcESaIcEE7_S_moveEPcPKcm.exit.i.i.i.thread.i.i194 unwind label %bb.bb ; 2 uses

_ZNSt7__cxx1112basic_stringIcSt11char_traitsIcESaIcEE7_S_moveEPcPKcm.exit.i.i.i.thread.i.i194: ; preds = %_ZNSt7__cxx1112basic_stringIcSt11char_traitsIcESaIcEE9_M_createERmm.exit.i.i192
  store ptr %i.mq, ptr %6, align 8, !tbaa !27
  store i64 %spec.select.i193, ptr %i.mm, align 8, !tbaa !13
  br label %bb.ba

_ZNSt7__cxx1112basic_stringIcSt11char_traitsIcESaIcEE7_S_moveEPcPKcm.exit.i.i.i.i.i62: ; preds = %_ZNKSt7__cxx1112basic_stringIcSt11char_traitsIcESaIcEE8capacityEv.exit.i.i.i.i.i60
end_hunk_6
begin_hunk_7_@llvm.memmove.p0.p0.i64

; Function Attrs: nobuiltin nounwind
declare void @_ZdlPvm(ptr noundef, i64 noundef) local_unnamed_addr #7

; Function Attrs: mustprogress uwtable
define linkonce_odr void @_ZNSt7__cxx1112basic_stringIcSt11char_traitsIcESaIcEE9_M_mutateEmmPKcm(ptr noundef nonnull align 8 dereferenceable(32) %0, i64 noundef %1, i64 noundef %2, ptr noundef %3, i64 noundef %4) local_unnamed_addr #0 comdat align 2 personality ptr @__gxx_personality_v0 {
  %6 = getelementptr inbounds nuw i8, ptr %0, i64 8
  %7 = load i64, ptr %6, align 8, !tbaa !24       ; 5 uses
  %8 = add i64 %2, %1                             ; 2 uses
  %9 = sub i64 %7, %8                             ; 2 uses
  %10 = sub i64 %4, %2
  %11 = add i64 %10, %7                           ; 5 uses
  %12 = load ptr, ptr %0, align 8, !tbaa !27      ; 5 uses
  %13 = getelementptr inbounds nuw i8, ptr %0, i64 16 ; 3 uses
  %14 = icmp eq ptr %12, %13                      ; 3 uses
  br i1 %14, label %15, label %_ZNKSt7__cxx1112basic_stringIcSt11char_traitsIcESaIcEE8capacityEv.exit

15:                                               ; preds = %5
  %16 = icmp ult i64 %7, 16
  tail call void @llvm.assume(i1 %16)
  br label %_ZNKSt7__cxx1112basic_stringIcSt11char_traitsIcESaIcEE8capacityEv.exit

_ZNKSt7__cxx1112basic_stringIcSt11char_traitsIcESaIcEE8capacityEv.exit: ; preds = %5, %15
  %17 = load i64, ptr %13, align 8                ; 2 uses
  %18 = select i1 %14, i64 15, i64 %17            ; 2 uses
  %19 = icmp slt i64 %11, 0
  br i1 %19, label %20, label %21

20:                                               ; preds = %_ZNKSt7__cxx1112basic_stringIcSt11char_traitsIcESaIcEE8capacityEv.exit
  tail call void @_ZSt20__throw_length_errorPKc(ptr noundef nonnull @.str.3) #15
  unreachable

21:                                               ; preds = %_ZNKSt7__cxx1112basic_stringIcSt11char_traitsIcESaIcEE8capacityEv.exit
  %22 = icmp ugt i64 %11, %18
  br i1 %22, label %23, label %27

23:                                               ; preds = %21
  %24 = shl nuw i64 %18, 1                        ; 2 uses
  %25 = icmp ult i64 %11, %24
  br i1 %25, label %26, label %27

26:                                               ; preds = %23
  %spec.store.select.i = tail call i64 @llvm.umin.i64(i64 %24, i64 9223372036854775807)
  br label %27

27:                                               ; preds = %26, %23, %21
  %.0 = phi i64 [ %spec.store.select.i, %26 ], [ %11, %23 ], [ %11, %21 ] ; 2 uses
  %28 = add nuw i64 %.0, 1                        ; 2 uses
  %29 = icmp slt i64 %28, 0
  br i1 %29, label %30, label %_ZNSt7__cxx1112basic_stringIcSt11char_traitsIcESaIcEE9_M_createERmm.exit, !prof !62

30:                                               ; preds = %27
  tail call void @_ZSt17__throw_bad_allocv() #15
  unreachable

_ZNSt7__cxx1112basic_stringIcSt11char_traitsIcESaIcEE9_M_createERmm.exit: ; preds = %27
  %31 = tail call noalias noundef nonnull ptr @_Znwm(i64 noundef %28) #13 ; 5 uses
  switch i64 %1, label %34 [
    i64 0, label %_ZNSt7__cxx1112basic_stringIcSt11char_traitsIcESaIcEE7_S_copyEPcPKcm.exit
    i64 1, label %32
  ]

32:                                               ; preds = %_ZNSt7__cxx1112basic_stringIcSt11char_traitsIcESaIcEE9_M_createERmm.exit
  %33 = load i8, ptr %12, align 1, !tbaa !13
  store i8 %33, ptr %31, align 1, !tbaa !13
  br label %_ZNSt7__cxx1112basic_stringIcSt11char_traitsIcESaIcEE7_S_copyEPcPKcm.exit

34:                                               ; preds = %_ZNSt7__cxx1112basic_stringIcSt11char_traitsIcESaIcEE9_M_createERmm.exit
  tail call void @llvm.memcpy.p0.p0.i64(ptr nonnull align 1 %31, ptr align 1 %12, i64 %1, i1 false)
  br label %_ZNSt7__cxx1112basic_stringIcSt11char_traitsIcESaIcEE7_S_copyEPcPKcm.exit

_ZNSt7__cxx1112basic_stringIcSt11char_traitsIcESaIcEE7_S_copyEPcPKcm.exit: ; preds = %_ZNSt7__cxx1112basic_stringIcSt11char_traitsIcESaIcEE9_M_createERmm.exit, %34, %32
  %35 = icmp ne ptr %3, null
  %36 = icmp ne i64 %4, 0
  %or.cond = and i1 %35, %36
  br i1 %or.cond, label %37, label %_ZNSt7__cxx1112basic_stringIcSt11char_traitsIcESaIcEE7_S_copyEPcPKcm.exit26

37:                                               ; preds = %_ZNSt7__cxx1112basic_stringIcSt11char_traitsIcESaIcEE7_S_copyEPcPKcm.exit
  %38 = getelementptr inbounds nuw i8, ptr %31, i64 %1 ; 2 uses
  %cond = icmp eq i64 %4, 1
  br i1 %cond, label %39, label %41

39:                                               ; preds = %37
  %40 = load i8, ptr %3, align 1, !tbaa !13
  store i8 %40, ptr %38, align 1, !tbaa !13
  br label %_ZNSt7__cxx1112basic_stringIcSt11char_traitsIcESaIcEE7_S_copyEPcPKcm.exit26

41:                                               ; preds = %37
  tail call void @llvm.memcpy.p0.p0.i64(ptr nonnull align 1 %38, ptr nonnull align 1 %3, i64 %4, i1 false)
  br label %_ZNSt7__cxx1112basic_stringIcSt11char_traitsIcESaIcEE7_S_copyEPcPKcm.exit26

_ZNSt7__cxx1112basic_stringIcSt11char_traitsIcESaIcEE7_S_copyEPcPKcm.exit26: ; preds = %41, %39, %_ZNSt7__cxx1112basic_stringIcSt11char_traitsIcESaIcEE7_S_copyEPcPKcm.exit
  %.not25 = icmp eq i64 %7, %8
  br i1 %.not25, label %_ZNSt7__cxx1112basic_stringIcSt11char_traitsIcESaIcEE7_S_copyEPcPKcm.exit27, label %42

42:                                               ; preds = %_ZNSt7__cxx1112basic_stringIcSt11char_traitsIcESaIcEE7_S_copyEPcPKcm.exit26
  %43 = getelementptr inbounds nuw i8, ptr %31, i64 %1
  %44 = getelementptr inbounds nuw i8, ptr %43, i64 %4 ; 2 uses
  %45 = getelementptr inbounds nuw i8, ptr %12, i64 %1
  %46 = getelementptr inbounds nuw i8, ptr %45, i64 %2 ; 2 uses
  %cond29 = icmp eq i64 %9, 1
  br i1 %cond29, label %47, label %49

47:                                               ; preds = %42
  %48 = load i8, ptr %46, align 1, !tbaa !13
  store i8 %48, ptr %44, align 1, !tbaa !13
  br label %_ZNSt7__cxx1112basic_stringIcSt11char_traitsIcESaIcEE7_S_copyEPcPKcm.exit27

49:                                               ; preds = %42
  tail call void @llvm.memcpy.p0.p0.i64(ptr nonnull align 1 %44, ptr align 1 %46, i64 %9, i1 false)
  br label %_ZNSt7__cxx1112basic_stringIcSt11char_traitsIcESaIcEE7_S_copyEPcPKcm.exit27

_ZNSt7__cxx1112basic_stringIcSt11char_traitsIcESaIcEE7_S_copyEPcPKcm.exit27: ; preds = %49, %47, %_ZNSt7__cxx1112basic_stringIcSt11char_traitsIcESaIcEE7_S_copyEPcPKcm.exit26
  br i1 %14, label %_ZNKSt7__cxx1112basic_stringIcSt11char_traitsIcESaIcEE11_M_is_localEv.exit.thread.i, label %_ZNKSt7__cxx1112basic_stringIcSt11char_traitsIcESaIcEE11_M_is_localEv.exit.i

_ZNKSt7__cxx1112basic_stringIcSt11char_traitsIcESaIcEE11_M_is_localEv.exit.thread.i: ; preds = %_ZNSt7__cxx1112basic_stringIcSt11char_traitsIcESaIcEE7_S_copyEPcPKcm.exit27
  %50 = icmp ult i64 %7, 16
  tail call void @llvm.assume(i1 %50)
  br label %_ZNSt7__cxx1112basic_stringIcSt11char_traitsIcESaIcEE10_M_disposeEv.exit

_ZNKSt7__cxx1112basic_stringIcSt11char_traitsIcESaIcEE11_M_is_localEv.exit.i: ; preds = %_ZNSt7__cxx1112basic_stringIcSt11char_traitsIcESaIcEE7_S_copyEPcPKcm.exit27
  %51 = add i64 %17, 1
  tail call void @_ZdlPvm(ptr noundef %12, i64 noundef %51) #16
  br label %_ZNSt7__cxx1112basic_stringIcSt11char_traitsIcESaIcEE10_M_disposeEv.exit

_ZNSt7__cxx1112basic_stringIcSt11char_traitsIcESaIcEE10_M_disposeEv.exit: ; preds = %_ZNKSt7__cxx1112basic_stringIcSt11char_traitsIcESaIcEE11_M_is_localEv.exit.thread.i, %_ZNKSt7__cxx1112basic_stringIcSt11char_traitsIcESaIcEE11_M_is_localEv.exit.i
  store ptr %31, ptr %0, align 8, !tbaa !27
  store i64 %.0, ptr %13, align 8, !tbaa !13
  ret void
}

declare void @_ZNSt9basic_iosIcSt11char_traitsIcEE5clearESt12_Ios_Iostate(ptr noundef nonnull align 8 dereferenceable(264), i32 noundef) local_unnamed_addr #2

end_hunk_7
