begin_hunk_0
inline.NumInlined: 73
inline.NumDeleted: 42
target datalayout = "e-m:e-p270:32:32-p271:32:32-p272:64:64-i64:64-i128:128-f80:128-n8:16:32:64-S128"
target triple = "x86_64-pc-linux-gnu"
end_hunk_0
begin_hunk_1
%"struct.std::__cxx11::basic_string<char>::_Alloc_hider" = type { ptr }
%union.anon = type { i64, [8 x i8] }

$_ZNSt7__cxx1112basic_stringIcSt11char_traitsIcESaIcEE9_M_mutateEmmPKcm = comdat any

@.str = private unnamed_addr constant [29 x i8] c"basic_string::_M_replace_aux\00", align 1
@.str.1 = private unnamed_addr constant [24 x i8] c"basic_string::_M_create\00", align 1

; Function Attrs: mustprogress nounwind uwtable
define hidden void @_ZN2v88internal8compiler8ToStringB5cxx11ERKNS1_21BytecodeLivenessStateE(ptr dead_on_unwind noalias writable sret(%"class.std::__cxx11::basic_string") align 8 %0, ptr noundef nonnull readonly align 8 captures(none) dereferenceable(40) %1) local_unnamed_addr #0 {
bb.a:
  %i.a = getelementptr inbounds nuw i8, ptr %0, i64 16 ; 4 uses
  store ptr %i.a, ptr %0, align 8
  %i.b = getelementptr inbounds nuw i8, ptr %0, i64 8 ; 2 uses
  store i64 0, ptr %i.b, align 8
  store i8 0, ptr %i.a, align 8
  %i.c = getelementptr inbounds nuw i8, ptr %1, i64 8 ; 3 uses
  %i.d = load i32, ptr %i.c, align 8              ; 5 uses
  %i.e = sext i32 %i.d to i64                     ; 4 uses
  %.not = icmp eq i32 %i.d, 0
  br i1 %.not, label %._crit_edge, label %bb.b

end_hunk_1
begin_hunk_2_@_ZN2v88internal8compiler8ToStringB5cxx11ERKNS1_21BytecodeLivenessStateE:bb.a
  br i1 %i.f, label %bb.c, label %_ZNKSt7__cxx1112basic_stringIcSt11char_traitsIcESaIcEE8capacityEv.exit.i.i.i.i

bb.c:                                             ; preds = %bb.b
  tail call void @_ZSt20__throw_length_errorPKc(ptr noundef nonnull @.str) #8
  unreachable

_ZNKSt7__cxx1112basic_stringIcSt11char_traitsIcESaIcEE8capacityEv.exit.i.i.i.i: ; preds = %bb.b
end_hunk_2
begin_hunk_3_@_ZN2v88internal8compiler8ToStringB5cxx11ERKNS1_21BytecodeLivenessStateE:bb.a
  br i1 %.not.i.i.i.i, label %_ZNSt7__cxx1112basic_stringIcSt11char_traitsIcESaIcEE7_S_moveEPcPKcm.exit.i.i.i.i.thread, label %_ZNSt7__cxx1112basic_stringIcSt11char_traitsIcESaIcEE7_S_moveEPcPKcm.exit.i.i.i.i

_ZNSt7__cxx1112basic_stringIcSt11char_traitsIcESaIcEE7_S_moveEPcPKcm.exit.i.i.i.i.thread: ; preds = %_ZNKSt7__cxx1112basic_stringIcSt11char_traitsIcESaIcEE8capacityEv.exit.i.i.i.i
  tail call void @_ZNSt7__cxx1112basic_stringIcSt11char_traitsIcESaIcEE9_M_mutateEmmPKcm(ptr noundef nonnull align 8 dereferenceable(32) %0, i64 noundef 0, i64 noundef 0, ptr noundef null, i64 noundef %i.e)
  %.pre.i.i = load ptr, ptr %0, align 8
  br label %bb.d

_ZNSt7__cxx1112basic_stringIcSt11char_traitsIcESaIcEE7_S_moveEPcPKcm.exit.i.i.i.i: ; preds = %_ZNKSt7__cxx1112basic_stringIcSt11char_traitsIcESaIcEE8capacityEv.exit.i.i.i.i
end_hunk_3
begin_hunk_4_@_ZN2v88internal8compiler8ToStringB5cxx11ERKNS1_21BytecodeLivenessStateE:bb.a
  br i1 %cond.i.i.i.i, label %_ZNSt7__cxx1112basic_stringIcSt11char_traitsIcESaIcEE6resizeEm.exit, label %bb.d

bb.d:                                             ; preds = %_ZNSt7__cxx1112basic_stringIcSt11char_traitsIcESaIcEE7_S_moveEPcPKcm.exit.i.i.i.i.thread, %_ZNSt7__cxx1112basic_stringIcSt11char_traitsIcESaIcEE7_S_moveEPcPKcm.exit.i.i.i.i
  %i.g = phi ptr [ %.pre.i.i, %_ZNSt7__cxx1112basic_stringIcSt11char_traitsIcESaIcEE7_S_moveEPcPKcm.exit.i.i.i.i.thread ], [ %i.a, %_ZNSt7__cxx1112basic_stringIcSt11char_traitsIcESaIcEE7_S_moveEPcPKcm.exit.i.i.i.i ]
  tail call void @llvm.memset.p0.i64(ptr align 1 %i.g, i8 0, i64 %i.e, i1 false)
  %.pre = load ptr, ptr %0, align 8
  br label %_ZNSt7__cxx1112basic_stringIcSt11char_traitsIcESaIcEE6resizeEm.exit

_ZNSt7__cxx1112basic_stringIcSt11char_traitsIcESaIcEE6resizeEm.exit: ; preds = %_ZNSt7__cxx1112basic_stringIcSt11char_traitsIcESaIcEE7_S_moveEPcPKcm.exit.i.i.i.i, %bb.d
  %i.h = phi ptr [ %.pre, %bb.d ], [ %i.a, %_ZNSt7__cxx1112basic_stringIcSt11char_traitsIcESaIcEE7_S_moveEPcPKcm.exit.i.i.i.i ]
  store i64 %i.e, ptr %i.b, align 8
  %i.i = getelementptr inbounds nuw i8, ptr %i.h, i64 %i.e
  store i8 0, ptr %i.i, align 1
end_hunk_4
begin_hunk_5_@_ZN2v88internal8compiler8ToStringB5cxx11ERKNS1_21BytecodeLivenessStateE:bb.a
  br i1 %i.ag, label %bb.e, label %._crit_edge, !llvm.loop !5
}

; Function Attrs: mustprogress nounwind uwtable
define linkonce_odr hidden void @_ZNSt7__cxx1112basic_stringIcSt11char_traitsIcESaIcEE9_M_mutateEmmPKcm(ptr noundef nonnull align 8 dereferenceable(32) %0, i64 noundef %1, i64 noundef %2, ptr noundef %3, i64 noundef %4) local_unnamed_addr #0 comdat align 2 {
  %6 = getelementptr inbounds nuw i8, ptr %0, i64 8
  %7 = load i64, ptr %6, align 8                  ; 5 uses
  %8 = add i64 %2, %1                             ; 2 uses
  %9 = sub i64 %7, %8                             ; 2 uses
  %10 = sub i64 %4, %2
  %11 = add i64 %10, %7                           ; 5 uses
  %12 = load ptr, ptr %0, align 8                 ; 5 uses
  %13 = getelementptr inbounds nuw i8, ptr %0, i64 16 ; 3 uses
  %14 = icmp eq ptr %12, %13                      ; 3 uses
  br i1 %14, label %15, label %_ZNKSt7__cxx1112basic_stringIcSt11char_traitsIcESaIcEE8capacityEv.exit

15:                                               ; preds = %5
  %16 = icmp ult i64 %7, 16
  tail call void @llvm.assume(i1 %16)
  br label %_ZNKSt7__cxx1112basic_stringIcSt11char_traitsIcESaIcEE8capacityEv.exit

_ZNKSt7__cxx1112basic_stringIcSt11char_traitsIcESaIcEE8capacityEv.exit: ; preds = %5, %15
  %17 = load i64, ptr %13, align 8                ; 2 uses
  %18 = select i1 %14, i64 15, i64 %17            ; 2 uses
  %19 = icmp slt i64 %11, 0
  br i1 %19, label %20, label %21

20:                                               ; preds = %_ZNKSt7__cxx1112basic_stringIcSt11char_traitsIcESaIcEE8capacityEv.exit
  tail call void @_ZSt20__throw_length_errorPKc(ptr noundef nonnull @.str.1) #8
  unreachable

21:                                               ; preds = %_ZNKSt7__cxx1112basic_stringIcSt11char_traitsIcESaIcEE8capacityEv.exit
  %22 = icmp ugt i64 %11, %18
  br i1 %22, label %23, label %27

23:                                               ; preds = %21
  %24 = shl nuw i64 %18, 1                        ; 2 uses
  %25 = icmp ult i64 %11, %24
  br i1 %25, label %26, label %27

26:                                               ; preds = %23
  %spec.store.select.i = tail call i64 @llvm.umin.i64(i64 %24, i64 9223372036854775807)
  br label %27

27:                                               ; preds = %26, %23, %21
  %.0 = phi i64 [ %spec.store.select.i, %26 ], [ %11, %23 ], [ %11, %21 ] ; 2 uses
  %28 = add nuw i64 %.0, 1                        ; 2 uses
  %29 = icmp slt i64 %28, 0
  br i1 %29, label %30, label %_ZNSt7__cxx1112basic_stringIcSt11char_traitsIcESaIcEE9_M_createERmm.exit, !prof !7

30:                                               ; preds = %27
  tail call void @_ZSt17__throw_bad_allocv() #8
  unreachable

_ZNSt7__cxx1112basic_stringIcSt11char_traitsIcESaIcEE9_M_createERmm.exit: ; preds = %27
  %31 = tail call noalias noundef nonnull ptr @_Znwm(i64 noundef %28) #9 ; 5 uses
  switch i64 %1, label %34 [
    i64 0, label %_ZNSt7__cxx1112basic_stringIcSt11char_traitsIcESaIcEE7_S_copyEPcPKcm.exit
    i64 1, label %32
  ]

32:                                               ; preds = %_ZNSt7__cxx1112basic_stringIcSt11char_traitsIcESaIcEE9_M_createERmm.exit
  %33 = load i8, ptr %12, align 1
  store i8 %33, ptr %31, align 1
  br label %_ZNSt7__cxx1112basic_stringIcSt11char_traitsIcESaIcEE7_S_copyEPcPKcm.exit

34:                                               ; preds = %_ZNSt7__cxx1112basic_stringIcSt11char_traitsIcESaIcEE9_M_createERmm.exit
  tail call void @llvm.memcpy.p0.p0.i64(ptr nonnull align 1 %31, ptr align 1 %12, i64 %1, i1 false)
  br label %_ZNSt7__cxx1112basic_stringIcSt11char_traitsIcESaIcEE7_S_copyEPcPKcm.exit

_ZNSt7__cxx1112basic_stringIcSt11char_traitsIcESaIcEE7_S_copyEPcPKcm.exit: ; preds = %_ZNSt7__cxx1112basic_stringIcSt11char_traitsIcESaIcEE9_M_createERmm.exit, %34, %32
  %35 = icmp ne ptr %3, null
  %36 = icmp ne i64 %4, 0
  %or.cond = and i1 %35, %36
  br i1 %or.cond, label %37, label %_ZNSt7__cxx1112basic_stringIcSt11char_traitsIcESaIcEE7_S_copyEPcPKcm.exit26

37:                                               ; preds = %_ZNSt7__cxx1112basic_stringIcSt11char_traitsIcESaIcEE7_S_copyEPcPKcm.exit
  %38 = getelementptr inbounds nuw i8, ptr %31, i64 %1 ; 2 uses
  %cond = icmp eq i64 %4, 1
  br i1 %cond, label %39, label %41

39:                                               ; preds = %37
  %40 = load i8, ptr %3, align 1
  store i8 %40, ptr %38, align 1
  br label %_ZNSt7__cxx1112basic_stringIcSt11char_traitsIcESaIcEE7_S_copyEPcPKcm.exit26

41:                                               ; preds = %37
  tail call void @llvm.memcpy.p0.p0.i64(ptr nonnull align 1 %38, ptr nonnull align 1 %3, i64 %4, i1 false)
  br label %_ZNSt7__cxx1112basic_stringIcSt11char_traitsIcESaIcEE7_S_copyEPcPKcm.exit26

_ZNSt7__cxx1112basic_stringIcSt11char_traitsIcESaIcEE7_S_copyEPcPKcm.exit26: ; preds = %41, %39, %_ZNSt7__cxx1112basic_stringIcSt11char_traitsIcESaIcEE7_S_copyEPcPKcm.exit
  %.not25 = icmp eq i64 %7, %8
  br i1 %.not25, label %_ZNSt7__cxx1112basic_stringIcSt11char_traitsIcESaIcEE7_S_copyEPcPKcm.exit27, label %42

42:                                               ; preds = %_ZNSt7__cxx1112basic_stringIcSt11char_traitsIcESaIcEE7_S_copyEPcPKcm.exit26
  %43 = getelementptr inbounds nuw i8, ptr %31, i64 %1
  %44 = getelementptr inbounds nuw i8, ptr %43, i64 %4 ; 2 uses
  %45 = getelementptr inbounds nuw i8, ptr %12, i64 %1
  %46 = getelementptr inbounds nuw i8, ptr %45, i64 %2 ; 2 uses
  %cond29 = icmp eq i64 %9, 1
  br i1 %cond29, label %47, label %49

47:                                               ; preds = %42
  %48 = load i8, ptr %46, align 1
  store i8 %48, ptr %44, align 1
  br label %_ZNSt7__cxx1112basic_stringIcSt11char_traitsIcESaIcEE7_S_copyEPcPKcm.exit27

49:                                               ; preds = %42
  tail call void @llvm.memcpy.p0.p0.i64(ptr nonnull align 1 %44, ptr align 1 %46, i64 %9, i1 false)
  br label %_ZNSt7__cxx1112basic_stringIcSt11char_traitsIcESaIcEE7_S_copyEPcPKcm.exit27

_ZNSt7__cxx1112basic_stringIcSt11char_traitsIcESaIcEE7_S_copyEPcPKcm.exit27: ; preds = %49, %47, %_ZNSt7__cxx1112basic_stringIcSt11char_traitsIcESaIcEE7_S_copyEPcPKcm.exit26
  br i1 %14, label %_ZNKSt7__cxx1112basic_stringIcSt11char_traitsIcESaIcEE11_M_is_localEv.exit.thread.i, label %_ZNKSt7__cxx1112basic_stringIcSt11char_traitsIcESaIcEE11_M_is_localEv.exit.i

_ZNKSt7__cxx1112basic_stringIcSt11char_traitsIcESaIcEE11_M_is_localEv.exit.thread.i: ; preds = %_ZNSt7__cxx1112basic_stringIcSt11char_traitsIcESaIcEE7_S_copyEPcPKcm.exit27
  %50 = icmp ult i64 %7, 16
  tail call void @llvm.assume(i1 %50)
  br label %_ZNSt7__cxx1112basic_stringIcSt11char_traitsIcESaIcEE10_M_disposeEv.exit

_ZNKSt7__cxx1112basic_stringIcSt11char_traitsIcESaIcEE11_M_is_localEv.exit.i: ; preds = %_ZNSt7__cxx1112basic_stringIcSt11char_traitsIcESaIcEE7_S_copyEPcPKcm.exit27
  %51 = add i64 %17, 1
  tail call void @_ZdlPvm(ptr noundef %12, i64 noundef %51) #10
  br label %_ZNSt7__cxx1112basic_stringIcSt11char_traitsIcESaIcEE10_M_disposeEv.exit

_ZNSt7__cxx1112basic_stringIcSt11char_traitsIcESaIcEE10_M_disposeEv.exit: ; preds = %_ZNKSt7__cxx1112basic_stringIcSt11char_traitsIcESaIcEE11_M_is_localEv.exit.thread.i, %_ZNKSt7__cxx1112basic_stringIcSt11char_traitsIcESaIcEE11_M_is_localEv.exit.i
  store ptr %31, ptr %0, align 8
  store i64 %.0, ptr %13, align 8
  ret void
}

; Function Attrs: noreturn
declare void @_ZSt20__throw_length_errorPKc(ptr noundef) local_unnamed_addr #1

; Function Attrs: noreturn
declare void @_ZSt17__throw_bad_allocv() local_unnamed_addr #1

; Function Attrs: nobuiltin allocsize(0)
declare noundef nonnull ptr @_Znwm(i64 noundef) local_unnamed_addr #2

; Function Attrs: nocallback nofree nounwind willreturn memory(argmem: readwrite)
declare void @llvm.memcpy.p0.p0.i64(ptr noalias writeonly captures(none), ptr noalias readonly captures(none), i64, i1 immarg) #3

; Function Attrs: nobuiltin nounwind
declare void @_ZdlPvm(ptr noundef, i64 noundef) local_unnamed_addr #4

; Function Attrs: nocallback nofree nounwind willreturn memory(argmem: write)
declare void @llvm.memset.p0.i64(ptr writeonly captures(none), i8, i64, i1 immarg) #5

; Function Attrs: nocallback nofree nosync nounwind willreturn memory(inaccessiblemem: write)
declare void @llvm.assume(i1 noundef) #6

; Function Attrs: nocallback nocreateundeforpoison nofree nosync nounwind speculatable willreturn memory(none)
declare i64 @llvm.umin.i64(i64, i64) #7

attributes #0 = { mustprogress nounwind uwtable "frame-pointer"="all" "min-legal-vector-width"="0" "no-trapping-math"="true" "stack-protector-buffer-size"="8" "target-cpu"="x86-64" "target-features"="+cmov,+cx8,+fxsr,+mmx,+sse,+sse2,+x87" "tune-cpu"="generic" }
attributes #1 = { noreturn "frame-pointer"="all" "no-trapping-math"="true" "stack-protector-buffer-size"="8" "target-cpu"="x86-64" "target-features"="+cmov,+cx8,+fxsr,+mmx,+sse,+sse2,+x87" "tune-cpu"="generic" }
attributes #2 = { nobuiltin allocsize(0) "frame-pointer"="all" "no-trapping-math"="true" "stack-protector-buffer-size"="8" "target-cpu"="x86-64" "target-features"="+cmov,+cx8,+fxsr,+mmx,+sse,+sse2,+x87" "tune-cpu"="generic" }
attributes #3 = { nocallback nofree nounwind willreturn memory(argmem: readwrite) }
attributes #4 = { nobuiltin nounwind "frame-pointer"="all" "no-trapping-math"="true" "stack-protector-buffer-size"="8" "target-cpu"="x86-64" "target-features"="+cmov,+cx8,+fxsr,+mmx,+sse,+sse2,+x87" "tune-cpu"="generic" }
attributes #5 = { nocallback nofree nounwind willreturn memory(argmem: write) }
attributes #6 = { nocallback nofree nosync nounwind willreturn memory(inaccessiblemem: write) }
attributes #7 = { nocallback nocreateundeforpoison nofree nosync nounwind speculatable willreturn memory(none) }
attributes #8 = { noreturn nounwind }
attributes #9 = { builtin nounwind allocsize(0) }
attributes #10 = { builtin nounwind }

!llvm.module.flags = !{!0, !1, !2, !3}
!llvm.ident = !{!4}
end_hunk_5
begin_hunk_6_@llvm.umin.i64/@llvm.memset.p0.i64
!4 = !{!"Ubuntu clang version 23.0.0 (++20260326081736+e69c7312f31b-1~exp1~20260326081905.1542)"}
!5 = distinct !{!5, !6}
!6 = !{!"llvm.loop.mustprogress"}
!7 = !{!"branch_weights", !"expected", i32 1, i32 2000}
end_hunk_6
