begin_hunk_0

bb.i:                                             ; preds = %.lr.ph, %_ZN2v88internal11interpreter21BytecodeArrayIterator7AdvanceEv.exit
  %.0.i.i.i107 = phi i8 [ %.promoted105, %.lr.ph ], [ %.0.i.i.i106, %_ZN2v88internal11interpreter21BytecodeArrayIterator7AdvanceEv.exit ] ; 2 uses
  %.017102 = phi i1 [ false, %.lr.ph ], [ %.118.ph, %_ZN2v88internal11interpreter21BytecodeArrayIterator7AdvanceEv.exit ] ; 100 uses
  %i.cc = phi ptr [ %.promoted, %.lr.ph ], [ %i.db, %_ZN2v88internal11interpreter21BytecodeArrayIterator7AdvanceEv.exit ] ; 2 uses
  %i.cd = load i8, ptr %i.cc, align 1             ; 10 uses
  %i.ce = add i8 %i.cd, 61
end_hunk_0
begin_hunk_1
    i8 -80, label %_ZN2v88internal12_GLOBAL__N_123BytecodeHasNoSideEffectENS0_11interpreter8BytecodeE.exit.thread
    i8 -79, label %_ZN2v88internal12_GLOBAL__N_123BytecodeHasNoSideEffectENS0_11interpreter8BytecodeE.exit.thread
    i8 -78, label %_ZN2v88internal12_GLOBAL__N_123BytecodeHasNoSideEffectENS0_11interpreter8BytecodeE.exit.thread
    i8 -76, label %_ZN2v88internal12_GLOBAL__N_123BytecodeHasNoSideEffectENS0_11interpreter8BytecodeE.exit.thread
    i8 -75, label %_ZN2v88internal12_GLOBAL__N_123BytecodeHasNoSideEffectENS0_11interpreter8BytecodeE.exit.thread
    i8 -74, label %_ZN2v88internal12_GLOBAL__N_123BytecodeHasNoSideEffectENS0_11interpreter8BytecodeE.exit.thread
    i8 -72, label %_ZN2v88internal12_GLOBAL__N_123BytecodeHasNoSideEffectENS0_11interpreter8BytecodeE.exit.thread
    i8 -71, label %_ZN2v88internal12_GLOBAL__N_123BytecodeHasNoSideEffectENS0_11interpreter8BytecodeE.exit.thread
    i8 -70, label %_ZN2v88internal12_GLOBAL__N_123BytecodeHasNoSideEffectENS0_11interpreter8BytecodeE.exit.thread
    i8 -45, label %_ZN2v88internal12_GLOBAL__N_123BytecodeHasNoSideEffectENS0_11interpreter8BytecodeE.exit.thread
    i8 112, label %_ZN2v88internal12_GLOBAL__N_123BytecodeHasNoSideEffectENS0_11interpreter8BytecodeE.exit.thread
    i8 -73, label %_ZN2v88internal12_GLOBAL__N_123BytecodeHasNoSideEffectENS0_11interpreter8BytecodeE.exit.thread
  ]

_ZN2v88internal12_GLOBAL__N_123BytecodeHasNoSideEffectENS0_11interpreter8BytecodeE.exit: ; preds = %bb.k
end_hunk_1
begin_hunk_2
  call void @llvm.lifetime.end.p0(ptr nonnull %5) #13
  br label %.thread

_ZN2v88internal12_GLOBAL__N_123BytecodeHasNoSideEffectENS0_11interpreter8BytecodeE.exit.thread: ; preds = %_ZN2v88internal12_GLOBAL__N_123BytecodeHasNoSideEffectENS0_11interpreter8BytecodeE.exit, %_ZN2v88internal12_GLOBAL__N_123BytecodeHasNoSideEffectENS0_11interpreter8BytecodeE.exit, %_ZN2v88internal12_GLOBAL__N_123BytecodeHasNoSideEffectENS0_11interpreter8BytecodeE.exit, %_ZN2v88internal12_GLOBAL__N_123BytecodeHasNoSideEffectENS0_11interpreter8BytecodeE.exit, %_ZN2v88internal12_GLOBAL__N_123BytecodeHasNoSideEffectENS0_11interpreter8BytecodeE.exit, %_ZN2v88internal12_GLOBAL__N_123BytecodeHasNoSideEffectENS0_11interpreter8BytecodeE.exit, %_ZN2v88internal12_GLOBAL__N_123BytecodeHasNoSideEffectENS0_11interpreter8BytecodeE.exit, %_ZN2v88internal12_GLOBAL__N_123BytecodeHasNoSideEffectENS0_11interpreter8BytecodeE.exit, %_ZN2v88internal12_GLOBAL__N_123BytecodeHasNoSideEffectENS0_11interpreter8BytecodeE.exit, %bb.k, %switch.early.test.i, %switch.early.test.i, %switch.early.test.i, %switch.early.test.i, %bb.j, %bb.i, %bb.k, %bb.k, %bb.k, %bb.k, %bb.k, %bb.k, %bb.k, %bb.k, %bb.k, %bb.k, %bb.k, %bb.k, %bb.k, %bb.k, %bb.k, %bb.k, %bb.k, %bb.k, %bb.k, %bb.k, %bb.k, %bb.k, %bb.k, %bb.k, %bb.k, %bb.k, %bb.k, %bb.k, %bb.k, %bb.k, %bb.k, %bb.k, %bb.k, %bb.k, %bb.k, %bb.k, %bb.k, %bb.k, %bb.k, %bb.k, %bb.k, %bb.k, %bb.k, %bb.k, %bb.k, %bb.k, %bb.k, %bb.k, %bb.k, %bb.k, %bb.k, %bb.k, %bb.k, %bb.k, %bb.k, %bb.k, %bb.k, %bb.k, %bb.k, %bb.k, %bb.k, %bb.k, %bb.k, %bb.k, %bb.k, %bb.k, %bb.k, %bb.k, %bb.k, %bb.k, %bb.k, %bb.k, %bb.k, %bb.k, %bb.k, %bb.k, %bb.k, %bb.k, %bb.k, %bb.k, %bb.k, %bb.k, %bb.k, %bb.k, %bb.k, %_ZN2v88internal11interpreter9Bytecodes28IsWithoutExternalSideEffectsENS1_8BytecodeE.exit.i, %_ZN2v88internal11interpreter9Bytecodes28IsWithoutExternalSideEffectsENS1_8BytecodeE.exit.i, %_ZN2v88internal11interpreter9Bytecodes28IsWithoutExternalSideEffectsENS1_8BytecodeE.exit.i, %switch.early.test.i, %switch.early.test.i, %switch.early.test.i, %switch.early.test.i
  %.118.ph = phi i1 [ true, %_ZN2v88internal12_GLOBAL__N_123BytecodeHasNoSideEffectENS0_11interpreter8BytecodeE.exit ], [ true, %_ZN2v88internal12_GLOBAL__N_123BytecodeHasNoSideEffectENS0_11interpreter8BytecodeE.exit ], [ true, %_ZN2v88internal12_GLOBAL__N_123BytecodeHasNoSideEffectENS0_11interpreter8BytecodeE.exit ], [ true, %_ZN2v88internal12_GLOBAL__N_123BytecodeHasNoSideEffectENS0_11interpreter8BytecodeE.exit ], [ true, %_ZN2v88internal12_GLOBAL__N_123BytecodeHasNoSideEffectENS0_11interpreter8BytecodeE.exit ], [ true, %_ZN2v88internal12_GLOBAL__N_123BytecodeHasNoSideEffectENS0_11interpreter8BytecodeE.exit ], [ %.017102, %switch.early.test.i ], [ %.017102, %switch.early.test.i ], [ %.017102, %switch.early.test.i ], [ %.017102, %switch.early.test.i ], [ %.017102, %switch.early.test.i ], [ %.017102, %switch.early.test.i ], [ %.017102, %switch.early.test.i ], [ %.017102, %switch.early.test.i ], [ %.017102, %_ZN2v88internal11interpreter9Bytecodes28IsWithoutExternalSideEffectsENS1_8BytecodeE.exit.i ], [ %.017102, %_ZN2v88internal11interpreter9Bytecodes28IsWithoutExternalSideEffectsENS1_8BytecodeE.exit.i ], [ %.017102, %_ZN2v88internal11interpreter9Bytecodes28IsWithoutExternalSideEffectsENS1_8BytecodeE.exit.i ], [ true, %_ZN2v88internal12_GLOBAL__N_123BytecodeHasNoSideEffectENS0_11interpreter8BytecodeE.exit ], [ %.017102, %bb.k ], [ %.017102, %bb.k ], [ %.017102, %bb.k ], [ %.017102, %bb.k ], [ %.017102, %bb.k ], [ %.017102, %bb.k ], [ %.017102, %bb.k ], [ %.017102, %bb.k ], [ %.017102, %bb.k ], [ %.017102, %bb.k ], [ %.017102, %bb.k ], [ %.017102, %bb.k ], [ %.017102, %bb.k ], [ %.017102, %bb.k ], [ %.017102, %bb.k ], [ %.017102, %bb.k ], [ %.017102, %bb.k ], [ %.017102, %bb.k ], [ %.017102, %bb.k ], [ %.017102, %bb.k ], [ %.017102, %bb.k ], [ %.017102, %bb.k ], [ %.017102, %bb.k ], [ %.017102, %bb.k ], [ %.017102, %bb.k ], [ %.017102, %bb.k ], [ %.017102, %bb.k ], [ %.017102, %bb.k ], [ %.017102, %bb.k ], [ %.017102, %bb.k ], [ %.017102, %bb.k ], [ %.017102, %bb.k ], [ %.017102, %bb.k ], [ %.017102, %bb.k ], [ %.017102, %bb.k ], [ %.017102, %bb.k ], [ %.017102, %bb.k ], [ %.017102, %bb.k ], [ %.017102, %bb.k ], [ %.017102, %bb.k ], [ %.017102, %bb.k ], [ %.017102, %bb.k ], [ %.017102, %bb.k ], [ %.017102, %bb.k ], [ %.017102, %bb.k ], [ %.017102, %bb.k ], [ %.017102, %bb.k ], [ %.017102, %bb.k ], [ %.017102, %bb.k ], [ %.017102, %bb.k ], [ %.017102, %bb.k ], [ %.017102, %bb.k ], [ %.017102, %bb.k ], [ %.017102, %bb.k ], [ %.017102, %bb.k ], [ %.017102, %bb.k ], [ %.017102, %bb.k ], [ %.017102, %bb.k ], [ %.017102, %bb.k ], [ %.017102, %bb.k ], [ %.017102, %bb.k ], [ %.017102, %bb.k ], [ %.017102, %bb.k ], [ %.017102, %bb.k ], [ %.017102, %bb.k ], [ %.017102, %bb.k ], [ %.017102, %bb.k ], [ %.017102, %bb.k ], [ %.017102, %bb.k ], [ %.017102, %bb.k ], [ %.017102, %bb.k ], [ %.017102, %bb.k ], [ %.017102, %bb.k ], [ %.017102, %bb.k ], [ %.017102, %bb.k ], [ %.017102, %bb.k ], [ %.017102, %bb.k ], [ %.017102, %bb.k ], [ %.017102, %bb.k ], [ %.017102, %bb.k ], [ %.017102, %bb.k ], [ %.017102, %bb.k ], [ %.017102, %bb.k ], [ %.017102, %bb.k ], [ %.017102, %bb.k ], [ %.017102, %bb.k ], [ %.017102, %bb.j ], [ %.017102, %bb.i ], [ true, %_ZN2v88internal12_GLOBAL__N_123BytecodeHasNoSideEffectENS0_11interpreter8BytecodeE.exit ], [ true, %_ZN2v88internal12_GLOBAL__N_123BytecodeHasNoSideEffectENS0_11interpreter8BytecodeE.exit ] ; 2 uses
  %i.cp = lshr i8 %.0.i.i.i107, 1
  %i.cq = zext nneg i8 %i.cp to i64
  %i.cr = getelementptr inbounds nuw [212 x i8], ptr @_ZN2v88internal11interpreter9Bytecodes14kBytecodeSizesE, i64 %i.cq
end_hunk_2
