inline.NumInlined: 3067
inline.NumDeleted: 1690
begin_hunk_0_@_ZN2v88internal6torque9IntrinsicC2ENSt7__cxx1112basic_stringIcSt11char_traitsIcESaIcEEERKNS1_9SignatureE:bb.a
  store i8 1, ptr %i.bb, align 8
  br label %_ZN2v88internal6torque14ParameterTypesD2Ev.exit.i

_ZN2v88internal6torque14ParameterTypesD2Ev.exit.i: ; preds = %_ZNSt22_Optional_payload_baseINSt7__cxx1112basic_stringIcSt11char_traitsIcESaIcEEEE12_M_constructIJS5_EEEvDpOT_.exit.i.i.i.i.i.i.i, %_ZNSt7__cxx1112basic_stringIcSt11char_traitsIcESaIcEEC2EOS4_.exit2.i
  %i.bq = getelementptr inbounds nuw i8, ptr %0, i64 344
  %i.br = getelementptr inbounds nuw i8, ptr %5, i64 64 ; 2 uses
  %i.bs = load <2 x ptr>, ptr %i.br, align 16
end_hunk_0
begin_hunk_1_@_ZN2v88internal6torque7BuiltinC2ENSt7__cxx1112basic_stringIcSt11char_traitsIcESaIcEEES8_NS2_4KindENS_4base5FlagsINS2_4FlagEiiEERKNS1_9SignatureESt8optionalIS8_ESH_IPNS1_9StatementEE:bb.a
  store i8 1, ptr %i.ba, align 8
  br label %_ZN2v88internal6torque14ParameterTypesD2Ev.exit.i

_ZN2v88internal6torque14ParameterTypesD2Ev.exit.i: ; preds = %_ZNSt22_Optional_payload_baseINSt7__cxx1112basic_stringIcSt11char_traitsIcESaIcEEEE12_M_constructIJS5_EEEvDpOT_.exit.i.i.i.i.i.i.i, %_ZNSt7__cxx1112basic_stringIcSt11char_traitsIcESaIcEEC2EOS4_.exit2.i
  %i.bp = getelementptr inbounds nuw i8, ptr %0, i64 344
  %i.bq = getelementptr inbounds nuw i8, ptr %10, i64 64 ; 2 uses
  %i.br = load <2 x ptr>, ptr %i.bq, align 16
end_hunk_1
begin_hunk_2_@_ZN2v88internal6torque15RuntimeFunctionC2ERKNSt7__cxx1112basic_stringIcSt11char_traitsIcESaIcEEERKNS1_9SignatureE:bb.a
  store i8 1, ptr %i.bb, align 8
  br label %_ZN2v88internal6torque14ParameterTypesD2Ev.exit.i

_ZN2v88internal6torque14ParameterTypesD2Ev.exit.i: ; preds = %_ZNSt22_Optional_payload_baseINSt7__cxx1112basic_stringIcSt11char_traitsIcESaIcEEEE12_M_constructIJS5_EEEvDpOT_.exit.i.i.i.i.i.i.i, %_ZNSt7__cxx1112basic_stringIcSt11char_traitsIcESaIcEEC2EOS4_.exit2.i
  %i.bq = getelementptr inbounds nuw i8, ptr %0, i64 344
  %i.br = getelementptr inbounds nuw i8, ptr %5, i64 64 ; 2 uses
  %i.bs = load <2 x ptr>, ptr %i.br, align 16
end_hunk_2
begin_hunk_3_@_ZN2v88internal6torque5MacroC2ENS1_10Declarable4KindENSt7__cxx1112basic_stringIcSt11char_traitsIcESaIcEEESA_RKNS1_9SignatureESt8optionalIPNS1_9StatementEE:bb.a
  store i8 1, ptr %i.ba, align 8
  br label %_ZN2v88internal6torque14ParameterTypesD2Ev.exit.i

_ZN2v88internal6torque14ParameterTypesD2Ev.exit.i: ; preds = %_ZNSt22_Optional_payload_baseINSt7__cxx1112basic_stringIcSt11char_traitsIcESaIcEEEE12_M_constructIJS5_EEEvDpOT_.exit.i.i.i.i.i.i.i, %_ZNSt7__cxx1112basic_stringIcSt11char_traitsIcESaIcEEC2EOS4_.exit2.i
  %i.bp = getelementptr inbounds nuw i8, ptr %0, i64 344
  %i.bq = getelementptr inbounds nuw i8, ptr %8, i64 64 ; 2 uses
  %i.br = load <2 x ptr>, ptr %i.bq, align 16
end_hunk_3
