inline.NumInlined: 356
inline.NumDeleted: 165
begin_hunk_0_@_ZN7testing7MatcherIRKNSt7__cxx1112basic_stringIcSt11char_traitsIcESaIcEEEEC2ES8_:bb.a
  %.pre.i.i.i.i = load i64, ptr %i.y, align 8
  br label %_ZN7testing8internal14ComparisonBaseINS0_9EqMatcherINSt7__cxx1112basic_stringIcSt11char_traitsIcESaIcEEEEES8_St8equal_toIvEED2Ev.exit

_ZN7testing8internal14ComparisonBaseINS0_9EqMatcherINSt7__cxx1112basic_stringIcSt11char_traitsIcESaIcEEEEES8_St8equal_toIvEED2Ev.exit: ; preds = %_ZNKSt7__cxx1112basic_stringIcSt11char_traitsIcESaIcEE11_M_is_localEv.exit.i.i.i.i.i.i.i.i, %bb.n
  %i.aj = phi i64 [ %i.af, %bb.n ], [ %.pre.i.i.i.i, %_ZNKSt7__cxx1112basic_stringIcSt11char_traitsIcESaIcEE11_M_is_localEv.exit.i.i.i.i.i.i.i.i ]
  %i.ak = getelementptr inbounds nuw i8, ptr %i.aa, i64 16
  store i64 %i.aj, ptr %i.ak, align 8
end_hunk_0
begin_hunk_1_@_ZN7testing7MatcherIRKNSt7__cxx1112basic_stringIcSt11char_traitsIcESaIcEEEEC2EPKc:bb.a
  %.pre.i.i.i.i = load i64, ptr %i.x, align 8
  br label %_ZN7testing8internal14ComparisonBaseINS0_9EqMatcherINSt7__cxx1112basic_stringIcSt11char_traitsIcESaIcEEEEES8_St8equal_toIvEED2Ev.exit

_ZN7testing8internal14ComparisonBaseINS0_9EqMatcherINSt7__cxx1112basic_stringIcSt11char_traitsIcESaIcEEEEES8_St8equal_toIvEED2Ev.exit: ; preds = %_ZNKSt7__cxx1112basic_stringIcSt11char_traitsIcESaIcEE11_M_is_localEv.exit.i.i.i.i.i.i.i.i, %bb.p
  %i.ai = phi i64 [ %i.ae, %bb.p ], [ %.pre.i.i.i.i, %_ZNKSt7__cxx1112basic_stringIcSt11char_traitsIcESaIcEE11_M_is_localEv.exit.i.i.i.i.i.i.i.i ]
  %i.aj = getelementptr inbounds nuw i8, ptr %i.z, i64 16
  store i64 %i.ai, ptr %i.aj, align 8
end_hunk_1
begin_hunk_2_@_ZN7testing7MatcherINSt7__cxx1112basic_stringIcSt11char_traitsIcESaIcEEEEC2ERKS6_:bb.a
  %.pre.i.i.i.i = load i64, ptr %i.y, align 8
  br label %_ZN7testing8internal14ComparisonBaseINS0_9EqMatcherINSt7__cxx1112basic_stringIcSt11char_traitsIcESaIcEEEEES8_St8equal_toIvEED2Ev.exit

_ZN7testing8internal14ComparisonBaseINS0_9EqMatcherINSt7__cxx1112basic_stringIcSt11char_traitsIcESaIcEEEEES8_St8equal_toIvEED2Ev.exit: ; preds = %_ZNKSt7__cxx1112basic_stringIcSt11char_traitsIcESaIcEE11_M_is_localEv.exit.i.i.i.i.i.i.i.i, %bb.n
  %i.aj = phi i64 [ %i.af, %bb.n ], [ %.pre.i.i.i.i, %_ZNKSt7__cxx1112basic_stringIcSt11char_traitsIcESaIcEE11_M_is_localEv.exit.i.i.i.i.i.i.i.i ]
  %i.ak = getelementptr inbounds nuw i8, ptr %i.aa, i64 16
  store i64 %i.aj, ptr %i.ak, align 8
end_hunk_2
begin_hunk_3_@_ZN7testing7MatcherINSt7__cxx1112basic_stringIcSt11char_traitsIcESaIcEEEEC2EPKc:bb.a
  %.pre.i.i.i.i = load i64, ptr %i.x, align 8
  br label %_ZN7testing8internal14ComparisonBaseINS0_9EqMatcherINSt7__cxx1112basic_stringIcSt11char_traitsIcESaIcEEEEES8_St8equal_toIvEED2Ev.exit

_ZN7testing8internal14ComparisonBaseINS0_9EqMatcherINSt7__cxx1112basic_stringIcSt11char_traitsIcESaIcEEEEES8_St8equal_toIvEED2Ev.exit: ; preds = %_ZNKSt7__cxx1112basic_stringIcSt11char_traitsIcESaIcEE11_M_is_localEv.exit.i.i.i.i.i.i.i.i, %bb.p
  %i.ai = phi i64 [ %i.ae, %bb.p ], [ %.pre.i.i.i.i, %_ZNKSt7__cxx1112basic_stringIcSt11char_traitsIcESaIcEE11_M_is_localEv.exit.i.i.i.i.i.i.i.i ]
  %i.aj = getelementptr inbounds nuw i8, ptr %i.z, i64 16
  store i64 %i.ai, ptr %i.aj, align 8
end_hunk_3
begin_hunk_4_@_ZN7testing7MatcherIRKSt17basic_string_viewIcSt11char_traitsIcEEEC2ERKNSt7__cxx1112basic_stringIcS3_SaIcEEE:bb.a
  %.pre.i.i.i.i = load i64, ptr %i.y, align 8
  br label %_ZN7testing8internal14ComparisonBaseINS0_9EqMatcherINSt7__cxx1112basic_stringIcSt11char_traitsIcESaIcEEEEES8_St8equal_toIvEED2Ev.exit

_ZN7testing8internal14ComparisonBaseINS0_9EqMatcherINSt7__cxx1112basic_stringIcSt11char_traitsIcESaIcEEEEES8_St8equal_toIvEED2Ev.exit: ; preds = %_ZNKSt7__cxx1112basic_stringIcSt11char_traitsIcESaIcEE11_M_is_localEv.exit.i.i.i.i.i.i.i.i, %bb.n
  %i.aj = phi i64 [ %i.af, %bb.n ], [ %.pre.i.i.i.i, %_ZNKSt7__cxx1112basic_stringIcSt11char_traitsIcESaIcEE11_M_is_localEv.exit.i.i.i.i.i.i.i.i ]
  %i.ak = getelementptr inbounds nuw i8, ptr %i.aa, i64 16
  store i64 %i.aj, ptr %i.ak, align 8
end_hunk_4
begin_hunk_5_@_ZN7testing7MatcherIRKSt17basic_string_viewIcSt11char_traitsIcEEEC2EPKc:bb.a
  %.pre.i.i.i.i = load i64, ptr %i.x, align 8
  br label %_ZN7testing8internal14ComparisonBaseINS0_9EqMatcherINSt7__cxx1112basic_stringIcSt11char_traitsIcESaIcEEEEES8_St8equal_toIvEED2Ev.exit

_ZN7testing8internal14ComparisonBaseINS0_9EqMatcherINSt7__cxx1112basic_stringIcSt11char_traitsIcESaIcEEEEES8_St8equal_toIvEED2Ev.exit: ; preds = %_ZNKSt7__cxx1112basic_stringIcSt11char_traitsIcESaIcEE11_M_is_localEv.exit.i.i.i.i.i.i.i.i, %bb.p
  %i.ai = phi i64 [ %i.ae, %bb.p ], [ %.pre.i.i.i.i, %_ZNKSt7__cxx1112basic_stringIcSt11char_traitsIcESaIcEE11_M_is_localEv.exit.i.i.i.i.i.i.i.i ]
  %i.aj = getelementptr inbounds nuw i8, ptr %i.z, i64 16
  store i64 %i.ai, ptr %i.aj, align 8
end_hunk_5
begin_hunk_6_@_ZN7testing7MatcherIRKSt17basic_string_viewIcSt11char_traitsIcEEEC2ES4_:bb.a
  %.pre.i.i.i.i = load i64, ptr %i.x, align 8
  br label %_ZN7testing8internal14ComparisonBaseINS0_9EqMatcherINSt7__cxx1112basic_stringIcSt11char_traitsIcESaIcEEEEES8_St8equal_toIvEED2Ev.exit

_ZN7testing8internal14ComparisonBaseINS0_9EqMatcherINSt7__cxx1112basic_stringIcSt11char_traitsIcESaIcEEEEES8_St8equal_toIvEED2Ev.exit: ; preds = %_ZNKSt7__cxx1112basic_stringIcSt11char_traitsIcESaIcEE11_M_is_localEv.exit.i.i.i.i.i.i.i.i, %bb.p
  %i.ai = phi i64 [ %i.ae, %bb.p ], [ %.pre.i.i.i.i, %_ZNKSt7__cxx1112basic_stringIcSt11char_traitsIcESaIcEE11_M_is_localEv.exit.i.i.i.i.i.i.i.i ]
  %i.aj = getelementptr inbounds nuw i8, ptr %i.z, i64 16
  store i64 %i.ai, ptr %i.aj, align 8
end_hunk_6
begin_hunk_7_@_ZN7testing7MatcherISt17basic_string_viewIcSt11char_traitsIcEEEC2ERKNSt7__cxx1112basic_stringIcS3_SaIcEEE:bb.a
  %.pre.i.i.i.i = load i64, ptr %i.y, align 8
  br label %_ZN7testing8internal14ComparisonBaseINS0_9EqMatcherINSt7__cxx1112basic_stringIcSt11char_traitsIcESaIcEEEEES8_St8equal_toIvEED2Ev.exit

_ZN7testing8internal14ComparisonBaseINS0_9EqMatcherINSt7__cxx1112basic_stringIcSt11char_traitsIcESaIcEEEEES8_St8equal_toIvEED2Ev.exit: ; preds = %_ZNKSt7__cxx1112basic_stringIcSt11char_traitsIcESaIcEE11_M_is_localEv.exit.i.i.i.i.i.i.i.i, %bb.n
  %i.aj = phi i64 [ %i.af, %bb.n ], [ %.pre.i.i.i.i, %_ZNKSt7__cxx1112basic_stringIcSt11char_traitsIcESaIcEE11_M_is_localEv.exit.i.i.i.i.i.i.i.i ]
  %i.ak = getelementptr inbounds nuw i8, ptr %i.aa, i64 16
  store i64 %i.aj, ptr %i.ak, align 8
end_hunk_7
begin_hunk_8_@_ZN7testing7MatcherISt17basic_string_viewIcSt11char_traitsIcEEEC2EPKc:bb.a
  %.pre.i.i.i.i = load i64, ptr %i.x, align 8
  br label %_ZN7testing8internal14ComparisonBaseINS0_9EqMatcherINSt7__cxx1112basic_stringIcSt11char_traitsIcESaIcEEEEES8_St8equal_toIvEED2Ev.exit

_ZN7testing8internal14ComparisonBaseINS0_9EqMatcherINSt7__cxx1112basic_stringIcSt11char_traitsIcESaIcEEEEES8_St8equal_toIvEED2Ev.exit: ; preds = %_ZNKSt7__cxx1112basic_stringIcSt11char_traitsIcESaIcEE11_M_is_localEv.exit.i.i.i.i.i.i.i.i, %bb.p
  %i.ai = phi i64 [ %i.ae, %bb.p ], [ %.pre.i.i.i.i, %_ZNKSt7__cxx1112basic_stringIcSt11char_traitsIcESaIcEE11_M_is_localEv.exit.i.i.i.i.i.i.i.i ]
  %i.aj = getelementptr inbounds nuw i8, ptr %i.z, i64 16
  store i64 %i.ai, ptr %i.aj, align 8
end_hunk_8
begin_hunk_9_@_ZN7testing7MatcherISt17basic_string_viewIcSt11char_traitsIcEEEC2ES4_:bb.a
  %.pre.i.i.i.i = load i64, ptr %i.x, align 8
  br label %_ZN7testing8internal14ComparisonBaseINS0_9EqMatcherINSt7__cxx1112basic_stringIcSt11char_traitsIcESaIcEEEEES8_St8equal_toIvEED2Ev.exit

_ZN7testing8internal14ComparisonBaseINS0_9EqMatcherINSt7__cxx1112basic_stringIcSt11char_traitsIcESaIcEEEEES8_St8equal_toIvEED2Ev.exit: ; preds = %_ZNKSt7__cxx1112basic_stringIcSt11char_traitsIcESaIcEE11_M_is_localEv.exit.i.i.i.i.i.i.i.i, %bb.p
  %i.ai = phi i64 [ %i.ae, %bb.p ], [ %.pre.i.i.i.i, %_ZNKSt7__cxx1112basic_stringIcSt11char_traitsIcESaIcEE11_M_is_localEv.exit.i.i.i.i.i.i.i.i ]
  %i.aj = getelementptr inbounds nuw i8, ptr %i.z, i64 16
  store i64 %i.ai, ptr %i.aj, align 8
end_hunk_9
