inline.NumInlined: 76
inline.NumDeleted: 30
begin_hunk_0

module asm ".globl _ZSt21ios_base_library_initv"

; Function Attrs: mustprogress nofree norecurse nounwind memory(readwrite, target_mem: none) uwtable
define hidden noundef zeroext i1 @_ZN2v88internal22IsJSReceiver_NonInlineENS0_6TaggedINS0_10HeapObjectEEE(i64 %0) local_unnamed_addr #0 {
bb.a:
  %i.a = add i64 %0, -1
end_hunk_0
begin_hunk_1_@_ZN2v88internal22IsJSReceiver_NonInlineENS0_6TaggedINS0_10HeapObjectEEE:bb.a
  ret i1 %i.g
}

; Function Attrs: mustprogress nofree norecurse nounwind memory(readwrite, target_mem: none) uwtable
define hidden noundef zeroext i1 @_ZN2v88internal20IsJSObject_NonInlineENS0_6TaggedINS0_10HeapObjectEEE(i64 %0) local_unnamed_addr #0 {
bb.a:
  %i.a = add i64 %0, -1
end_hunk_1
begin_hunk_2_@_ZN2v88internal20IsJSObject_NonInlineENS0_6TaggedINS0_10HeapObjectEEE:bb.a
  ret i1 %i.g
}

; Function Attrs: mustprogress nofree norecurse nounwind memory(readwrite, target_mem: none) uwtable
define hidden noundef zeroext i1 @_ZN2v88internal37IsJSObjectWithEmbedderSlots_NonInlineENS0_6TaggedINS0_10HeapObjectEEE(i64 %0) local_unnamed_addr #0 {
bb.a:
  %i.a = add i64 %0, -1
end_hunk_2
begin_hunk_3_@_ZN2v88internal37IsJSObjectWithEmbedderSlots_NonInlineENS0_6TaggedINS0_10HeapObjectEEE:bb.a
  ret i1 %i.h
}

; Function Attrs: mustprogress nofree norecurse nounwind memory(readwrite, target_mem: none) uwtable
define hidden noundef zeroext i1 @_ZN2v88internal40IsJSAPIObjectWithEmbedderSlots_NonInlineENS0_6TaggedINS0_10HeapObjectEEE(i64 %0) local_unnamed_addr #0 {
bb.a:
  %i.a = add i64 %0, -1
end_hunk_3
begin_hunk_4_@_ZN2v88internal40IsJSAPIObjectWithEmbedderSlots_NonInlineENS0_6TaggedINS0_10HeapObjectEEE:bb.a
  ret i1 %i.h
}

; Function Attrs: mustprogress nofree norecurse nounwind memory(readwrite, target_mem: none) uwtable
define hidden noundef zeroext i1 @_ZN2v88internal34IsJSCustomElementsObject_NonInlineENS0_6TaggedINS0_10HeapObjectEEE(i64 %0) local_unnamed_addr #0 {
bb.a:
  %i.a = add i64 %0, -1
end_hunk_4
begin_hunk_5_@_ZN2v88internal34IsJSCustomElementsObject_NonInlineENS0_6TaggedINS0_10HeapObjectEEE:bb.a
  ret i1 %i.h
}

; Function Attrs: mustprogress nofree norecurse nounwind memory(readwrite, target_mem: none) uwtable
define hidden noundef zeroext i1 @_ZN2v88internal27IsJSSpecialObject_NonInlineENS0_6TaggedINS0_10HeapObjectEEE(i64 %0) local_unnamed_addr #0 {
bb.a:
  %i.a = add i64 %0, -1
end_hunk_5
begin_hunk_6_@_ZN2v88internal27IsJSSpecialObject_NonInlineENS0_6TaggedINS0_10HeapObjectEEE:bb.a
  ret i1 %i.h
}

; Function Attrs: mustprogress nofree norecurse nounwind memory(readwrite, target_mem: none) uwtable
define hidden noundef zeroext i1 @_ZN2v88internal28IsJSExternalObject_NonInlineENS0_6TaggedINS0_10HeapObjectEEE(i64 %0) local_unnamed_addr #0 {
bb.a:
  %i.a = add i64 %0, -1
end_hunk_6
begin_hunk_7_@_ZN2v88internal28IsJSExternalObject_NonInlineENS0_6TaggedINS0_10HeapObjectEEE:bb.a
  ret i1 %i.g
}

; Function Attrs: mustprogress nofree norecurse nounwind memory(readwrite, target_mem: none) uwtable
define hidden noundef zeroext i1 @_ZN2v88internal25IsJSGlobalProxy_NonInlineENS0_6TaggedINS0_10HeapObjectEEE(i64 %0) local_unnamed_addr #0 {
bb.a:
  %i.a = add i64 %0, -1
end_hunk_7
begin_hunk_8_@_ZN2v88internal25IsJSGlobalProxy_NonInlineENS0_6TaggedINS0_10HeapObjectEEE:bb.a
  ret i1 %i.g
}

; Function Attrs: mustprogress nofree norecurse nounwind memory(readwrite, target_mem: none) uwtable
define hidden noundef zeroext i1 @_ZN2v88internal26IsJSGlobalObject_NonInlineENS0_6TaggedINS0_10HeapObjectEEE(i64 %0) local_unnamed_addr #0 {
bb.a:
  %i.a = add i64 %0, -1
end_hunk_8
begin_hunk_9_@_ZN2v88internal26IsJSGlobalObject_NonInlineENS0_6TaggedINS0_10HeapObjectEEE:bb.a
  ret i1 %i.g
}

; Function Attrs: mustprogress nofree norecurse nounwind memory(readwrite, target_mem: none) uwtable
define hidden noundef zeroext i1 @_ZN2v88internal30IsJSPrimitiveWrapper_NonInlineENS0_6TaggedINS0_10HeapObjectEEE(i64 %0) local_unnamed_addr #0 {
bb.a:
  %i.a = add i64 %0, -1
end_hunk_9
begin_hunk_10_@_ZN2v88internal30IsJSPrimitiveWrapper_NonInlineENS0_6TaggedINS0_10HeapObjectEEE:bb.a
  ret i1 %i.g
}

; Function Attrs: mustprogress nofree norecurse nounwind memory(readwrite, target_mem: none) uwtable
define hidden noundef zeroext i1 @_ZN2v88internal27IsJSMessageObject_NonInlineENS0_6TaggedINS0_10HeapObjectEEE(i64 %0) local_unnamed_addr #0 {
bb.a:
  %i.a = add i64 %0, -1
end_hunk_10
begin_hunk_11_@_ZN2v88internal27IsJSMessageObject_NonInlineENS0_6TaggedINS0_10HeapObjectEEE:bb.a
  ret i1 %i.g
}

; Function Attrs: mustprogress nofree norecurse nounwind memory(readwrite, target_mem: none) uwtable
define hidden noundef zeroext i1 @_ZN2v88internal18IsJSDate_NonInlineENS0_6TaggedINS0_10HeapObjectEEE(i64 %0) local_unnamed_addr #0 {
bb.a:
  %i.a = add i64 %0, -1
end_hunk_11
begin_hunk_12_@_ZN2v88internal18IsJSDate_NonInlineENS0_6TaggedINS0_10HeapObjectEEE:bb.a
  ret i1 %i.g
}

; Function Attrs: mustprogress nofree norecurse nounwind memory(readwrite, target_mem: none) uwtable
define hidden noundef zeroext i1 @_ZN2v88internal35IsJSAsyncFromSyncIterator_NonInlineENS0_6TaggedINS0_10HeapObjectEEE(i64 %0) local_unnamed_addr #0 {
bb.a:
  %i.a = add i64 %0, -1
end_hunk_12
begin_hunk_13_@_ZN2v88internal35IsJSAsyncFromSyncIterator_NonInlineENS0_6TaggedINS0_10HeapObjectEEE:bb.a
  ret i1 %i.g
}

; Function Attrs: mustprogress nofree norecurse nounwind memory(readwrite, target_mem: none) uwtable
define hidden noundef zeroext i1 @_ZN2v88internal28IsJSStringIterator_NonInlineENS0_6TaggedINS0_10HeapObjectEEE(i64 %0) local_unnamed_addr #0 {
bb.a:
  %i.a = add i64 %0, -1
end_hunk_13
begin_hunk_14_@_ZN2v88internal28IsJSStringIterator_NonInlineENS0_6TaggedINS0_10HeapObjectEEE:bb.a
  ret i1 %i.g
}

; Function Attrs: mustprogress nofree norecurse nounwind memory(readwrite, target_mem: none) uwtable
define hidden noundef zeroext i1 @_ZN2v88internal34IsJSValidIteratorWrapper_NonInlineENS0_6TaggedINS0_10HeapObjectEEE(i64 %0) local_unnamed_addr #0 {
bb.a:
  %i.a = add i64 %0, -1
end_hunk_14
begin_hunk_15_@_ZN2v88internal34IsJSValidIteratorWrapper_NonInlineENS0_6TaggedINS0_10HeapObjectEEE:bb.a
  ret i1 %i.g
}

attributes #0 = { mustprogress nofree norecurse nounwind memory(readwrite, target_mem: none) uwtable "frame-pointer"="all" "min-legal-vector-width"="0" "no-trapping-math"="true" "stack-protector-buffer-size"="8" "target-cpu"="x86-64" "target-features"="+cmov,+cx8,+fxsr,+mmx,+sse,+sse2,+x87" "tune-cpu"="generic" }

!llvm.module.flags = !{!0, !1, !2, !3}
!llvm.ident = !{!4}
end_hunk_15
