inline.NumInlined: 44288
inline.NumDeleted: 14008
begin_hunk_0
@.str.47 = private unnamed_addr constant [87 x i8] c"input_interpretation == ConvertUntaggedToJSPrimitiveOp::InputInterpretation::kUnsigned\00", align 1
@.str.66 = private unnamed_addr constant [48 x i8] c"!IsRabGsabTypedArrayElementsKind(elements_kind)\00", align 1
@_ZZN2v88internal8compiler10turboshaft12VectorForRepENS2_22RegisterRepresentationEE5table = linkonce_odr hidden constant { [6 x { i8 }] } { [6 x { i8 }] [{ i8 } zeroinitializer, { i8 } { i8 1 }, { i8 } { i8 2 }, { i8 } { i8 3 }, { i8 } { i8 4 }, { i8 } { i8 5 }] }, comdat, align 1
@switch.table._ZN2v88internal8compiler10turboshaft13TSReducerBaseINS2_11StackBottomINS_4base3tmp5list1IJNS2_12GraphVisitorENS2_27StringEscapeAnalysisReducerENS2_24JSGenericLoweringReducerENS2_23DataViewLoweringReducerENS2_22MachineLoweringReducerENS2_26FastApiCallLoweringReducerENS2_15VariableReducerENS2_21SelectLoweringReducerENS2_26MachineOptimizationReducerENS2_21ValueNumberingReducerES3_EEEEEE4EmitINS2_10ConstantOpEJNSM_4KindENSM_7StorageEEEENS2_7OpIndexEDpT0_ = private unnamed_addr constant [15 x i8] c"\00\01\02\03\04\04\01\01\04\05\01\01\01\00\00", comdat($_ZN2v88internal8compiler10turboshaft13TSReducerBaseINS2_11StackBottomINS_4base3tmp5list1IJNS2_12GraphVisitorENS2_27StringEscapeAnalysisReducerENS2_24JSGenericLoweringReducerENS2_23DataViewLoweringReducerENS2_22MachineLoweringReducerENS2_26FastApiCallLoweringReducerENS2_15VariableReducerENS2_21SelectLoweringReducerENS2_26MachineOptimizationReducerENS2_21ValueNumberingReducerES3_EEEEEE4EmitINS2_10ConstantOpEJNSM_4KindENSM_7StorageEEEENS2_7OpIndexEDpT0_), align 1
@switch.table._ZNK2v88internal8compiler10turboshaft9Operation7EffectsEv = private unnamed_addr constant [4 x i32] [i32 0, i32 4128, i32 0, i32 4128], comdat($_ZNK2v88internal8compiler10turboshaft9Operation7EffectsEv), align 4
@switch.table._ZN2v88internal8compiler10turboshaft13TSReducerBaseINS2_11StackBottomINS_4base3tmp5list1IJNS2_12GraphVisitorENS2_27StringEscapeAnalysisReducerENS2_24JSGenericLoweringReducerENS2_23DataViewLoweringReducerENS2_22MachineLoweringReducerENS2_26FastApiCallLoweringReducerENS2_15VariableReducerENS2_21SelectLoweringReducerENS2_26MachineOptimizationReducerENS2_21ValueNumberingReducerES3_EEEEEE4EmitINS2_10ConstantOpEJNSM_4KindEmEEENS2_7OpIndexEDpT0_ = private unnamed_addr constant [15 x i8] c"\00\01\02\03\04\04\01\01\04\05\01\01\01\00\00", comdat($_ZN2v88internal8compiler10turboshaft13TSReducerBaseINS2_11StackBottomINS_4base3tmp5list1IJNS2_12GraphVisitorENS2_27StringEscapeAnalysisReducerENS2_24JSGenericLoweringReducerENS2_23DataViewLoweringReducerENS2_22MachineLoweringReducerENS2_26FastApiCallLoweringReducerENS2_15VariableReducerENS2_21SelectLoweringReducerENS2_26MachineOptimizationReducerENS2_21ValueNumberingReducerES3_EEEEEE4EmitINS2_10ConstantOpEJNSM_4KindEmEEENS2_7OpIndexEDpT0_), align 1
@switch.table._ZN2v88internal8compiler10turboshaft13TSReducerBaseINS2_11StackBottomINS_4base3tmp5list1IJNS2_12GraphVisitorENS2_27StringEscapeAnalysisReducerENS2_24JSGenericLoweringReducerENS2_23DataViewLoweringReducerENS2_22MachineLoweringReducerENS2_26FastApiCallLoweringReducerENS2_15VariableReducerENS2_21SelectLoweringReducerENS2_26MachineOptimizationReducerENS2_21ValueNumberingReducerES3_EEEEEE4EmitINS2_10ConstantOpEJNSM_4KindENS0_7Float32EEEENS2_7OpIndexEDpT0_ = private unnamed_addr constant [15 x i8] c"\00\01\02\03\04\04\01\01\04\05\01\01\01\00\00", comdat($_ZN2v88internal8compiler10turboshaft13TSReducerBaseINS2_11StackBottomINS_4base3tmp5list1IJNS2_12GraphVisitorENS2_27StringEscapeAnalysisReducerENS2_24JSGenericLoweringReducerENS2_23DataViewLoweringReducerENS2_22MachineLoweringReducerENS2_26FastApiCallLoweringReducerENS2_15VariableReducerENS2_21SelectLoweringReducerENS2_26MachineOptimizationReducerENS2_21ValueNumberingReducerES3_EEEEEE4EmitINS2_10ConstantOpEJNSM_4KindENS0_7Float32EEEENS2_7OpIndexEDpT0_), align 1
@switch.table._ZN2v88internal8compiler10turboshaft13TSReducerBaseINS2_11StackBottomINS_4base3tmp5list1IJNS2_12GraphVisitorENS2_27StringEscapeAnalysisReducerENS2_24JSGenericLoweringReducerENS2_23DataViewLoweringReducerENS2_22MachineLoweringReducerENS2_26FastApiCallLoweringReducerENS2_15VariableReducerENS2_21SelectLoweringReducerENS2_26MachineOptimizationReducerENS2_21ValueNumberingReducerES3_EEEEEE4EmitINS2_10ConstantOpEJNSM_4KindENS0_7Float64EEEENS2_7OpIndexEDpT0_ = private unnamed_addr constant [15 x i8] c"\00\01\02\03\04\04\01\01\04\05\01\01\01\00\00", comdat($_ZN2v88internal8compiler10turboshaft13TSReducerBaseINS2_11StackBottomINS_4base3tmp5list1IJNS2_12GraphVisitorENS2_27StringEscapeAnalysisReducerENS2_24JSGenericLoweringReducerENS2_23DataViewLoweringReducerENS2_22MachineLoweringReducerENS2_26FastApiCallLoweringReducerENS2_15VariableReducerENS2_21SelectLoweringReducerENS2_26MachineOptimizationReducerENS2_21ValueNumberingReducerES3_EEEEEE4EmitINS2_10ConstantOpEJNSM_4KindENS0_7Float64EEEENS2_7OpIndexEDpT0_), align 1
@switch.table._ZN2v88internal8compiler10turboshaft26MachineOptimizationReducerINS2_21EmitProjectionReducerINS2_21ValueNumberingReducerINS2_18GenericReducerBaseINS2_13TSReducerBaseINS2_11StackBottomINS_4base3tmp5list1IJNS2_12GraphVisitorENS2_27StringEscapeAnalysisReducerENS2_24JSGenericLoweringReducerENS2_23DataViewLoweringReducerENS2_22MachineLoweringReducerENS2_26FastApiCallLoweringReducerENS2_15VariableReducerENS2_21SelectLoweringReducerES3_S5_S7_EEEEEEEEEEEEEE11ReduceShiftENS2_1VINS2_13UntaggedUnionIJNS2_12WordWithBitsILm32EEENST_ILm64EEEEEEEENSR_ISU_EENS2_7ShiftOp4KindENS2_18WordRepresentationE = private unnamed_addr constant [8 x i32] [i32 32, i32 64, i32 32, i32 64, i32 8, i32 8, i32 128, i32 256], comdat($_ZN2v88internal8compiler10turboshaft26MachineOptimizationReducerINS2_21EmitProjectionReducerINS2_21ValueNumberingReducerINS2_18GenericReducerBaseINS2_13TSReducerBaseINS2_11StackBottomINS_4base3tmp5list1IJNS2_12GraphVisitorENS2_27StringEscapeAnalysisReducerENS2_24JSGenericLoweringReducerENS2_23DataViewLoweringReducerENS2_22MachineLoweringReducerENS2_26FastApiCallLoweringReducerENS2_15VariableReducerENS2_21SelectLoweringReducerES3_S5_S7_EEEEEEEEEEEEEE11ReduceShiftENS2_1VINS2_13UntaggedUnionIJNS2_12WordWithBitsILm32EEENST_ILm64EEEEEEEENSR_ISU_EENS2_7ShiftOp4KindENS2_18WordRepresentationE), align 4
@switch.table._ZN2v88internal8compiler10turboshaft13TSReducerBaseINS2_11StackBottomINS_4base3tmp5list1IJNS2_12GraphVisitorENS2_27StringEscapeAnalysisReducerENS2_24JSGenericLoweringReducerENS2_23DataViewLoweringReducerENS2_22MachineLoweringReducerENS2_26FastApiCallLoweringReducerENS2_15VariableReducerENS2_21SelectLoweringReducerENS2_26MachineOptimizationReducerENS2_21ValueNumberingReducerES3_EEEEEE4EmitINS2_16Simd128ShuffleOpEJNS2_14ShadowyOpIndexESN_NSM_4KindEPKhEEENS2_7OpIndexEDpT0_ = private unnamed_addr constant [4 x i64] [i64 2, i64 4, i64 8, i64 16], comdat($_ZN2v88internal8compiler10turboshaft13TSReducerBaseINS2_11StackBottomINS_4base3tmp5list1IJNS2_12GraphVisitorENS2_27StringEscapeAnalysisReducerENS2_24JSGenericLoweringReducerENS2_23DataViewLoweringReducerENS2_22MachineLoweringReducerENS2_26FastApiCallLoweringReducerENS2_15VariableReducerENS2_21SelectLoweringReducerENS2_26MachineOptimizationReducerENS2_21ValueNumberingReducerES3_EEEEEE4EmitINS2_16Simd128ShuffleOpEJNS2_14ShadowyOpIndexESN_NSM_4KindEPKhEEENS2_7OpIndexEDpT0_), align 8
@switch.table._ZN2v88internal8compiler10turboshaft13TSReducerBaseINS2_11StackBottomINS_4base3tmp5list1IJNS2_12GraphVisitorENS2_27StringEscapeAnalysisReducerENS2_24JSGenericLoweringReducerENS2_23DataViewLoweringReducerENS2_22MachineLoweringReducerENS2_26FastApiCallLoweringReducerENS2_15VariableReducerENS2_21SelectLoweringReducerENS2_26MachineOptimizationReducerENS2_21ValueNumberingReducerES3_EEEEEE4EmitINS2_10ConstantOpEJNSM_4KindENS0_6TaggedINS0_3SmiEEEEEENS2_7OpIndexEDpT0_ = private unnamed_addr constant [15 x i8] c"\00\01\02\03\04\04\01\01\04\05\01\01\01\00\00", comdat($_ZN2v88internal8compiler10turboshaft13TSReducerBaseINS2_11StackBottomINS_4base3tmp5list1IJNS2_12GraphVisitorENS2_27StringEscapeAnalysisReducerENS2_24JSGenericLoweringReducerENS2_23DataViewLoweringReducerENS2_22MachineLoweringReducerENS2_26FastApiCallLoweringReducerENS2_15VariableReducerENS2_21SelectLoweringReducerENS2_26MachineOptimizationReducerENS2_21ValueNumberingReducerES3_EEEEEE4EmitINS2_10ConstantOpEJNSM_4KindENS0_6TaggedINS0_3SmiEEEEEENS2_7OpIndexEDpT0_), align 1
@switch.table._ZN2v88internal8compiler10turboshaft26MachineOptimizationReducerINS2_21EmitProjectionReducerINS2_21ValueNumberingReducerINS2_18GenericReducerBaseINS2_13TSReducerBaseINS2_11StackBottomINS_4base3tmp5list1IJNS2_12GraphVisitorENS2_27StringEscapeAnalysisReducerENS2_24JSGenericLoweringReducerENS2_23DataViewLoweringReducerENS2_22MachineLoweringReducerENS2_26FastApiCallLoweringReducerENS2_15VariableReducerENS2_21SelectLoweringReducerES3_S5_S7_EEEEEEEEEEEEEE11ReduceStoreENS2_7OpIndexENS2_15OptionalOpIndexESR_NS2_6LoadOp4KindENS2_20MemoryRepresentationENS1_16WriteBarrierKindEihbNS0_18IndirectPointerTagE = private unnamed_addr constant [6 x i64] [i64 255, i64 255, i64 65535, i64 65535, i64 4294967295, i64 4294967295], comdat($_ZN2v88internal8compiler10turboshaft26MachineOptimizationReducerINS2_21EmitProjectionReducerINS2_21ValueNumberingReducerINS2_18GenericReducerBaseINS2_13TSReducerBaseINS2_11StackBottomINS_4base3tmp5list1IJNS2_12GraphVisitorENS2_27StringEscapeAnalysisReducerENS2_24JSGenericLoweringReducerENS2_23DataViewLoweringReducerENS2_22MachineLoweringReducerENS2_26FastApiCallLoweringReducerENS2_15VariableReducerENS2_21SelectLoweringReducerES3_S5_S7_EEEEEEEEEEEEEE11ReduceStoreENS2_7OpIndexENS2_15OptionalOpIndexESR_NS2_6LoadOp4KindENS2_20MemoryRepresentationENS1_16WriteBarrierKindEihbNS0_18IndirectPointerTagE), align 8
@switch.table._ZN2v88internal8compiler10turboshaft26MachineOptimizationReducerINS2_21EmitProjectionReducerINS2_21ValueNumberingReducerINS2_18GenericReducerBaseINS2_13TSReducerBaseINS2_11StackBottomINS_4base3tmp5list1IJNS2_12GraphVisitorENS2_27StringEscapeAnalysisReducerENS2_24JSGenericLoweringReducerENS2_23DataViewLoweringReducerENS2_22MachineLoweringReducerENS2_26FastApiCallLoweringReducerENS2_15VariableReducerENS2_21SelectLoweringReducerES3_S5_S7_EEEEEEEEEEEEEE20ReduceWithTruncationENS2_1VINS2_13UntaggedUnionIJNS2_12WordWithBitsILm32EEENST_ILm64EEEEEEEEmNS2_18WordRepresentationE = private unnamed_addr constant [8 x i32] [i32 32, i32 64, i32 32, i32 64, i32 8, i32 8, i32 128, i32 256], comdat($_ZN2v88internal8compiler10turboshaft26MachineOptimizationReducerINS2_21EmitProjectionReducerINS2_21ValueNumberingReducerINS2_18GenericReducerBaseINS2_13TSReducerBaseINS2_11StackBottomINS_4base3tmp5list1IJNS2_12GraphVisitorENS2_27StringEscapeAnalysisReducerENS2_24JSGenericLoweringReducerENS2_23DataViewLoweringReducerENS2_22MachineLoweringReducerENS2_26FastApiCallLoweringReducerENS2_15VariableReducerENS2_21SelectLoweringReducerES3_S5_S7_EEEEEEEEEEEEEE20ReduceWithTruncationENS2_1VINS2_13UntaggedUnionIJNS2_12WordWithBitsILm32EEENST_ILm64EEEEEEEEmNS2_18WordRepresentationE), align 4
@switch.table._ZN2v88internal8compiler10turboshaft26FastApiCallLoweringReducerINS2_15VariableReducerINS2_21SelectLoweringReducerINS2_26MachineOptimizationReducerINS2_21EmitProjectionReducerINS2_21ValueNumberingReducerINS2_18GenericReducerBaseINS2_13TSReducerBaseINS2_11StackBottomINS_4base3tmp5list1IJNS2_12GraphVisitorENS2_27StringEscapeAnalysisReducerENS2_24JSGenericLoweringReducerENS2_23DataViewLoweringReducerENS2_22MachineLoweringReducerES3_S4_S5_S6_S8_SA_EEEEEEEEEEEEEEEEEEEE17ReduceFastApiCallENS2_1VINS2_10FrameStateEEENSU_INS0_6ObjectEEENSU_INS0_7ContextEEENSC_6VectorIKNS2_7OpIndexEEEPKNS2_21FastApiCallParametersENS11_IKNS2_22RegisterRepresentationEEE = private unnamed_addr constant [14 x i16] [i16 2569, i16 257, i16 770, i16 516, i16 772, i16 1029, i16 1285, i16 2065, i16 2066, i16 5, i16 2569, i16 2569, i16 2569, i16 1029], comdat($_ZN2v88internal8compiler10turboshaft26FastApiCallLoweringReducerINS2_15VariableReducerINS2_21SelectLoweringReducerINS2_26MachineOptimizationReducerINS2_21EmitProjectionReducerINS2_21ValueNumberingReducerINS2_18GenericReducerBaseINS2_13TSReducerBaseINS2_11StackBottomINS_4base3tmp5list1IJNS2_12GraphVisitorENS2_27StringEscapeAnalysisReducerENS2_24JSGenericLoweringReducerENS2_23DataViewLoweringReducerENS2_22MachineLoweringReducerES3_S4_S5_S6_S8_SA_EEEEEEEEEEEEEEEEEEEE17ReduceFastApiCallENS2_1VINS2_10FrameStateEEENSU_INS0_6ObjectEEENSU_INS0_7ContextEEENSC_6VectorIKNS2_7OpIndexEEEPKNS2_21FastApiCallParametersENS11_IKNS2_22RegisterRepresentationEEE), align 2
@switch.table._ZN2v88internal8compiler10turboshaft13TSReducerBaseINS2_11StackBottomINS_4base3tmp5list1IJNS2_12GraphVisitorENS2_27StringEscapeAnalysisReducerENS2_24JSGenericLoweringReducerENS2_23DataViewLoweringReducerENS2_22MachineLoweringReducerENS2_26FastApiCallLoweringReducerENS2_15VariableReducerENS2_21SelectLoweringReducerENS2_26MachineOptimizationReducerENS2_21ValueNumberingReducerES3_EEEEEE4EmitINS2_10ConstantOpEJNSM_4KindENS0_17ExternalReferenceEEEENS2_7OpIndexEDpT0_ = private unnamed_addr constant [15 x i8] c"\00\01\02\03\04\04\01\01\04\05\01\01\01\00\00", comdat($_ZN2v88internal8compiler10turboshaft13TSReducerBaseINS2_11StackBottomINS_4base3tmp5list1IJNS2_12GraphVisitorENS2_27StringEscapeAnalysisReducerENS2_24JSGenericLoweringReducerENS2_23DataViewLoweringReducerENS2_22MachineLoweringReducerENS2_26FastApiCallLoweringReducerENS2_15VariableReducerENS2_21SelectLoweringReducerENS2_26MachineOptimizationReducerENS2_21ValueNumberingReducerES3_EEEEEE4EmitINS2_10ConstantOpEJNSM_4KindENS0_17ExternalReferenceEEEENS2_7OpIndexEDpT0_), align 1
@switch.table._ZN2v88internal8compiler10turboshaft26FastApiCallLoweringReducerINS2_15VariableReducerINS2_21SelectLoweringReducerINS2_26MachineOptimizationReducerINS2_21EmitProjectionReducerINS2_21ValueNumberingReducerINS2_18GenericReducerBaseINS2_13TSReducerBaseINS2_11StackBottomINS_4base3tmp5list1IJNS2_12GraphVisitorENS2_27StringEscapeAnalysisReducerENS2_24JSGenericLoweringReducerENS2_23DataViewLoweringReducerENS2_22MachineLoweringReducerES3_S4_S5_S6_S8_SA_EEEEEEEEEEEEEEEEEEEE21ClampFastCallArgumentENS2_1VINS2_13FloatWithBitsILm64EEEEENS_9CTypeInfo4TypeE = private unnamed_addr constant [4 x i64] [i64 4746794007244308480, i64 4751297606873776128, i64 4845873199050653695, i64 4845873199050653695], comdat($_ZN2v88internal8compiler10turboshaft26FastApiCallLoweringReducerINS2_15VariableReducerINS2_21SelectLoweringReducerINS2_26MachineOptimizationReducerINS2_21EmitProjectionReducerINS2_21ValueNumberingReducerINS2_18GenericReducerBaseINS2_13TSReducerBaseINS2_11StackBottomINS_4base3tmp5list1IJNS2_12GraphVisitorENS2_27StringEscapeAnalysisReducerENS2_24JSGenericLoweringReducerENS2_23DataViewLoweringReducerENS2_22MachineLoweringReducerES3_S4_S5_S6_S8_SA_EEEEEEEEEEEEEEEEEEEE21ClampFastCallArgumentENS2_1VINS2_13FloatWithBitsILm64EEEEENS_9CTypeInfo4TypeE), align 8
@switch.table._ZN2v88internal8compiler10turboshaft26FastApiCallLoweringReducerINS2_15VariableReducerINS2_21SelectLoweringReducerINS2_26MachineOptimizationReducerINS2_21EmitProjectionReducerINS2_21ValueNumberingReducerINS2_18GenericReducerBaseINS2_13TSReducerBaseINS2_11StackBottomINS_4base3tmp5list1IJNS2_12GraphVisitorENS2_27StringEscapeAnalysisReducerENS2_24JSGenericLoweringReducerENS2_23DataViewLoweringReducerENS2_22MachineLoweringReducerES3_S4_S5_S6_S8_SA_EEEEEEEEEEEEEEEEEEEE21ClampFastCallArgumentENS2_1VINS2_13FloatWithBitsILm64EEEEENS_9CTypeInfo4TypeE.3 = private unnamed_addr constant [4 x i64] [i64 -4476578029606273024, i64 0, i64 -4377498837804122113, i64 0], comdat($_ZN2v88internal8compiler10turboshaft26FastApiCallLoweringReducerINS2_15VariableReducerINS2_21SelectLoweringReducerINS2_26MachineOptimizationReducerINS2_21EmitProjectionReducerINS2_21ValueNumberingReducerINS2_18GenericReducerBaseINS2_13TSReducerBaseINS2_11StackBottomINS_4base3tmp5list1IJNS2_12GraphVisitorENS2_27StringEscapeAnalysisReducerENS2_24JSGenericLoweringReducerENS2_23DataViewLoweringReducerENS2_22MachineLoweringReducerES3_S4_S5_S6_S8_SA_EEEEEEEEEEEEEEEEEEEE21ClampFastCallArgumentENS2_1VINS2_13FloatWithBitsILm64EEEEENS_9CTypeInfo4TypeE), align 8
@switch.table._ZN2v88internal8compiler10turboshaft20OutputGraphAssemblerINS2_12GraphVisitorINS2_27StringEscapeAnalysisReducerINS2_24JSGenericLoweringReducerINS2_23DataViewLoweringReducerINS2_22MachineLoweringReducerINS2_26FastApiCallLoweringReducerINS2_15VariableReducerINS2_21SelectLoweringReducerINS2_26MachineOptimizationReducerINS2_21EmitProjectionReducerINS2_21ValueNumberingReducerINS2_18GenericReducerBaseINS2_13TSReducerBaseINS2_11StackBottomINS_4base3tmp5list1IJS4_S5_S6_S7_S8_S9_SA_SB_SC_SE_SG_EEEEEEEEEEEEEEEEEEEEEEEEEEEEEEENSA_ISY_EEE35AssembleOutputGraphAtomicWord32PairERKNS2_18AtomicWord32PairOpE = private unnamed_addr constant [9 x i64] [i64 4, i64 4, i64 4, i64 4, i64 4, i64 4, i64 6, i64 2, i64 4], comdat($_ZN2v88internal8compiler10turboshaft20OutputGraphAssemblerINS2_12GraphVisitorINS2_27StringEscapeAnalysisReducerINS2_24JSGenericLoweringReducerINS2_23DataViewLoweringReducerINS2_22MachineLoweringReducerINS2_26FastApiCallLoweringReducerINS2_15VariableReducerINS2_21SelectLoweringReducerINS2_26MachineOptimizationReducerINS2_21EmitProjectionReducerINS2_21ValueNumberingReducerINS2_18GenericReducerBaseINS2_13TSReducerBaseINS2_11StackBottomINS_4base3tmp5list1IJS4_S5_S6_S7_S8_S9_SA_SB_SC_SE_SG_EEEEEEEEEEEEEEEEEEEEEEEEEEEEEEENSA_ISY_EEE35AssembleOutputGraphAtomicWord32PairERKNS2_18AtomicWord32PairOpE), align 8
@switch.table._ZN2v88internal8compiler10turboshaft30TurboshaftAssemblerOpInterfaceINS2_9AssemblerINS_4base3tmp5list1IJNS2_12GraphVisitorENS2_27StringEscapeAnalysisReducerENS2_24JSGenericLoweringReducerENS2_23DataViewLoweringReducerENS2_22MachineLoweringReducerENS2_26FastApiCallLoweringReducerENS2_15VariableReducerENS2_21SelectLoweringReducerENS2_26MachineOptimizationReducerENS2_21ValueNumberingReducerENS2_13TSReducerBaseEEEEEEE12StoreElementINS0_16SeqTwoByteStringEEEvNS2_1VIT_EERKNS1_13ElementAccessENS2_8ConstOrVINS2_12WordWithBitsILm64EEEmEENSO_INS2_3AnyEEEb = private unnamed_addr constant [22 x i8] c"\00\00\01\01\02\02\03\03\01\02\03\03\03\03\03\03\03\03\02\03\04\05", comdat($_ZN2v88internal8compiler10turboshaft30TurboshaftAssemblerOpInterfaceINS2_9AssemblerINS_4base3tmp5list1IJNS2_12GraphVisitorENS2_27StringEscapeAnalysisReducerENS2_24JSGenericLoweringReducerENS2_23DataViewLoweringReducerENS2_22MachineLoweringReducerENS2_26FastApiCallLoweringReducerENS2_15VariableReducerENS2_21SelectLoweringReducerENS2_26MachineOptimizationReducerENS2_21ValueNumberingReducerENS2_13TSReducerBaseEEEEEEE12StoreElementINS0_16SeqTwoByteStringEEEvNS2_1VIT_EERKNS1_13ElementAccessENS2_8ConstOrVINS2_12WordWithBitsILm64EEEmEENSO_INS2_3AnyEEEb), align 1
@switch.table._ZN2v88internal8compiler10turboshaft23DataViewLoweringReducerINS2_22MachineLoweringReducerINS2_26FastApiCallLoweringReducerINS2_15VariableReducerINS2_21SelectLoweringReducerINS2_26MachineOptimizationReducerINS2_21EmitProjectionReducerINS2_21ValueNumberingReducerINS2_18GenericReducerBaseINS2_13TSReducerBaseINS2_11StackBottomINS_4base3tmp5list1IJNS2_12GraphVisitorENS2_27StringEscapeAnalysisReducerENS2_24JSGenericLoweringReducerES3_S4_S5_S6_S7_S8_SA_SC_EEEEEEEEEEEEEEEEEEEEEEEE25ReduceLoadDataViewElementENS2_1VINS0_6ObjectEEENSW_INS2_12WordWithBitsILm64EEEEES11_NSW_INSZ_ILm32EEEEENS0_17ExternalArrayTypeE = private unnamed_addr constant [22 x i8] c"\00\00\00\00\00\00\01\01\02\02\03\04\04\04\04\04\04\04\04\01\06\07", comdat($_ZN2v88internal8compiler10turboshaft23DataViewLoweringReducerINS2_22MachineLoweringReducerINS2_26FastApiCallLoweringReducerINS2_15VariableReducerINS2_21SelectLoweringReducerINS2_26MachineOptimizationReducerINS2_21EmitProjectionReducerINS2_21ValueNumberingReducerINS2_18GenericReducerBaseINS2_13TSReducerBaseINS2_11StackBottomINS_4base3tmp5list1IJNS2_12GraphVisitorENS2_27StringEscapeAnalysisReducerENS2_24JSGenericLoweringReducerES3_S4_S5_S6_S7_S8_SA_SC_EEEEEEEEEEEEEEEEEEEEEEEE25ReduceLoadDataViewElementENS2_1VINS0_6ObjectEEENSW_INS2_12WordWithBitsILm64EEEEES11_NSW_INSZ_ILm32EEEEENS0_17ExternalArrayTypeE), align 1
@switch.table._ZN2v88internal8compiler10turboshaft23DataViewLoweringReducerINS2_22MachineLoweringReducerINS2_26FastApiCallLoweringReducerINS2_15VariableReducerINS2_21SelectLoweringReducerINS2_26MachineOptimizationReducerINS2_21EmitProjectionReducerINS2_21ValueNumberingReducerINS2_18GenericReducerBaseINS2_13TSReducerBaseINS2_11StackBottomINS_4base3tmp5list1IJNS2_12GraphVisitorENS2_27StringEscapeAnalysisReducerENS2_24JSGenericLoweringReducerES3_S4_S5_S6_S7_S8_SA_SC_EEEEEEEEEEEEEEEEEEEEEEEE25ReduceLoadDataViewElementENS2_1VINS0_6ObjectEEENSW_INS2_12WordWithBitsILm64EEEEES11_NSW_INSZ_ILm32EEEEENS0_17ExternalArrayTypeE.4 = private unnamed_addr constant [12 x i64] [i64 256, i64 256, i64 256, i64 256, i64 256, i64 256, i64 256, i64 258, i64 259, i64 256, i64 257, i64 257], comdat($_ZN2v88internal8compiler10turboshaft23DataViewLoweringReducerINS2_22MachineLoweringReducerINS2_26FastApiCallLoweringReducerINS2_15VariableReducerINS2_21SelectLoweringReducerINS2_26MachineOptimizationReducerINS2_21EmitProjectionReducerINS2_21ValueNumberingReducerINS2_18GenericReducerBaseINS2_13TSReducerBaseINS2_11StackBottomINS_4base3tmp5list1IJNS2_12GraphVisitorENS2_27StringEscapeAnalysisReducerENS2_24JSGenericLoweringReducerES3_S4_S5_S6_S7_S8_SA_SC_EEEEEEEEEEEEEEEEEEEEEEEE25ReduceLoadDataViewElementENS2_1VINS0_6ObjectEEENSW_INS2_12WordWithBitsILm64EEEEES11_NSW_INSZ_ILm32EEEEENS0_17ExternalArrayTypeE), align 8
@switch.table._ZN2v88internal8compiler10turboshaft23DataViewLoweringReducerINS2_22MachineLoweringReducerINS2_26FastApiCallLoweringReducerINS2_15VariableReducerINS2_21SelectLoweringReducerINS2_26MachineOptimizationReducerINS2_21EmitProjectionReducerINS2_21ValueNumberingReducerINS2_18GenericReducerBaseINS2_13TSReducerBaseINS2_11StackBottomINS_4base3tmp5list1IJNS2_12GraphVisitorENS2_27StringEscapeAnalysisReducerENS2_24JSGenericLoweringReducerES3_S4_S5_S6_S7_S8_SA_SC_EEEEEEEEEEEEEEEEEEEEEEEE26ReduceStoreDataViewElementENS2_1VINS0_6ObjectEEENSW_INS2_12WordWithBitsILm64EEEEES11_NS2_7OpIndexENSW_INSZ_ILm32EEEEENS0_17ExternalArrayTypeE = private unnamed_addr constant [12 x i64] [i64 256, i64 256, i64 256, i64 256, i64 256, i64 256, i64 256, i64 258, i64 259, i64 256, i64 257, i64 257], comdat($_ZN2v88internal8compiler10turboshaft23DataViewLoweringReducerINS2_22MachineLoweringReducerINS2_26FastApiCallLoweringReducerINS2_15VariableReducerINS2_21SelectLoweringReducerINS2_26MachineOptimizationReducerINS2_21EmitProjectionReducerINS2_21ValueNumberingReducerINS2_18GenericReducerBaseINS2_13TSReducerBaseINS2_11StackBottomINS_4base3tmp5list1IJNS2_12GraphVisitorENS2_27StringEscapeAnalysisReducerENS2_24JSGenericLoweringReducerES3_S4_S5_S6_S7_S8_SA_SC_EEEEEEEEEEEEEEEEEEEEEEEE26ReduceStoreDataViewElementENS2_1VINS0_6ObjectEEENSW_INS2_12WordWithBitsILm64EEEEES11_NS2_7OpIndexENSW_INSZ_ILm32EEEEENS0_17ExternalArrayTypeE), align 8
@switch.table._ZN2v88internal8compiler10turboshaft30TurboshaftAssemblerOpInterfaceINS2_9AssemblerINS_4base3tmp5list1IJNS2_12GraphVisitorENS2_27StringEscapeAnalysisReducerENS2_24JSGenericLoweringReducerENS2_23DataViewLoweringReducerENS2_22MachineLoweringReducerENS2_26FastApiCallLoweringReducerENS2_15VariableReducerENS2_21SelectLoweringReducerENS2_26MachineOptimizationReducerENS2_21ValueNumberingReducerENS2_13TSReducerBaseEEEEEEE12StoreElementINS2_12WordWithBitsILm64EEEEEvNS2_1VIT_EERKNS1_13ElementAccessENS2_8ConstOrVISO_mEENSP_INS2_3AnyEEEb = private unnamed_addr constant [22 x i8] c"\00\00\01\01\02\02\03\03\01\02\03\03\03\03\03\03\03\03\02\03\04\05", comdat($_ZN2v88internal8compiler10turboshaft30TurboshaftAssemblerOpInterfaceINS2_9AssemblerINS_4base3tmp5list1IJNS2_12GraphVisitorENS2_27StringEscapeAnalysisReducerENS2_24JSGenericLoweringReducerENS2_23DataViewLoweringReducerENS2_22MachineLoweringReducerENS2_26FastApiCallLoweringReducerENS2_15VariableReducerENS2_21SelectLoweringReducerENS2_26MachineOptimizationReducerENS2_21ValueNumberingReducerENS2_13TSReducerBaseEEEEEEE12StoreElementINS2_12WordWithBitsILm64EEEEEvNS2_1VIT_EERKNS1_13ElementAccessENS2_8ConstOrVISO_mEENSP_INS2_3AnyEEEb), align 1
@switch.table._ZN2v88internal8compiler10turboshaft30TurboshaftAssemblerOpInterfaceINS2_9AssemblerINS_4base3tmp5list1IJNS2_12GraphVisitorENS2_27StringEscapeAnalysisReducerENS2_24JSGenericLoweringReducerENS2_23DataViewLoweringReducerENS2_22MachineLoweringReducerENS2_26FastApiCallLoweringReducerENS2_15VariableReducerENS2_21SelectLoweringReducerENS2_26MachineOptimizationReducerENS2_21ValueNumberingReducerENS2_13TSReducerBaseEEEEEEE12StoreElementINS0_5UnionIJNS0_10FixedArrayENS0_16FixedDoubleArrayEEEEEEvNS2_1VIT_EERKNS1_13ElementAccessENS2_8ConstOrVINS2_12WordWithBitsILm64EEEmEENSR_INS2_3AnyEEEb = private unnamed_addr constant [22 x i8] c"\00\00\01\01\02\02\03\03\01\02\03\03\03\03\03\03\03\03\02\03\04\05", comdat($_ZN2v88internal8compiler10turboshaft30TurboshaftAssemblerOpInterfaceINS2_9AssemblerINS_4base3tmp5list1IJNS2_12GraphVisitorENS2_27StringEscapeAnalysisReducerENS2_24JSGenericLoweringReducerENS2_23DataViewLoweringReducerENS2_22MachineLoweringReducerENS2_26FastApiCallLoweringReducerENS2_15VariableReducerENS2_21SelectLoweringReducerENS2_26MachineOptimizationReducerENS2_21ValueNumberingReducerENS2_13TSReducerBaseEEEEEEE12StoreElementINS0_5UnionIJNS0_10FixedArrayENS0_16FixedDoubleArrayEEEEEEvNS2_1VIT_EERKNS1_13ElementAccessENS2_8ConstOrVINS2_12WordWithBitsILm64EEEmEENSR_INS2_3AnyEEEb), align 1
@switch.table._ZN2v88internal8compiler10turboshaft30TurboshaftAssemblerOpInterfaceINS2_9AssemblerINS_4base3tmp5list1IJNS2_12GraphVisitorENS2_27StringEscapeAnalysisReducerENS2_24JSGenericLoweringReducerENS2_23DataViewLoweringReducerENS2_22MachineLoweringReducerENS2_26FastApiCallLoweringReducerENS2_15VariableReducerENS2_21SelectLoweringReducerENS2_26MachineOptimizationReducerENS2_21ValueNumberingReducerENS2_13TSReducerBaseEEEEEEE12StoreElementINS0_6ObjectEEEvNS2_1VIT_EERKNS1_13ElementAccessENS2_8ConstOrVINS2_12WordWithBitsILm64EEEmEENSO_INS2_3AnyEEEb = private unnamed_addr constant [22 x i8] c"\00\00\01\01\02\02\03\03\01\02\03\03\03\03\03\03\03\03\02\03\04\05", comdat($_ZN2v88internal8compiler10turboshaft30TurboshaftAssemblerOpInterfaceINS2_9AssemblerINS_4base3tmp5list1IJNS2_12GraphVisitorENS2_27StringEscapeAnalysisReducerENS2_24JSGenericLoweringReducerENS2_23DataViewLoweringReducerENS2_22MachineLoweringReducerENS2_26FastApiCallLoweringReducerENS2_15VariableReducerENS2_21SelectLoweringReducerENS2_26MachineOptimizationReducerENS2_21ValueNumberingReducerENS2_13TSReducerBaseEEEEEEE12StoreElementINS0_6ObjectEEEvNS2_1VIT_EERKNS1_13ElementAccessENS2_8ConstOrVINS2_12WordWithBitsILm64EEEmEENSO_INS2_3AnyEEEb), align 1
@switch.table._ZNK2v88internal8compiler10turboshaft21LoadDataViewElementOp11outputs_repEv = private unnamed_addr constant [12 x i64] [i64 0, i64 0, i64 0, i64 0, i64 0, i64 0, i64 0, i64 2, i64 3, i64 0, i64 1, i64 1], comdat($_ZNK2v88internal8compiler10turboshaft21LoadDataViewElementOp11outputs_repEv), align 8
@switch.table._ZNK2v88internal8compiler10turboshaft18LoadTypedElementOp11outputs_repEv = private unnamed_addr constant [12 x i64] [i64 0, i64 0, i64 0, i64 0, i64 0, i64 0, i64 0, i64 2, i64 3, i64 0, i64 1, i64 1], comdat($_ZNK2v88internal8compiler10turboshaft18LoadTypedElementOp11outputs_repEv), align 8

; Function Attrs: mustprogress nounwind uwtable
define hidden void @_ZN2v88internal8compiler10turboshaft20MachineLoweringPhase3RunEPNS2_12PipelineDataEPNS0_4ZoneE(ptr noundef nonnull readnone align 1 captures(none) dereferenceable(1) %0, ptr noundef %1, ptr noundef %2) local_unnamed_addr #0 align 2 {
end_hunk_0
begin_hunk_1_@_ZN2v88internal8compiler10turboshaft13TSReducerBaseINS2_11StackBottomINS_4base3tmp5list1IJNS2_12GraphVisitorENS2_27StringEscapeAnalysisReducerENS2_24JSGenericLoweringReducerENS2_23DataViewLoweringReducerENS2_22MachineLoweringReducerENS2_26FastApiCallLoweringReducerENS2_15VariableReducerENS2_21SelectLoweringReducerENS2_26MachineOptimizationReducerENS2_21ValueNumberingReducerES3_EEEEEE4EmitINS2_10ConstantOpEJNSM_4KindENSM_7StorageEEEENS2_7OpIndexEDpT0_:bb.a
  %i.ai = getelementptr inbounds nuw i8, ptr %i.s, i64 4
  store i8 %1, ptr %i.ai, align 4
  %i.aj = zext nneg i8 %1 to i64
  %switch.gep = getelementptr inbounds nuw i8, ptr @switch.table._ZN2v88internal8compiler10turboshaft13TSReducerBaseINS2_11StackBottomINS_4base3tmp5list1IJNS2_12GraphVisitorENS2_27StringEscapeAnalysisReducerENS2_24JSGenericLoweringReducerENS2_23DataViewLoweringReducerENS2_22MachineLoweringReducerENS2_26FastApiCallLoweringReducerENS2_15VariableReducerENS2_21SelectLoweringReducerENS2_26MachineOptimizationReducerENS2_21ValueNumberingReducerES3_EEEEEE4EmitINS2_10ConstantOpEJNSM_4KindENSM_7StorageEEEENS2_7OpIndexEDpT0_, i64 %i.aj
  %switch.load = load i8, ptr %switch.gep, align 1
  %i.ak = getelementptr inbounds nuw i8, ptr %i.s, i64 5
  store i8 %switch.load, ptr %i.ak, align 1
end_hunk_1
begin_hunk_2_@_ZN2v88internal8compiler10turboshaft13TSReducerBaseINS2_11StackBottomINS_4base3tmp5list1IJNS2_12GraphVisitorENS2_27StringEscapeAnalysisReducerENS2_24JSGenericLoweringReducerENS2_23DataViewLoweringReducerENS2_22MachineLoweringReducerENS2_26FastApiCallLoweringReducerENS2_15VariableReducerENS2_21SelectLoweringReducerENS2_26MachineOptimizationReducerENS2_21ValueNumberingReducerES3_EEEEEE4EmitINS2_10ConstantOpEJNSM_4KindEmEEENS2_7OpIndexEDpT0_:bb.a
  %i.ai = getelementptr inbounds nuw i8, ptr %i.s, i64 4
  store i8 %1, ptr %i.ai, align 4
  %i.aj = zext nneg i8 %1 to i64
  %switch.gep = getelementptr inbounds nuw i8, ptr @switch.table._ZN2v88internal8compiler10turboshaft13TSReducerBaseINS2_11StackBottomINS_4base3tmp5list1IJNS2_12GraphVisitorENS2_27StringEscapeAnalysisReducerENS2_24JSGenericLoweringReducerENS2_23DataViewLoweringReducerENS2_22MachineLoweringReducerENS2_26FastApiCallLoweringReducerENS2_15VariableReducerENS2_21SelectLoweringReducerENS2_26MachineOptimizationReducerENS2_21ValueNumberingReducerES3_EEEEEE4EmitINS2_10ConstantOpEJNSM_4KindEmEEENS2_7OpIndexEDpT0_, i64 %i.aj
  %switch.load = load i8, ptr %switch.gep, align 1
  %i.ak = getelementptr inbounds nuw i8, ptr %i.s, i64 5
  store i8 %switch.load, ptr %i.ak, align 1
end_hunk_2
begin_hunk_3_@_ZN2v88internal8compiler10turboshaft13TSReducerBaseINS2_11StackBottomINS_4base3tmp5list1IJNS2_12GraphVisitorENS2_27StringEscapeAnalysisReducerENS2_24JSGenericLoweringReducerENS2_23DataViewLoweringReducerENS2_22MachineLoweringReducerENS2_26FastApiCallLoweringReducerENS2_15VariableReducerENS2_21SelectLoweringReducerENS2_26MachineOptimizationReducerENS2_21ValueNumberingReducerES3_EEEEEE4EmitINS2_10ConstantOpEJNSM_4KindENS0_7Float32EEEENS2_7OpIndexEDpT0_:bb.a
  %i.ai = getelementptr inbounds nuw i8, ptr %i.s, i64 4
  store i8 %1, ptr %i.ai, align 4
  %i.aj = zext nneg i8 %1 to i64
  %switch.gep = getelementptr inbounds nuw i8, ptr @switch.table._ZN2v88internal8compiler10turboshaft13TSReducerBaseINS2_11StackBottomINS_4base3tmp5list1IJNS2_12GraphVisitorENS2_27StringEscapeAnalysisReducerENS2_24JSGenericLoweringReducerENS2_23DataViewLoweringReducerENS2_22MachineLoweringReducerENS2_26FastApiCallLoweringReducerENS2_15VariableReducerENS2_21SelectLoweringReducerENS2_26MachineOptimizationReducerENS2_21ValueNumberingReducerES3_EEEEEE4EmitINS2_10ConstantOpEJNSM_4KindENS0_7Float32EEEENS2_7OpIndexEDpT0_, i64 %i.aj
  %switch.load = load i8, ptr %switch.gep, align 1
  %.sroa.0.0.insert.ext.i.i = zext i32 %2 to i64
  %i.ak = getelementptr inbounds nuw i8, ptr %i.s, i64 5
end_hunk_3
begin_hunk_4_@_ZN2v88internal8compiler10turboshaft13TSReducerBaseINS2_11StackBottomINS_4base3tmp5list1IJNS2_12GraphVisitorENS2_27StringEscapeAnalysisReducerENS2_24JSGenericLoweringReducerENS2_23DataViewLoweringReducerENS2_22MachineLoweringReducerENS2_26FastApiCallLoweringReducerENS2_15VariableReducerENS2_21SelectLoweringReducerENS2_26MachineOptimizationReducerENS2_21ValueNumberingReducerES3_EEEEEE4EmitINS2_10ConstantOpEJNSM_4KindENS0_7Float64EEEENS2_7OpIndexEDpT0_:bb.a
  %i.ai = getelementptr inbounds nuw i8, ptr %i.s, i64 4
  store i8 %1, ptr %i.ai, align 4
  %i.aj = zext nneg i8 %1 to i64
  %switch.gep = getelementptr inbounds nuw i8, ptr @switch.table._ZN2v88internal8compiler10turboshaft13TSReducerBaseINS2_11StackBottomINS_4base3tmp5list1IJNS2_12GraphVisitorENS2_27StringEscapeAnalysisReducerENS2_24JSGenericLoweringReducerENS2_23DataViewLoweringReducerENS2_22MachineLoweringReducerENS2_26FastApiCallLoweringReducerENS2_15VariableReducerENS2_21SelectLoweringReducerENS2_26MachineOptimizationReducerENS2_21ValueNumberingReducerES3_EEEEEE4EmitINS2_10ConstantOpEJNSM_4KindENS0_7Float64EEEENS2_7OpIndexEDpT0_, i64 %i.aj
  %switch.load = load i8, ptr %switch.gep, align 1
  %i.ak = getelementptr inbounds nuw i8, ptr %i.s, i64 5
  store i8 %switch.load, ptr %i.ak, align 1
end_hunk_4
begin_hunk_5_@_ZN2v88internal8compiler10turboshaft26MachineOptimizationReducerINS2_21EmitProjectionReducerINS2_21ValueNumberingReducerINS2_18GenericReducerBaseINS2_13TSReducerBaseINS2_11StackBottomINS_4base3tmp5list1IJNS2_12GraphVisitorENS2_27StringEscapeAnalysisReducerENS2_24JSGenericLoweringReducerENS2_23DataViewLoweringReducerENS2_22MachineLoweringReducerENS2_26FastApiCallLoweringReducerENS2_15VariableReducerENS2_21SelectLoweringReducerES3_S5_S7_EEEEEEEEEEEEEE11ReduceShiftENS2_1VINS2_13UntaggedUnionIJNS2_12WordWithBitsILm32EEENST_ILm64EEEEEEEENSR_ISU_EENS2_7ShiftOp4KindENS2_18WordRepresentationE:bb.a
  %i.di = load i64, ptr %i.dh, align 8
  %i.dj = trunc i64 %i.di to i32                  ; 7 uses
  %i.dk = zext nneg i8 %4 to i64
  %switch.gep = getelementptr inbounds nuw [4 x i8], ptr @switch.table._ZN2v88internal8compiler10turboshaft26MachineOptimizationReducerINS2_21EmitProjectionReducerINS2_21ValueNumberingReducerINS2_18GenericReducerBaseINS2_13TSReducerBaseINS2_11StackBottomINS_4base3tmp5list1IJNS2_12GraphVisitorENS2_27StringEscapeAnalysisReducerENS2_24JSGenericLoweringReducerENS2_23DataViewLoweringReducerENS2_22MachineLoweringReducerENS2_26FastApiCallLoweringReducerENS2_15VariableReducerENS2_21SelectLoweringReducerES3_S5_S7_EEEEEEEEEEEEEE11ReduceShiftENS2_1VINS2_13UntaggedUnionIJNS2_12WordWithBitsILm32EEENST_ILm64EEEEEEEENSR_ISU_EENS2_7ShiftOp4KindENS2_18WordRepresentationE, i64 %i.dk
  %switch.load = load i32, ptr %switch.gep, align 4
  %i.dl = icmp ugt i32 %switch.load, %i.dj
  br i1 %i.dl, label %bb.az, label %_ZNK2v88internal8compiler10turboshaft16OperationMatcher18MatchConstantShiftINS2_13UntaggedUnionIJNS2_12WordWithBitsILm32EEENS6_ILm64EEEEEEQcl6IsWordIT_EEEEbNS2_1VINS2_3AnyEEEPNSB_ISA_EENS2_7ShiftOp4KindENS2_18WordRepresentationEPi.exit.thread
end_hunk_5
begin_hunk_6_@_ZN2v88internal8compiler10turboshaft26MachineOptimizationReducerINS2_21EmitProjectionReducerINS2_21ValueNumberingReducerINS2_18GenericReducerBaseINS2_13TSReducerBaseINS2_11StackBottomINS_4base3tmp5list1IJNS2_12GraphVisitorENS2_27StringEscapeAnalysisReducerENS2_24JSGenericLoweringReducerENS2_23DataViewLoweringReducerENS2_22MachineLoweringReducerENS2_26FastApiCallLoweringReducerENS2_15VariableReducerENS2_21SelectLoweringReducerES3_S5_S7_EEEEEEEEEEEEEE11ReduceShiftENS2_1VINS2_13UntaggedUnionIJNS2_12WordWithBitsILm32EEENST_ILm64EEEEEEEENSR_ISU_EENS2_7ShiftOp4KindENS2_18WordRepresentationE:bb.a
  %i.fd = load i64, ptr %i.fc, align 8
  %i.fe = trunc i64 %i.fd to i32                  ; 2 uses
  %i.ff = zext nneg i8 %4 to i64
  %switch.gep269 = getelementptr inbounds nuw [4 x i8], ptr @switch.table._ZN2v88internal8compiler10turboshaft26MachineOptimizationReducerINS2_21EmitProjectionReducerINS2_21ValueNumberingReducerINS2_18GenericReducerBaseINS2_13TSReducerBaseINS2_11StackBottomINS_4base3tmp5list1IJNS2_12GraphVisitorENS2_27StringEscapeAnalysisReducerENS2_24JSGenericLoweringReducerENS2_23DataViewLoweringReducerENS2_22MachineLoweringReducerENS2_26FastApiCallLoweringReducerENS2_15VariableReducerENS2_21SelectLoweringReducerES3_S5_S7_EEEEEEEEEEEEEE11ReduceShiftENS2_1VINS2_13UntaggedUnionIJNS2_12WordWithBitsILm32EEENST_ILm64EEEEEEEENSR_ISU_EENS2_7ShiftOp4KindENS2_18WordRepresentationE, i64 %i.ff
  %switch.load270 = load i32, ptr %switch.gep269, align 4
  %i.fg = icmp ugt i32 %switch.load270, %i.fe
  br i1 %i.fg, label %bb.bm, label %_ZNK2v88internal8compiler10turboshaft16OperationMatcher18MatchConstantShiftINS2_13UntaggedUnionIJNS2_12WordWithBitsILm32EEENS6_ILm64EEEEEEQcl6IsWordIT_EEEEbNS2_1VINS2_3AnyEEEPNSB_ISA_EENS2_7ShiftOp4KindENS2_18WordRepresentationEPi.exit130.thread
end_hunk_6
begin_hunk_7_@_ZN2v88internal8compiler10turboshaft13TSReducerBaseINS2_11StackBottomINS_4base3tmp5list1IJNS2_12GraphVisitorENS2_27StringEscapeAnalysisReducerENS2_24JSGenericLoweringReducerENS2_23DataViewLoweringReducerENS2_22MachineLoweringReducerENS2_26FastApiCallLoweringReducerENS2_15VariableReducerENS2_21SelectLoweringReducerENS2_26MachineOptimizationReducerENS2_21ValueNumberingReducerES3_EEEEEE4EmitINS2_10ConstantOpEJNSM_4KindENS0_6TaggedINS0_3SmiEEEEEENS2_7OpIndexEDpT0_:bb.a
  %i.ai = getelementptr inbounds nuw i8, ptr %i.s, i64 4
  store i8 %1, ptr %i.ai, align 4
  %i.aj = zext nneg i8 %1 to i64
  %switch.gep = getelementptr inbounds nuw i8, ptr @switch.table._ZN2v88internal8compiler10turboshaft13TSReducerBaseINS2_11StackBottomINS_4base3tmp5list1IJNS2_12GraphVisitorENS2_27StringEscapeAnalysisReducerENS2_24JSGenericLoweringReducerENS2_23DataViewLoweringReducerENS2_22MachineLoweringReducerENS2_26FastApiCallLoweringReducerENS2_15VariableReducerENS2_21SelectLoweringReducerENS2_26MachineOptimizationReducerENS2_21ValueNumberingReducerES3_EEEEEE4EmitINS2_10ConstantOpEJNSM_4KindENS0_6TaggedINS0_3SmiEEEEEENS2_7OpIndexEDpT0_, i64 %i.aj
  %switch.load = load i8, ptr %switch.gep, align 1
  %i.ak = getelementptr inbounds nuw i8, ptr %i.s, i64 5
  store i8 %switch.load, ptr %i.ak, align 1
end_hunk_7
begin_hunk_8_@_ZN2v88internal8compiler10turboshaft26FastApiCallLoweringReducerINS2_15VariableReducerINS2_21SelectLoweringReducerINS2_26MachineOptimizationReducerINS2_21EmitProjectionReducerINS2_21ValueNumberingReducerINS2_18GenericReducerBaseINS2_13TSReducerBaseINS2_11StackBottomINS_4base3tmp5list1IJNS2_12GraphVisitorENS2_27StringEscapeAnalysisReducerENS2_24JSGenericLoweringReducerENS2_23DataViewLoweringReducerENS2_22MachineLoweringReducerES3_S4_S5_S6_S8_SA_EEEEEEEEEEEEEEEEEEEE17ReduceFastApiCallENS2_1VINS2_10FrameStateEEENSU_INS0_6ObjectEEENSU_INS0_7ContextEEENSC_6VectorIKNS2_7OpIndexEEEPKNS2_21FastApiCallParametersENS11_IKNS2_22RegisterRepresentationEEE:bb.a
  store ptr %i.em, ptr %i.eo, align 8
  %i.ep = load i8, ptr %i.e, align 1
  %i.eq = zext nneg i8 %i.ep to i64
  %switch.gep = getelementptr inbounds nuw [2 x i8], ptr @switch.table._ZN2v88internal8compiler10turboshaft26FastApiCallLoweringReducerINS2_15VariableReducerINS2_21SelectLoweringReducerINS2_26MachineOptimizationReducerINS2_21EmitProjectionReducerINS2_21ValueNumberingReducerINS2_18GenericReducerBaseINS2_13TSReducerBaseINS2_11StackBottomINS_4base3tmp5list1IJNS2_12GraphVisitorENS2_27StringEscapeAnalysisReducerENS2_24JSGenericLoweringReducerENS2_23DataViewLoweringReducerENS2_22MachineLoweringReducerES3_S4_S5_S6_S8_SA_EEEEEEEEEEEEEEEEEEEE17ReduceFastApiCallENS2_1VINS2_10FrameStateEEENSU_INS0_6ObjectEEENSU_INS0_7ContextEEENSC_6VectorIKNS2_7OpIndexEEEPKNS2_21FastApiCallParametersENS11_IKNS2_22RegisterRepresentationEEE, i64 %i.eq
  %switch.load = load i16, ptr %switch.gep, align 2
  store i16 %switch.load, ptr %i.em, align 8
  br i1 %i.cz, label %.lr.ph160, label %._crit_edge161
end_hunk_8
begin_hunk_9_@_ZN2v88internal8compiler10turboshaft26FastApiCallLoweringReducerINS2_15VariableReducerINS2_21SelectLoweringReducerINS2_26MachineOptimizationReducerINS2_21EmitProjectionReducerINS2_21ValueNumberingReducerINS2_18GenericReducerBaseINS2_13TSReducerBaseINS2_11StackBottomINS_4base3tmp5list1IJNS2_12GraphVisitorENS2_27StringEscapeAnalysisReducerENS2_24JSGenericLoweringReducerENS2_23DataViewLoweringReducerENS2_22MachineLoweringReducerES3_S4_S5_S6_S8_SA_EEEEEEEEEEEEEEEEEEEE17ReduceFastApiCallENS2_1VINS2_10FrameStateEEENSU_INS0_6ObjectEEENSU_INS0_7ContextEEENSC_6VectorIKNS2_7OpIndexEEEPKNS2_21FastApiCallParametersENS11_IKNS2_22RegisterRepresentationEEE:bb.a
  %i.fb = load i16, ptr %i.fa, align 1
  %i.fc = and i16 %i.fb, 255
  %i.fd = zext nneg i16 %i.fc to i64
  %switch.gep179 = getelementptr inbounds nuw [2 x i8], ptr @switch.table._ZN2v88internal8compiler10turboshaft26FastApiCallLoweringReducerINS2_15VariableReducerINS2_21SelectLoweringReducerINS2_26MachineOptimizationReducerINS2_21EmitProjectionReducerINS2_21ValueNumberingReducerINS2_18GenericReducerBaseINS2_13TSReducerBaseINS2_11StackBottomINS_4base3tmp5list1IJNS2_12GraphVisitorENS2_27StringEscapeAnalysisReducerENS2_24JSGenericLoweringReducerENS2_23DataViewLoweringReducerENS2_22MachineLoweringReducerES3_S4_S5_S6_S8_SA_EEEEEEEEEEEEEEEEEEEE17ReduceFastApiCallENS2_1VINS2_10FrameStateEEENSU_INS0_6ObjectEEENSU_INS0_7ContextEEENSC_6VectorIKNS2_7OpIndexEEEPKNS2_21FastApiCallParametersENS11_IKNS2_22RegisterRepresentationEEE, i64 %i.fd
  %switch.load180 = load i16, ptr %switch.gep179, align 2
  %i.fe = add nuw nsw i64 %.sroa.9.0158, 1        ; 2 uses
  %i.ff = getelementptr [2 x i8], ptr %i.er, i64 %.sroa.9.0158
end_hunk_9
begin_hunk_10_@_ZN2v88internal8compiler10turboshaft30TurboshaftAssemblerOpInterfaceINS2_9AssemblerINS_4base3tmp5list1IJNS2_12GraphVisitorENS2_27StringEscapeAnalysisReducerENS2_24JSGenericLoweringReducerENS2_23DataViewLoweringReducerENS2_22MachineLoweringReducerENS2_26FastApiCallLoweringReducerENS2_15VariableReducerENS2_21SelectLoweringReducerENS2_26MachineOptimizationReducerENS2_21ValueNumberingReducerENS2_13TSReducerBaseEEEEEEE12StoreElementINS0_16SeqTwoByteStringEEEvNS2_1VIT_EERKNS1_13ElementAccessENS2_8ConstOrVINS2_12WordWithBitsILm64EEEmEENSO_INS2_3AnyEEEb:bb.a

bb.u:                                             ; preds = %_ZN2v88internal8compiler10turboshaft30TurboshaftAssemblerOpInterfaceINS2_9AssemblerINS_4base3tmp5list1IJNS2_12GraphVisitorENS2_27StringEscapeAnalysisReducerENS2_24JSGenericLoweringReducerENS2_23DataViewLoweringReducerENS2_22MachineLoweringReducerENS2_26FastApiCallLoweringReducerENS2_15VariableReducerENS2_21SelectLoweringReducerENS2_26MachineOptimizationReducerENS2_21ValueNumberingReducerENS2_13TSReducerBaseEEEEEEE7resolveERKNS2_8ConstOrVINS2_12WordWithBitsILm64EEEmEE.exit
  %i.aa = zext nneg i8 %.sroa.0.0.i to i64
  %switch.gep = getelementptr inbounds nuw i8, ptr @switch.table._ZN2v88internal8compiler10turboshaft30TurboshaftAssemblerOpInterfaceINS2_9AssemblerINS_4base3tmp5list1IJNS2_12GraphVisitorENS2_27StringEscapeAnalysisReducerENS2_24JSGenericLoweringReducerENS2_23DataViewLoweringReducerENS2_22MachineLoweringReducerENS2_26FastApiCallLoweringReducerENS2_15VariableReducerENS2_21SelectLoweringReducerENS2_26MachineOptimizationReducerENS2_21ValueNumberingReducerENS2_13TSReducerBaseEEEEEEE12StoreElementINS0_16SeqTwoByteStringEEEvNS2_1VIT_EERKNS1_13ElementAccessENS2_8ConstOrVINS2_12WordWithBitsILm64EEEmEENSO_INS2_3AnyEEEb, i64 %i.aa
  %switch.load = load i8, ptr %switch.gep, align 1
  %i.ab = getelementptr inbounds nuw i8, ptr %2, i64 4
  %i.ac = load i32, ptr %i.ab, align 4
end_hunk_10
begin_hunk_11_@_ZN2v88internal8compiler10turboshaft23DataViewLoweringReducerINS2_22MachineLoweringReducerINS2_26FastApiCallLoweringReducerINS2_15VariableReducerINS2_21SelectLoweringReducerINS2_26MachineOptimizationReducerINS2_21EmitProjectionReducerINS2_21ValueNumberingReducerINS2_18GenericReducerBaseINS2_13TSReducerBaseINS2_11StackBottomINS_4base3tmp5list1IJNS2_12GraphVisitorENS2_27StringEscapeAnalysisReducerENS2_24JSGenericLoweringReducerES3_S4_S5_S6_S7_S8_SA_SC_EEEEEEEEEEEEEEEEEEEEEEEE25ReduceLoadDataViewElementENS2_1VINS0_6ObjectEEENSW_INS2_12WordWithBitsILm64EEEEES11_NSW_INSZ_ILm32EEEEENS0_17ExternalArrayTypeE:bb.a
_ZN2v88internal8compiler10turboshaft30TurboshaftAssemblerOpInterfaceINS2_9AssemblerINS_4base3tmp5list1IJNS2_12GraphVisitorENS2_27StringEscapeAnalysisReducerENS2_24JSGenericLoweringReducerENS2_23DataViewLoweringReducerENS2_22MachineLoweringReducerENS2_26FastApiCallLoweringReducerENS2_15VariableReducerENS2_21SelectLoweringReducerENS2_26MachineOptimizationReducerENS2_21ValueNumberingReducerENS2_13TSReducerBaseEEEEEEE4LoadENS2_7OpIndexENS2_15OptionalOpIndexENS2_6LoadOp4KindENS2_20MemoryRepresentationEih.exit: ; preds = %_ZN2v88internal8compiler10turboshaft6LoadOp4Kind14MaybeUnalignedENS2_20MemoryRepresentationE.exit, %bb.q
  %.sroa.011.0.i.i.i = phi i32 [ %i.p, %bb.q ], [ -1, %_ZN2v88internal8compiler10turboshaft6LoadOp4Kind14MaybeUnalignedENS2_20MemoryRepresentationE.exit ] ; 2 uses
  %i.q = sext i32 %5 to i64
  %i.r = getelementptr [8 x i8], ptr @switch.table._ZN2v88internal8compiler10turboshaft23DataViewLoweringReducerINS2_22MachineLoweringReducerINS2_26FastApiCallLoweringReducerINS2_15VariableReducerINS2_21SelectLoweringReducerINS2_26MachineOptimizationReducerINS2_21EmitProjectionReducerINS2_21ValueNumberingReducerINS2_18GenericReducerBaseINS2_13TSReducerBaseINS2_11StackBottomINS_4base3tmp5list1IJNS2_12GraphVisitorENS2_27StringEscapeAnalysisReducerENS2_24JSGenericLoweringReducerES3_S4_S5_S6_S7_S8_SA_SC_EEEEEEEEEEEEEEEEEEEEEEEE25ReduceLoadDataViewElementENS2_1VINS0_6ObjectEEENSW_INS2_12WordWithBitsILm64EEEEES11_NSW_INSZ_ILm32EEEEENS0_17ExternalArrayTypeE.4, i64 %i.q
  %switch.gep50 = getelementptr i8, ptr %i.r, i64 -8
  %switch.load51 = load i64, ptr %switch.gep50, align 8
  call void @llvm.lifetime.start.p0(ptr nonnull %6) #25
end_hunk_11
begin_hunk_12_@_ZN2v88internal8compiler10turboshaft30TurboshaftAssemblerOpInterfaceINS2_9AssemblerINS_4base3tmp5list1IJNS2_12GraphVisitorENS2_27StringEscapeAnalysisReducerENS2_24JSGenericLoweringReducerENS2_23DataViewLoweringReducerENS2_22MachineLoweringReducerENS2_26FastApiCallLoweringReducerENS2_15VariableReducerENS2_21SelectLoweringReducerENS2_26MachineOptimizationReducerENS2_21ValueNumberingReducerENS2_13TSReducerBaseEEEEEEE12StoreElementINS2_12WordWithBitsILm64EEEEEvNS2_1VIT_EERKNS1_13ElementAccessENS2_8ConstOrVISO_mEENSP_INS2_3AnyEEEb:bb.a

bb.u:                                             ; preds = %_ZN2v88internal8compiler10turboshaft30TurboshaftAssemblerOpInterfaceINS2_9AssemblerINS_4base3tmp5list1IJNS2_12GraphVisitorENS2_27StringEscapeAnalysisReducerENS2_24JSGenericLoweringReducerENS2_23DataViewLoweringReducerENS2_22MachineLoweringReducerENS2_26FastApiCallLoweringReducerENS2_15VariableReducerENS2_21SelectLoweringReducerENS2_26MachineOptimizationReducerENS2_21ValueNumberingReducerENS2_13TSReducerBaseEEEEEEE7resolveERKNS2_8ConstOrVINS2_12WordWithBitsILm64EEEmEE.exit
  %i.aa = zext nneg i8 %.sroa.0.0.i to i64
  %switch.gep = getelementptr inbounds nuw i8, ptr @switch.table._ZN2v88internal8compiler10turboshaft30TurboshaftAssemblerOpInterfaceINS2_9AssemblerINS_4base3tmp5list1IJNS2_12GraphVisitorENS2_27StringEscapeAnalysisReducerENS2_24JSGenericLoweringReducerENS2_23DataViewLoweringReducerENS2_22MachineLoweringReducerENS2_26FastApiCallLoweringReducerENS2_15VariableReducerENS2_21SelectLoweringReducerENS2_26MachineOptimizationReducerENS2_21ValueNumberingReducerENS2_13TSReducerBaseEEEEEEE12StoreElementINS2_12WordWithBitsILm64EEEEEvNS2_1VIT_EERKNS1_13ElementAccessENS2_8ConstOrVISO_mEENSP_INS2_3AnyEEEb, i64 %i.aa
  %switch.load = load i8, ptr %switch.gep, align 1
  %i.ab = getelementptr inbounds nuw i8, ptr %2, i64 4
  %i.ac = load i32, ptr %i.ab, align 4
end_hunk_12
begin_hunk_13_@_ZN2v88internal8compiler10turboshaft30TurboshaftAssemblerOpInterfaceINS2_9AssemblerINS_4base3tmp5list1IJNS2_12GraphVisitorENS2_27StringEscapeAnalysisReducerENS2_24JSGenericLoweringReducerENS2_23DataViewLoweringReducerENS2_22MachineLoweringReducerENS2_26FastApiCallLoweringReducerENS2_15VariableReducerENS2_21SelectLoweringReducerENS2_26MachineOptimizationReducerENS2_21ValueNumberingReducerENS2_13TSReducerBaseEEEEEEE12StoreElementINS0_5UnionIJNS0_10FixedArrayENS0_16FixedDoubleArrayEEEEEEvNS2_1VIT_EERKNS1_13ElementAccessENS2_8ConstOrVINS2_12WordWithBitsILm64EEEmEENSR_INS2_3AnyEEEb:bb.a

bb.u:                                             ; preds = %_ZN2v88internal8compiler10turboshaft30TurboshaftAssemblerOpInterfaceINS2_9AssemblerINS_4base3tmp5list1IJNS2_12GraphVisitorENS2_27StringEscapeAnalysisReducerENS2_24JSGenericLoweringReducerENS2_23DataViewLoweringReducerENS2_22MachineLoweringReducerENS2_26FastApiCallLoweringReducerENS2_15VariableReducerENS2_21SelectLoweringReducerENS2_26MachineOptimizationReducerENS2_21ValueNumberingReducerENS2_13TSReducerBaseEEEEEEE7resolveERKNS2_8ConstOrVINS2_12WordWithBitsILm64EEEmEE.exit
  %i.aa = zext nneg i8 %.sroa.0.0.i to i64
  %switch.gep = getelementptr inbounds nuw i8, ptr @switch.table._ZN2v88internal8compiler10turboshaft30TurboshaftAssemblerOpInterfaceINS2_9AssemblerINS_4base3tmp5list1IJNS2_12GraphVisitorENS2_27StringEscapeAnalysisReducerENS2_24JSGenericLoweringReducerENS2_23DataViewLoweringReducerENS2_22MachineLoweringReducerENS2_26FastApiCallLoweringReducerENS2_15VariableReducerENS2_21SelectLoweringReducerENS2_26MachineOptimizationReducerENS2_21ValueNumberingReducerENS2_13TSReducerBaseEEEEEEE12StoreElementINS0_5UnionIJNS0_10FixedArrayENS0_16FixedDoubleArrayEEEEEEvNS2_1VIT_EERKNS1_13ElementAccessENS2_8ConstOrVINS2_12WordWithBitsILm64EEEmEENSR_INS2_3AnyEEEb, i64 %i.aa
  %switch.load = load i8, ptr %switch.gep, align 1
  %i.ab = getelementptr inbounds nuw i8, ptr %2, i64 4
  %i.ac = load i32, ptr %i.ab, align 4
end_hunk_13
begin_hunk_14_@_ZNK2v88internal8compiler10turboshaft21LoadDataViewElementOp11outputs_repEv:switch.lookup
  %i.a = getelementptr inbounds nuw i8, ptr %0, i64 4
  %i.b = load i32, ptr %i.a, align 4
  %i.c = sext i32 %i.b to i64
  %i.d = getelementptr [8 x i8], ptr @switch.table._ZNK2v88internal8compiler10turboshaft21LoadDataViewElementOp11outputs_repEv, i64 %i.c
  %switch.gep = getelementptr i8, ptr %i.d, i64 -8
  %switch.load = load i64, ptr %switch.gep, align 8
  %i.e = getelementptr inbounds nuw i8, ptr @_ZZN2v88internal8compiler10turboshaft12VectorForRepENS2_22RegisterRepresentationEE5table, i64 %switch.load
end_hunk_14
