inline.NumInlined: 3568
inline.NumDeleted: 1277
begin_hunk_0_@_ZN4node7modules20GetCompileCacheEntryERKN2v820FunctionCallbackInfoINS1_5ValueEEE:_ZNK2v820FunctionCallbackInfoINS_5ValueEEixEi.exit58
  %i.bx = ptrtoint ptr %i.bv to i64
  store i64 %i.bx, ptr %2, align 8
  %i.by = getelementptr inbounds nuw i8, ptr %1, i64 16 ; 4 uses
  %5 = tail call noalias noundef nonnull dereferenceable(8) ptr @_Znwm(i64 noundef 8) #29 ; 4 uses
  %6 = getelementptr inbounds nuw i8, ptr %1, i64 8 ; 6 uses
  store ptr %5, ptr %1, align 8
  store ptr %5, ptr %6, align 8
  %i.bz = getelementptr inbounds nuw i8, ptr %5, i64 8
  store ptr %i.bz, ptr %i.by, align 8
  %i.ca = getelementptr inbounds nuw i8, ptr %2, i64 8
  call void @_ZNSt6vectorIN2v88internal14LocalUncheckedINS0_4NameEEESaIS4_EE15_M_range_insertIPKNS0_5LocalIS3_EEEEvN9__gnu_cxx17__normal_iteratorIPS4_S6_EET_SG_St20forward_iterator_tag(ptr noundef nonnull align 8 dereferenceable(24) %1, ptr nonnull %5, ptr noundef nonnull %2, ptr noundef nonnull %i.ca)
  call void @llvm.lifetime.end.p0(ptr nonnull %2) #27
  call void @llvm.lifetime.start.p0(ptr nonnull %3) #27
  call void @llvm.lifetime.start.p0(ptr nonnull %4) #27
end_hunk_0
begin_hunk_1_@_ZN4node7modules20GetCompileCacheEntryERKN2v820FunctionCallbackInfoINS1_5ValueEEE:_ZNK2v820FunctionCallbackInfoINS_5ValueEEixEi.exit58
  %i.cc = ptrtoint ptr %i.cb to i64
  store i64 %i.cc, ptr %4, align 8
  %i.cd = getelementptr inbounds nuw i8, ptr %3, i64 16 ; 4 uses
  %7 = call noalias noundef nonnull dereferenceable(8) ptr @_Znwm(i64 noundef 8) #29 ; 4 uses
  %8 = getelementptr inbounds nuw i8, ptr %3, i64 8 ; 5 uses
  store ptr %7, ptr %3, align 8
  store ptr %7, ptr %8, align 8
  %i.ce = getelementptr inbounds nuw i8, ptr %7, i64 8
  store ptr %i.ce, ptr %i.cd, align 8
  %i.cf = getelementptr inbounds nuw i8, ptr %4, i64 8
  call void @_ZNSt6vectorIN2v88internal14LocalUncheckedINS0_5ValueEEESaIS4_EE15_M_range_insertIPKNS0_5LocalIS3_EEEEvN9__gnu_cxx17__normal_iteratorIPS4_S6_EET_SG_St20forward_iterator_tag(ptr noundef nonnull align 8 dereferenceable(24) %3, ptr nonnull %7, ptr noundef nonnull %4, ptr noundef nonnull %i.cf)
  call void @llvm.lifetime.end.p0(ptr nonnull %4) #27
  %i.cg = load ptr, ptr %i.bt, align 8
  %.not.i66 = icmp eq ptr %i.cg, null
end_hunk_1
begin_hunk_2_@_ZN4node7modules20GetCompileCacheEntryERKN2v820FunctionCallbackInfoINS1_5ValueEEE:_ZNK2v820FunctionCallbackInfoINS_5ValueEEixEi.exit58

_ZN4node21FIXED_ONE_BYTE_STRINGILm11EQgtT_Li0EEEN2v85LocalINS1_6StringEEEPNS1_7IsolateERAT__Kc.exit: ; preds = %_ZN4node5DebugEPNS_16EnabledDebugListENS_13DebugCategoryEPKc.exit63, %bb.o
  %i.dd = ptrtoint ptr %i.db to i64               ; 2 uses
  %i.de = load ptr, ptr %6, align 8               ; 5 uses
  %i.df = load ptr, ptr %i.by, align 8
  %.not.i.i.i = icmp eq ptr %i.de, %i.df
  br i1 %.not.i.i.i, label %bb.q, label %bb.p

bb.p:                                             ; preds = %_ZN4node21FIXED_ONE_BYTE_STRINGILm11EQgtT_Li0EEEN2v85LocalINS1_6StringEEEPNS1_7IsolateERAT__Kc.exit
  store i64 %i.dd, ptr %i.de, align 8
  %i.dg = load ptr, ptr %6, align 8
  %i.dh = getelementptr inbounds nuw i8, ptr %i.dg, i64 8
  store ptr %i.dh, ptr %6, align 8
  br label %_ZN2v811LocalVectorINS_4NameEE9push_backERKNS_5LocalIS1_EE.exit

bb.q:                                             ; preds = %_ZN4node21FIXED_ONE_BYTE_STRINGILm11EQgtT_Li0EEEN2v85LocalINS1_6StringEEEPNS1_7IsolateERAT__Kc.exit
end_hunk_2
begin_hunk_3_@_ZN4node7modules20GetCompileCacheEntryERKN2v820FunctionCallbackInfoINS1_5ValueEEE:_ZNK2v820FunctionCallbackInfoINS_5ValueEEixEi.exit58

_ZNSt6vectorIN2v88internal14LocalUncheckedINS0_4NameEEESaIS4_EE17_M_realloc_insertIJS4_EEEvN9__gnu_cxx17__normal_iteratorIPS4_S6_EEDpOT_.exit.i.i.i: ; preds = %bb.s, %_ZNSt6vectorIN2v88internal14LocalUncheckedINS0_4NameEEESaIS4_EE11_S_relocateEPS4_S7_S7_RS5_.exit22.i.i.i.i
  store ptr %i.dt, ptr %1, align 8
  store ptr %i.el, ptr %6, align 8
  %i.em = getelementptr inbounds nuw [8 x i8], ptr %i.dt, i64 %i.dr
  store ptr %i.em, ptr %i.by, align 8
  br label %_ZN2v811LocalVectorINS_4NameEE9push_backERKNS_5LocalIS1_EE.exit

_ZN2v811LocalVectorINS_4NameEE9push_backERKNS_5LocalIS1_EE.exit: ; preds = %bb.p, %_ZNSt6vectorIN2v88internal14LocalUncheckedINS0_4NameEEESaIS4_EE17_M_realloc_insertIJS4_EEEvN9__gnu_cxx17__normal_iteratorIPS4_S6_EEDpOT_.exit.i.i.i
  %i.en = load ptr, ptr %8, align 8               ; 5 uses
  %i.eo = load ptr, ptr %i.cd, align 8
  %.not.i.i.i68 = icmp eq ptr %i.en, %i.eo
  br i1 %.not.i.i.i68, label %bb.u, label %bb.t

bb.t:                                             ; preds = %_ZN2v811LocalVectorINS_4NameEE9push_backERKNS_5LocalIS1_EE.exit
  store i64 %i.cu, ptr %i.en, align 8
  %i.ep = load ptr, ptr %8, align 8
  %i.eq = getelementptr inbounds nuw i8, ptr %i.ep, i64 8
  store ptr %i.eq, ptr %8, align 8
  br label %_ZN2v811LocalVectorINS_5ValueEE9push_backERKNS_5LocalIS1_EE.exit.thread

bb.u:                                             ; preds = %_ZN2v811LocalVectorINS_4NameEE9push_backERKNS_5LocalIS1_EE.exit
end_hunk_3
begin_hunk_4_@_ZN4node7modules20GetCompileCacheEntryERKN2v820FunctionCallbackInfoINS1_5ValueEEE:_ZNK2v820FunctionCallbackInfoINS_5ValueEEixEi.exit58

_ZNSt6vectorIN2v88internal14LocalUncheckedINS0_5ValueEEESaIS4_EE17_M_realloc_insertIJS4_EEEvN9__gnu_cxx17__normal_iteratorIPS4_S6_EEDpOT_.exit.i.i.i: ; preds = %bb.w, %_ZNSt6vectorIN2v88internal14LocalUncheckedINS0_5ValueEEESaIS4_EE11_S_relocateEPS4_S7_S7_RS5_.exit22.i.i.i.i
  store ptr %i.fc, ptr %3, align 8
  store ptr %i.fu, ptr %8, align 8
  %i.fv = getelementptr inbounds nuw [8 x i8], ptr %i.fc, i64 %i.fa
  store ptr %i.fv, ptr %i.cd, align 8
  br label %_ZN2v811LocalVectorINS_5ValueEE9push_backERKNS_5LocalIS1_EE.exit.thread
end_hunk_4
begin_hunk_5_@_ZN4node7modules20GetCompileCacheEntryERKN2v820FunctionCallbackInfoINS1_5ValueEEE:_ZNK2v820FunctionCallbackInfoINS_5ValueEEixEi.exit58
  %i.ge = inttoptr i64 %i.gd to ptr
  %i.gf = load ptr, ptr %1, align 8               ; 2 uses
  %i.gg = load ptr, ptr %3, align 8
  %i.gh = load ptr, ptr %6, align 8
  %i.gi = ptrtoint ptr %i.gh to i64
  %i.gj = ptrtoint ptr %i.gf to i64
  %i.gk = sub i64 %i.gi, %i.gj
end_hunk_5
