inline.NumInlined: 41993
inline.NumDeleted: 13966
begin_hunk_0
@_ZZN2v88internal8compiler10turboshaft12VectorForRepENS2_22RegisterRepresentationEE5table = linkonce_odr hidden constant { [6 x { i8 }] } { [6 x { i8 }] [{ i8 } zeroinitializer, { i8 } { i8 1 }, { i8 } { i8 2 }, { i8 } { i8 3 }, { i8 } { i8 4 }, { i8 } { i8 5 }] }, comdat, align 1
@.str.38 = private unnamed_addr constant [11 x i8] c"operator->\00", align 1
@.str.41 = private unnamed_addr constant [166 x i8] c"%s called on invalid iterator. The element might have been erased or the table might have rehashed. Consider running with --config=asan to diagnose rehashing issues.\00", align 1
@switch.table._ZN2v88internal8compiler10turboshaft13TSReducerBaseINS2_11StackBottomINS_4base3tmp5list1IJNS2_12GraphVisitorENS2_25LateEscapeAnalysisReducerENS2_26MachineOptimizationReducerENS2_25MemoryOptimizationReducerENS2_24BranchEliminationReducerENS2_26LateLoadEliminationReducerENS2_23WasmCodeCoverageReducerENS2_21ValueNumberingReducerES3_EEEEEE4EmitINS2_10ConstantOpEJNSK_4KindENSK_7StorageEEEENS2_7OpIndexEDpT0_ = private unnamed_addr constant [15 x i8] c"\00\01\02\03\04\04\01\01\04\05\01\01\01\00\00", comdat($_ZN2v88internal8compiler10turboshaft13TSReducerBaseINS2_11StackBottomINS_4base3tmp5list1IJNS2_12GraphVisitorENS2_25LateEscapeAnalysisReducerENS2_26MachineOptimizationReducerENS2_25MemoryOptimizationReducerENS2_24BranchEliminationReducerENS2_26LateLoadEliminationReducerENS2_23WasmCodeCoverageReducerENS2_21ValueNumberingReducerES3_EEEEEE4EmitINS2_10ConstantOpEJNSK_4KindENSK_7StorageEEEENS2_7OpIndexEDpT0_), align 1
@switch.table._ZNK2v88internal8compiler10turboshaft9Operation7EffectsEv = private unnamed_addr constant [4 x i32] [i32 0, i32 4128, i32 0, i32 4128], comdat($_ZNK2v88internal8compiler10turboshaft9Operation7EffectsEv), align 4
@switch.table._ZN2v88internal8compiler10turboshaft13TSReducerBaseINS2_11StackBottomINS_4base3tmp5list1IJNS2_12GraphVisitorENS2_25LateEscapeAnalysisReducerENS2_26MachineOptimizationReducerENS2_25MemoryOptimizationReducerENS2_24BranchEliminationReducerENS2_26LateLoadEliminationReducerENS2_23WasmCodeCoverageReducerENS2_21ValueNumberingReducerES3_EEEEEE4EmitINS2_10ConstantOpEJNSK_4KindEmEEENS2_7OpIndexEDpT0_ = private unnamed_addr constant [15 x i8] c"\00\01\02\03\04\04\01\01\04\05\01\01\01\00\00", comdat($_ZN2v88internal8compiler10turboshaft13TSReducerBaseINS2_11StackBottomINS_4base3tmp5list1IJNS2_12GraphVisitorENS2_25LateEscapeAnalysisReducerENS2_26MachineOptimizationReducerENS2_25MemoryOptimizationReducerENS2_24BranchEliminationReducerENS2_26LateLoadEliminationReducerENS2_23WasmCodeCoverageReducerENS2_21ValueNumberingReducerES3_EEEEEE4EmitINS2_10ConstantOpEJNSK_4KindEmEEENS2_7OpIndexEDpT0_), align 1
@switch.table._ZN2v88internal8compiler10turboshaft13TSReducerBaseINS2_11StackBottomINS_4base3tmp5list1IJNS2_12GraphVisitorENS2_25LateEscapeAnalysisReducerENS2_26MachineOptimizationReducerENS2_25MemoryOptimizationReducerENS2_24BranchEliminationReducerENS2_26LateLoadEliminationReducerENS2_23WasmCodeCoverageReducerENS2_21ValueNumberingReducerES3_EEEEEE4EmitINS2_10ConstantOpEJNSK_4KindENS0_7Float32EEEENS2_7OpIndexEDpT0_ = private unnamed_addr constant [15 x i8] c"\00\01\02\03\04\04\01\01\04\05\01\01\01\00\00", comdat($_ZN2v88internal8compiler10turboshaft13TSReducerBaseINS2_11StackBottomINS_4base3tmp5list1IJNS2_12GraphVisitorENS2_25LateEscapeAnalysisReducerENS2_26MachineOptimizationReducerENS2_25MemoryOptimizationReducerENS2_24BranchEliminationReducerENS2_26LateLoadEliminationReducerENS2_23WasmCodeCoverageReducerENS2_21ValueNumberingReducerES3_EEEEEE4EmitINS2_10ConstantOpEJNSK_4KindENS0_7Float32EEEENS2_7OpIndexEDpT0_), align 1
@switch.table._ZN2v88internal8compiler10turboshaft13TSReducerBaseINS2_11StackBottomINS_4base3tmp5list1IJNS2_12GraphVisitorENS2_25LateEscapeAnalysisReducerENS2_26MachineOptimizationReducerENS2_25MemoryOptimizationReducerENS2_24BranchEliminationReducerENS2_26LateLoadEliminationReducerENS2_23WasmCodeCoverageReducerENS2_21ValueNumberingReducerES3_EEEEEE4EmitINS2_10ConstantOpEJNSK_4KindENS0_7Float64EEEENS2_7OpIndexEDpT0_ = private unnamed_addr constant [15 x i8] c"\00\01\02\03\04\04\01\01\04\05\01\01\01\00\00", comdat($_ZN2v88internal8compiler10turboshaft13TSReducerBaseINS2_11StackBottomINS_4base3tmp5list1IJNS2_12GraphVisitorENS2_25LateEscapeAnalysisReducerENS2_26MachineOptimizationReducerENS2_25MemoryOptimizationReducerENS2_24BranchEliminationReducerENS2_26LateLoadEliminationReducerENS2_23WasmCodeCoverageReducerENS2_21ValueNumberingReducerES3_EEEEEE4EmitINS2_10ConstantOpEJNSK_4KindENS0_7Float64EEEENS2_7OpIndexEDpT0_), align 1
@switch.table._ZN2v88internal8compiler10turboshaft26MachineOptimizationReducerINS2_25MemoryOptimizationReducerINS2_24BranchEliminationReducerINS2_26LateLoadEliminationReducerINS2_23WasmCodeCoverageReducerINS2_21EmitProjectionReducerINS2_21ValueNumberingReducerINS2_18GenericReducerBaseINS2_13TSReducerBaseINS2_11StackBottomINS_4base3tmp5list1IJNS2_12GraphVisitorENS2_25LateEscapeAnalysisReducerES3_S4_S5_S6_S7_S9_SB_EEEEEEEEEEEEEEEEEEEEEE11ReduceShiftENS2_1VINS2_13UntaggedUnionIJNS2_12WordWithBitsILm32EEENSV_ILm64EEEEEEEENST_ISW_EENS2_7ShiftOp4KindENS2_18WordRepresentationE = private unnamed_addr constant [8 x i32] [i32 32, i32 64, i32 32, i32 64, i32 8, i32 8, i32 128, i32 256], comdat($_ZN2v88internal8compiler10turboshaft26MachineOptimizationReducerINS2_25MemoryOptimizationReducerINS2_24BranchEliminationReducerINS2_26LateLoadEliminationReducerINS2_23WasmCodeCoverageReducerINS2_21EmitProjectionReducerINS2_21ValueNumberingReducerINS2_18GenericReducerBaseINS2_13TSReducerBaseINS2_11StackBottomINS_4base3tmp5list1IJNS2_12GraphVisitorENS2_25LateEscapeAnalysisReducerES3_S4_S5_S6_S7_S9_SB_EEEEEEEEEEEEEEEEEEEEEE11ReduceShiftENS2_1VINS2_13UntaggedUnionIJNS2_12WordWithBitsILm32EEENSV_ILm64EEEEEEEENST_ISW_EENS2_7ShiftOp4KindENS2_18WordRepresentationE), align 4
@switch.table._ZN2v88internal8compiler10turboshaft26MachineOptimizationReducerINS2_25MemoryOptimizationReducerINS2_24BranchEliminationReducerINS2_26LateLoadEliminationReducerINS2_23WasmCodeCoverageReducerINS2_21EmitProjectionReducerINS2_21ValueNumberingReducerINS2_18GenericReducerBaseINS2_13TSReducerBaseINS2_11StackBottomINS_4base3tmp5list1IJNS2_12GraphVisitorENS2_25LateEscapeAnalysisReducerES3_S4_S5_S6_S7_S9_SB_EEEEEEEEEEEEEEEEEEEEEE11ReduceStoreENS2_7OpIndexENS2_15OptionalOpIndexEST_NS2_6LoadOp4KindENS2_20MemoryRepresentationENS1_16WriteBarrierKindEihbNS0_18IndirectPointerTagE = private unnamed_addr constant [6 x i64] [i64 255, i64 255, i64 65535, i64 65535, i64 4294967295, i64 4294967295], comdat($_ZN2v88internal8compiler10turboshaft26MachineOptimizationReducerINS2_25MemoryOptimizationReducerINS2_24BranchEliminationReducerINS2_26LateLoadEliminationReducerINS2_23WasmCodeCoverageReducerINS2_21EmitProjectionReducerINS2_21ValueNumberingReducerINS2_18GenericReducerBaseINS2_13TSReducerBaseINS2_11StackBottomINS_4base3tmp5list1IJNS2_12GraphVisitorENS2_25LateEscapeAnalysisReducerES3_S4_S5_S6_S7_S9_SB_EEEEEEEEEEEEEEEEEEEEEE11ReduceStoreENS2_7OpIndexENS2_15OptionalOpIndexEST_NS2_6LoadOp4KindENS2_20MemoryRepresentationENS1_16WriteBarrierKindEihbNS0_18IndirectPointerTagE), align 8
@switch.table._ZN2v88internal8compiler10turboshaft26MachineOptimizationReducerINS2_25MemoryOptimizationReducerINS2_24BranchEliminationReducerINS2_26LateLoadEliminationReducerINS2_23WasmCodeCoverageReducerINS2_21EmitProjectionReducerINS2_21ValueNumberingReducerINS2_18GenericReducerBaseINS2_13TSReducerBaseINS2_11StackBottomINS_4base3tmp5list1IJNS2_12GraphVisitorENS2_25LateEscapeAnalysisReducerES3_S4_S5_S6_S7_S9_SB_EEEEEEEEEEEEEEEEEEEEEE20ReduceWithTruncationENS2_1VINS2_13UntaggedUnionIJNS2_12WordWithBitsILm32EEENSV_ILm64EEEEEEEEmNS2_18WordRepresentationE = private unnamed_addr constant [8 x i32] [i32 32, i32 64, i32 32, i32 64, i32 8, i32 8, i32 128, i32 256], comdat($_ZN2v88internal8compiler10turboshaft26MachineOptimizationReducerINS2_25MemoryOptimizationReducerINS2_24BranchEliminationReducerINS2_26LateLoadEliminationReducerINS2_23WasmCodeCoverageReducerINS2_21EmitProjectionReducerINS2_21ValueNumberingReducerINS2_18GenericReducerBaseINS2_13TSReducerBaseINS2_11StackBottomINS_4base3tmp5list1IJNS2_12GraphVisitorENS2_25LateEscapeAnalysisReducerES3_S4_S5_S6_S7_S9_SB_EEEEEEEEEEEEEEEEEEEEEE20ReduceWithTruncationENS2_1VINS2_13UntaggedUnionIJNS2_12WordWithBitsILm32EEENSV_ILm64EEEEEEEEmNS2_18WordRepresentationE), align 4
@switch.table._ZN2v88internal8compiler10turboshaft13TSReducerBaseINS2_11StackBottomINS_4base3tmp5list1IJNS2_12GraphVisitorENS2_25LateEscapeAnalysisReducerENS2_26MachineOptimizationReducerENS2_25MemoryOptimizationReducerENS2_24BranchEliminationReducerENS2_26LateLoadEliminationReducerENS2_23WasmCodeCoverageReducerENS2_21ValueNumberingReducerES3_EEEEEE4EmitINS2_16Simd128ShuffleOpEJNS2_14ShadowyOpIndexESL_NSK_4KindEPKhEEENS2_7OpIndexEDpT0_ = private unnamed_addr constant [4 x i64] [i64 2, i64 4, i64 8, i64 16], comdat($_ZN2v88internal8compiler10turboshaft13TSReducerBaseINS2_11StackBottomINS_4base3tmp5list1IJNS2_12GraphVisitorENS2_25LateEscapeAnalysisReducerENS2_26MachineOptimizationReducerENS2_25MemoryOptimizationReducerENS2_24BranchEliminationReducerENS2_26LateLoadEliminationReducerENS2_23WasmCodeCoverageReducerENS2_21ValueNumberingReducerES3_EEEEEE4EmitINS2_16Simd128ShuffleOpEJNS2_14ShadowyOpIndexESL_NSK_4KindEPKhEEENS2_7OpIndexEDpT0_), align 8
@switch.table._ZN2v88internal8compiler10turboshaft13TSReducerBaseINS2_11StackBottomINS_4base3tmp5list1IJNS2_12GraphVisitorENS2_25LateEscapeAnalysisReducerENS2_26MachineOptimizationReducerENS2_25MemoryOptimizationReducerENS2_24BranchEliminationReducerENS2_26LateLoadEliminationReducerENS2_23WasmCodeCoverageReducerENS2_21ValueNumberingReducerES3_EEEEEE4EmitINS2_10ConstantOpEJNSK_4KindENS0_6TaggedINS0_3SmiEEEEEENS2_7OpIndexEDpT0_ = private unnamed_addr constant [15 x i8] c"\00\01\02\03\04\04\01\01\04\05\01\01\01\00\00", comdat($_ZN2v88internal8compiler10turboshaft13TSReducerBaseINS2_11StackBottomINS_4base3tmp5list1IJNS2_12GraphVisitorENS2_25LateEscapeAnalysisReducerENS2_26MachineOptimizationReducerENS2_25MemoryOptimizationReducerENS2_24BranchEliminationReducerENS2_26LateLoadEliminationReducerENS2_23WasmCodeCoverageReducerENS2_21ValueNumberingReducerES3_EEEEEE4EmitINS2_10ConstantOpEJNSK_4KindENS0_6TaggedINS0_3SmiEEEEEENS2_7OpIndexEDpT0_), align 1
@switch.table._ZN2v88internal8compiler10turboshaft20OutputGraphAssemblerINS2_12GraphVisitorINS2_25LateEscapeAnalysisReducerINS2_26MachineOptimizationReducerINS2_25MemoryOptimizationReducerINS2_24BranchEliminationReducerINS2_26LateLoadEliminationReducerINS2_23WasmCodeCoverageReducerINS2_21EmitProjectionReducerINS2_21ValueNumberingReducerINS2_18GenericReducerBaseINS2_13TSReducerBaseINS2_11StackBottomINS_4base3tmp5list1IJS4_S5_S6_S7_S8_S9_SA_SC_SE_EEEEEEEEEEEEEEEEEEEEEEEEEEENS2_15VariableReducerISU_EEE35AssembleOutputGraphAtomicWord32PairERKNS2_18AtomicWord32PairOpE = private unnamed_addr constant [9 x i64] [i64 4, i64 4, i64 4, i64 4, i64 4, i64 4, i64 6, i64 2, i64 4], comdat($_ZN2v88internal8compiler10turboshaft20OutputGraphAssemblerINS2_12GraphVisitorINS2_25LateEscapeAnalysisReducerINS2_26MachineOptimizationReducerINS2_25MemoryOptimizationReducerINS2_24BranchEliminationReducerINS2_26LateLoadEliminationReducerINS2_23WasmCodeCoverageReducerINS2_21EmitProjectionReducerINS2_21ValueNumberingReducerINS2_18GenericReducerBaseINS2_13TSReducerBaseINS2_11StackBottomINS_4base3tmp5list1IJS4_S5_S6_S7_S8_S9_SA_SC_SE_EEEEEEEEEEEEEEEEEEEEEEEEEEENS2_15VariableReducerISU_EEE35AssembleOutputGraphAtomicWord32PairERKNS2_18AtomicWord32PairOpE), align 8
@switch.table._ZNK2v88internal8compiler10turboshaft21LoadDataViewElementOp11outputs_repEv = private unnamed_addr constant [12 x i64] [i64 0, i64 0, i64 0, i64 0, i64 0, i64 0, i64 0, i64 2, i64 3, i64 0, i64 1, i64 1], comdat($_ZNK2v88internal8compiler10turboshaft21LoadDataViewElementOp11outputs_repEv), align 8
@switch.table._ZNK2v88internal8compiler10turboshaft18LoadTypedElementOp11outputs_repEv = private unnamed_addr constant [12 x i64] [i64 0, i64 0, i64 0, i64 0, i64 0, i64 0, i64 0, i64 2, i64 3, i64 0, i64 1, i64 1], comdat($_ZNK2v88internal8compiler10turboshaft18LoadTypedElementOp11outputs_repEv), align 8
@switch.table._ZN2v88internal8compiler10turboshaft13TSReducerBaseINS2_11StackBottomINS_4base3tmp5list1IJNS2_12GraphVisitorENS2_25LateEscapeAnalysisReducerENS2_26MachineOptimizationReducerENS2_25MemoryOptimizationReducerENS2_24BranchEliminationReducerENS2_26LateLoadEliminationReducerENS2_23WasmCodeCoverageReducerENS2_21ValueNumberingReducerES3_EEEEEE4EmitINS2_10ConstantOpEJNSK_4KindENS0_17ExternalReferenceEEEENS2_7OpIndexEDpT0_ = private unnamed_addr constant [15 x i8] c"\00\01\02\03\04\04\01\01\04\05\01\01\01\00\00", comdat($_ZN2v88internal8compiler10turboshaft13TSReducerBaseINS2_11StackBottomINS_4base3tmp5list1IJNS2_12GraphVisitorENS2_25LateEscapeAnalysisReducerENS2_26MachineOptimizationReducerENS2_25MemoryOptimizationReducerENS2_24BranchEliminationReducerENS2_26LateLoadEliminationReducerENS2_23WasmCodeCoverageReducerENS2_21ValueNumberingReducerES3_EEEEEE4EmitINS2_10ConstantOpEJNSK_4KindENS0_17ExternalReferenceEEEENS2_7OpIndexEDpT0_), align 1

; Function Attrs: mustprogress nounwind uwtable
define hidden void @_ZN2v88internal8compiler10turboshaft17WasmOptimizePhase3RunEPNS2_12PipelineDataEPNS0_4ZoneE(ptr noundef nonnull readnone align 1 captures(none) dereferenceable(1) %0, ptr noundef %1, ptr noundef %2) local_unnamed_addr #0 align 2 {
end_hunk_0
begin_hunk_1_@_ZN2v88internal8compiler10turboshaft13TSReducerBaseINS2_11StackBottomINS_4base3tmp5list1IJNS2_12GraphVisitorENS2_25LateEscapeAnalysisReducerENS2_26MachineOptimizationReducerENS2_25MemoryOptimizationReducerENS2_24BranchEliminationReducerENS2_26LateLoadEliminationReducerENS2_23WasmCodeCoverageReducerENS2_21ValueNumberingReducerES3_EEEEEE4EmitINS2_10ConstantOpEJNSK_4KindENSK_7StorageEEEENS2_7OpIndexEDpT0_:bb.a
  %i.ai = getelementptr inbounds nuw i8, ptr %i.s, i64 4
  store i8 %1, ptr %i.ai, align 4
  %i.aj = zext nneg i8 %1 to i64
  %switch.gep = getelementptr inbounds nuw i8, ptr @switch.table._ZN2v88internal8compiler10turboshaft13TSReducerBaseINS2_11StackBottomINS_4base3tmp5list1IJNS2_12GraphVisitorENS2_25LateEscapeAnalysisReducerENS2_26MachineOptimizationReducerENS2_25MemoryOptimizationReducerENS2_24BranchEliminationReducerENS2_26LateLoadEliminationReducerENS2_23WasmCodeCoverageReducerENS2_21ValueNumberingReducerES3_EEEEEE4EmitINS2_10ConstantOpEJNSK_4KindENSK_7StorageEEEENS2_7OpIndexEDpT0_, i64 %i.aj
  %switch.load = load i8, ptr %switch.gep, align 1
  %i.ak = getelementptr inbounds nuw i8, ptr %i.s, i64 5
  store i8 %switch.load, ptr %i.ak, align 1
end_hunk_1
begin_hunk_2_@_ZN2v88internal8compiler10turboshaft13TSReducerBaseINS2_11StackBottomINS_4base3tmp5list1IJNS2_12GraphVisitorENS2_25LateEscapeAnalysisReducerENS2_26MachineOptimizationReducerENS2_25MemoryOptimizationReducerENS2_24BranchEliminationReducerENS2_26LateLoadEliminationReducerENS2_23WasmCodeCoverageReducerENS2_21ValueNumberingReducerES3_EEEEEE4EmitINS2_10ConstantOpEJNSK_4KindEmEEENS2_7OpIndexEDpT0_:bb.a
  %i.ai = getelementptr inbounds nuw i8, ptr %i.s, i64 4
  store i8 %1, ptr %i.ai, align 4
  %i.aj = zext nneg i8 %1 to i64
  %switch.gep = getelementptr inbounds nuw i8, ptr @switch.table._ZN2v88internal8compiler10turboshaft13TSReducerBaseINS2_11StackBottomINS_4base3tmp5list1IJNS2_12GraphVisitorENS2_25LateEscapeAnalysisReducerENS2_26MachineOptimizationReducerENS2_25MemoryOptimizationReducerENS2_24BranchEliminationReducerENS2_26LateLoadEliminationReducerENS2_23WasmCodeCoverageReducerENS2_21ValueNumberingReducerES3_EEEEEE4EmitINS2_10ConstantOpEJNSK_4KindEmEEENS2_7OpIndexEDpT0_, i64 %i.aj
  %switch.load = load i8, ptr %switch.gep, align 1
  %i.ak = getelementptr inbounds nuw i8, ptr %i.s, i64 5
  store i8 %switch.load, ptr %i.ak, align 1
end_hunk_2
begin_hunk_3_@_ZN2v88internal8compiler10turboshaft13TSReducerBaseINS2_11StackBottomINS_4base3tmp5list1IJNS2_12GraphVisitorENS2_25LateEscapeAnalysisReducerENS2_26MachineOptimizationReducerENS2_25MemoryOptimizationReducerENS2_24BranchEliminationReducerENS2_26LateLoadEliminationReducerENS2_23WasmCodeCoverageReducerENS2_21ValueNumberingReducerES3_EEEEEE4EmitINS2_10ConstantOpEJNSK_4KindENS0_7Float32EEEENS2_7OpIndexEDpT0_:bb.a
  %i.ai = getelementptr inbounds nuw i8, ptr %i.s, i64 4
  store i8 %1, ptr %i.ai, align 4
  %i.aj = zext nneg i8 %1 to i64
  %switch.gep = getelementptr inbounds nuw i8, ptr @switch.table._ZN2v88internal8compiler10turboshaft13TSReducerBaseINS2_11StackBottomINS_4base3tmp5list1IJNS2_12GraphVisitorENS2_25LateEscapeAnalysisReducerENS2_26MachineOptimizationReducerENS2_25MemoryOptimizationReducerENS2_24BranchEliminationReducerENS2_26LateLoadEliminationReducerENS2_23WasmCodeCoverageReducerENS2_21ValueNumberingReducerES3_EEEEEE4EmitINS2_10ConstantOpEJNSK_4KindENS0_7Float32EEEENS2_7OpIndexEDpT0_, i64 %i.aj
  %switch.load = load i8, ptr %switch.gep, align 1
  %.sroa.0.0.insert.ext.i.i = zext i32 %2 to i64
  %i.ak = getelementptr inbounds nuw i8, ptr %i.s, i64 5
end_hunk_3
begin_hunk_4_@_ZN2v88internal8compiler10turboshaft13TSReducerBaseINS2_11StackBottomINS_4base3tmp5list1IJNS2_12GraphVisitorENS2_25LateEscapeAnalysisReducerENS2_26MachineOptimizationReducerENS2_25MemoryOptimizationReducerENS2_24BranchEliminationReducerENS2_26LateLoadEliminationReducerENS2_23WasmCodeCoverageReducerENS2_21ValueNumberingReducerES3_EEEEEE4EmitINS2_10ConstantOpEJNSK_4KindENS0_7Float64EEEENS2_7OpIndexEDpT0_:bb.a
  %i.ai = getelementptr inbounds nuw i8, ptr %i.s, i64 4
  store i8 %1, ptr %i.ai, align 4
  %i.aj = zext nneg i8 %1 to i64
  %switch.gep = getelementptr inbounds nuw i8, ptr @switch.table._ZN2v88internal8compiler10turboshaft13TSReducerBaseINS2_11StackBottomINS_4base3tmp5list1IJNS2_12GraphVisitorENS2_25LateEscapeAnalysisReducerENS2_26MachineOptimizationReducerENS2_25MemoryOptimizationReducerENS2_24BranchEliminationReducerENS2_26LateLoadEliminationReducerENS2_23WasmCodeCoverageReducerENS2_21ValueNumberingReducerES3_EEEEEE4EmitINS2_10ConstantOpEJNSK_4KindENS0_7Float64EEEENS2_7OpIndexEDpT0_, i64 %i.aj
  %switch.load = load i8, ptr %switch.gep, align 1
  %i.ak = getelementptr inbounds nuw i8, ptr %i.s, i64 5
  store i8 %switch.load, ptr %i.ak, align 1
end_hunk_4
begin_hunk_5_@_ZN2v88internal8compiler10turboshaft26MachineOptimizationReducerINS2_25MemoryOptimizationReducerINS2_24BranchEliminationReducerINS2_26LateLoadEliminationReducerINS2_23WasmCodeCoverageReducerINS2_21EmitProjectionReducerINS2_21ValueNumberingReducerINS2_18GenericReducerBaseINS2_13TSReducerBaseINS2_11StackBottomINS_4base3tmp5list1IJNS2_12GraphVisitorENS2_25LateEscapeAnalysisReducerES3_S4_S5_S6_S7_S9_SB_EEEEEEEEEEEEEEEEEEEEEE11ReduceShiftENS2_1VINS2_13UntaggedUnionIJNS2_12WordWithBitsILm32EEENSV_ILm64EEEEEEEENST_ISW_EENS2_7ShiftOp4KindENS2_18WordRepresentationE:bb.a
  %i.di = load i64, ptr %i.dh, align 8
  %i.dj = trunc i64 %i.di to i32                  ; 7 uses
  %i.dk = zext nneg i8 %4 to i64
  %switch.gep = getelementptr inbounds nuw [4 x i8], ptr @switch.table._ZN2v88internal8compiler10turboshaft26MachineOptimizationReducerINS2_25MemoryOptimizationReducerINS2_24BranchEliminationReducerINS2_26LateLoadEliminationReducerINS2_23WasmCodeCoverageReducerINS2_21EmitProjectionReducerINS2_21ValueNumberingReducerINS2_18GenericReducerBaseINS2_13TSReducerBaseINS2_11StackBottomINS_4base3tmp5list1IJNS2_12GraphVisitorENS2_25LateEscapeAnalysisReducerES3_S4_S5_S6_S7_S9_SB_EEEEEEEEEEEEEEEEEEEEEE11ReduceShiftENS2_1VINS2_13UntaggedUnionIJNS2_12WordWithBitsILm32EEENSV_ILm64EEEEEEEENST_ISW_EENS2_7ShiftOp4KindENS2_18WordRepresentationE, i64 %i.dk
  %switch.load = load i32, ptr %switch.gep, align 4
  %i.dl = icmp ugt i32 %switch.load, %i.dj
  br i1 %i.dl, label %bb.az, label %_ZNK2v88internal8compiler10turboshaft16OperationMatcher18MatchConstantShiftINS2_13UntaggedUnionIJNS2_12WordWithBitsILm32EEENS6_ILm64EEEEEEQcl6IsWordIT_EEEEbNS2_1VINS2_3AnyEEEPNSB_ISA_EENS2_7ShiftOp4KindENS2_18WordRepresentationEPi.exit.thread
end_hunk_5
begin_hunk_6_@_ZN2v88internal8compiler10turboshaft26MachineOptimizationReducerINS2_25MemoryOptimizationReducerINS2_24BranchEliminationReducerINS2_26LateLoadEliminationReducerINS2_23WasmCodeCoverageReducerINS2_21EmitProjectionReducerINS2_21ValueNumberingReducerINS2_18GenericReducerBaseINS2_13TSReducerBaseINS2_11StackBottomINS_4base3tmp5list1IJNS2_12GraphVisitorENS2_25LateEscapeAnalysisReducerES3_S4_S5_S6_S7_S9_SB_EEEEEEEEEEEEEEEEEEEEEE11ReduceShiftENS2_1VINS2_13UntaggedUnionIJNS2_12WordWithBitsILm32EEENSV_ILm64EEEEEEEENST_ISW_EENS2_7ShiftOp4KindENS2_18WordRepresentationE:bb.a
  %i.fd = load i64, ptr %i.fc, align 8
  %i.fe = trunc i64 %i.fd to i32                  ; 2 uses
  %i.ff = zext nneg i8 %4 to i64
  %switch.gep269 = getelementptr inbounds nuw [4 x i8], ptr @switch.table._ZN2v88internal8compiler10turboshaft26MachineOptimizationReducerINS2_25MemoryOptimizationReducerINS2_24BranchEliminationReducerINS2_26LateLoadEliminationReducerINS2_23WasmCodeCoverageReducerINS2_21EmitProjectionReducerINS2_21ValueNumberingReducerINS2_18GenericReducerBaseINS2_13TSReducerBaseINS2_11StackBottomINS_4base3tmp5list1IJNS2_12GraphVisitorENS2_25LateEscapeAnalysisReducerES3_S4_S5_S6_S7_S9_SB_EEEEEEEEEEEEEEEEEEEEEE11ReduceShiftENS2_1VINS2_13UntaggedUnionIJNS2_12WordWithBitsILm32EEENSV_ILm64EEEEEEEENST_ISW_EENS2_7ShiftOp4KindENS2_18WordRepresentationE, i64 %i.ff
  %switch.load270 = load i32, ptr %switch.gep269, align 4
  %i.fg = icmp ugt i32 %switch.load270, %i.fe
  br i1 %i.fg, label %bb.bm, label %_ZNK2v88internal8compiler10turboshaft16OperationMatcher18MatchConstantShiftINS2_13UntaggedUnionIJNS2_12WordWithBitsILm32EEENS6_ILm64EEEEEEQcl6IsWordIT_EEEEbNS2_1VINS2_3AnyEEEPNSB_ISA_EENS2_7ShiftOp4KindENS2_18WordRepresentationEPi.exit130.thread
end_hunk_6
begin_hunk_7_@_ZN2v88internal8compiler10turboshaft13TSReducerBaseINS2_11StackBottomINS_4base3tmp5list1IJNS2_12GraphVisitorENS2_25LateEscapeAnalysisReducerENS2_26MachineOptimizationReducerENS2_25MemoryOptimizationReducerENS2_24BranchEliminationReducerENS2_26LateLoadEliminationReducerENS2_23WasmCodeCoverageReducerENS2_21ValueNumberingReducerES3_EEEEEE4EmitINS2_10ConstantOpEJNSK_4KindENS0_6TaggedINS0_3SmiEEEEEENS2_7OpIndexEDpT0_:bb.a
  %i.ai = getelementptr inbounds nuw i8, ptr %i.s, i64 4
  store i8 %1, ptr %i.ai, align 4
  %i.aj = zext nneg i8 %1 to i64
  %switch.gep = getelementptr inbounds nuw i8, ptr @switch.table._ZN2v88internal8compiler10turboshaft13TSReducerBaseINS2_11StackBottomINS_4base3tmp5list1IJNS2_12GraphVisitorENS2_25LateEscapeAnalysisReducerENS2_26MachineOptimizationReducerENS2_25MemoryOptimizationReducerENS2_24BranchEliminationReducerENS2_26LateLoadEliminationReducerENS2_23WasmCodeCoverageReducerENS2_21ValueNumberingReducerES3_EEEEEE4EmitINS2_10ConstantOpEJNSK_4KindENS0_6TaggedINS0_3SmiEEEEEENS2_7OpIndexEDpT0_, i64 %i.aj
  %switch.load = load i8, ptr %switch.gep, align 1
  %i.ak = getelementptr inbounds nuw i8, ptr %i.s, i64 5
  store i8 %switch.load, ptr %i.ak, align 1
end_hunk_7
begin_hunk_8_@_ZNK2v88internal8compiler10turboshaft21LoadDataViewElementOp11outputs_repEv:switch.lookup
  %i.a = getelementptr inbounds nuw i8, ptr %0, i64 4
  %i.b = load i32, ptr %i.a, align 4
  %i.c = sext i32 %i.b to i64
  %i.d = getelementptr [8 x i8], ptr @switch.table._ZNK2v88internal8compiler10turboshaft21LoadDataViewElementOp11outputs_repEv, i64 %i.c
  %switch.gep = getelementptr i8, ptr %i.d, i64 -8
  %switch.load = load i64, ptr %switch.gep, align 8
  %i.e = getelementptr inbounds nuw i8, ptr @_ZZN2v88internal8compiler10turboshaft12VectorForRepENS2_22RegisterRepresentationEE5table, i64 %switch.load
end_hunk_8
