begin_hunk_0_@_ZN11OpenImageIO4v3_17bmp_pvt13BmpFileHeader11read_headerEPNS0_10Filesystem7IOProxyE:bb.a
  %i.a = load ptr, ptr %1, align 8, !tbaa !7
  %i.b = getelementptr inbounds nuw i8, ptr %i.a, i64 56
  %i.c = load ptr, ptr %i.b, align 8
  %i.d = tail call noundef i64 %i.c(ptr noundef nonnull align 8 dereferenceable(88) %1, ptr noundef nonnull %0, i64 noundef 2)
  %i.e = icmp eq i64 %i.d, 2
  br i1 %i.e, label %bb.b, label %bb.f

end_hunk_0
begin_hunk_1_@_ZN11OpenImageIO4v3_17bmp_pvt13BmpFileHeader11read_headerEPNS0_10Filesystem7IOProxyE:bb.a
  %i.g = load ptr, ptr %1, align 8, !tbaa !7
  %i.h = getelementptr inbounds nuw i8, ptr %i.g, i64 56
  %i.i = load ptr, ptr %i.h, align 8
  %i.j = tail call noundef i64 %i.i(ptr noundef nonnull align 8 dereferenceable(88) %1, ptr noundef nonnull %i.f, i64 noundef 4)
  %i.k = icmp eq i64 %i.j, 4
  br i1 %i.k, label %bb.c, label %bb.f

end_hunk_1
begin_hunk_2_@_ZN11OpenImageIO4v3_17bmp_pvt13BmpFileHeader11read_headerEPNS0_10Filesystem7IOProxyE:bb.a
  %i.m = load ptr, ptr %1, align 8, !tbaa !7
  %i.n = getelementptr inbounds nuw i8, ptr %i.m, i64 56
  %i.o = load ptr, ptr %i.n, align 8
  %i.p = tail call noundef i64 %i.o(ptr noundef nonnull align 8 dereferenceable(88) %1, ptr noundef nonnull %i.l, i64 noundef 2)
  %i.q = icmp eq i64 %i.p, 2
  br i1 %i.q, label %bb.d, label %bb.f

end_hunk_2
begin_hunk_3_@_ZN11OpenImageIO4v3_17bmp_pvt13BmpFileHeader11read_headerEPNS0_10Filesystem7IOProxyE:bb.a
  %i.s = load ptr, ptr %1, align 8, !tbaa !7
  %i.t = getelementptr inbounds nuw i8, ptr %i.s, i64 56
  %i.u = load ptr, ptr %i.t, align 8
  %i.v = tail call noundef i64 %i.u(ptr noundef nonnull align 8 dereferenceable(88) %1, ptr noundef nonnull %i.r, i64 noundef 2)
  %i.w = icmp eq i64 %i.v, 2
  br i1 %i.w, label %bb.e, label %bb.f

end_hunk_3
begin_hunk_4_@_ZN11OpenImageIO4v3_17bmp_pvt13BmpFileHeader11read_headerEPNS0_10Filesystem7IOProxyE:bb.a
  %i.y = load ptr, ptr %1, align 8, !tbaa !7
  %i.z = getelementptr inbounds nuw i8, ptr %i.y, i64 56
  %i.aa = load ptr, ptr %i.z, align 8
  %i.ab = tail call noundef i64 %i.aa(ptr noundef nonnull align 8 dereferenceable(88) %1, ptr noundef nonnull %i.x, i64 noundef 4)
  %i.ac = icmp eq i64 %i.ab, 4
  br label %bb.f

end_hunk_4
begin_hunk_5_@_ZN11OpenImageIO4v3_17bmp_pvt13BmpFileHeader12write_headerEPNS0_10Filesystem7IOProxyE:bb.a
  %i.a = load ptr, ptr %1, align 8, !tbaa !7
  %i.b = getelementptr inbounds nuw i8, ptr %i.a, i64 64
  %i.c = load ptr, ptr %i.b, align 8
  %i.d = tail call noundef i64 %i.c(ptr noundef nonnull align 8 dereferenceable(88) %1, ptr noundef nonnull %0, i64 noundef 2)
  %i.e = icmp eq i64 %i.d, 2
  br i1 %i.e, label %bb.b, label %bb.f

end_hunk_5
begin_hunk_6_@_ZN11OpenImageIO4v3_17bmp_pvt13BmpFileHeader12write_headerEPNS0_10Filesystem7IOProxyE:bb.a
  %i.g = load ptr, ptr %1, align 8, !tbaa !7
  %i.h = getelementptr inbounds nuw i8, ptr %i.g, i64 64
  %i.i = load ptr, ptr %i.h, align 8
  %i.j = tail call noundef i64 %i.i(ptr noundef nonnull align 8 dereferenceable(88) %1, ptr noundef nonnull %i.f, i64 noundef 4)
  %i.k = icmp eq i64 %i.j, 4
  br i1 %i.k, label %bb.c, label %bb.f

end_hunk_6
begin_hunk_7_@_ZN11OpenImageIO4v3_17bmp_pvt13BmpFileHeader12write_headerEPNS0_10Filesystem7IOProxyE:bb.a
  %i.m = load ptr, ptr %1, align 8, !tbaa !7
  %i.n = getelementptr inbounds nuw i8, ptr %i.m, i64 64
  %i.o = load ptr, ptr %i.n, align 8
  %i.p = tail call noundef i64 %i.o(ptr noundef nonnull align 8 dereferenceable(88) %1, ptr noundef nonnull %i.l, i64 noundef 2)
  %i.q = icmp eq i64 %i.p, 2
  br i1 %i.q, label %bb.d, label %bb.f

end_hunk_7
begin_hunk_8_@_ZN11OpenImageIO4v3_17bmp_pvt13BmpFileHeader12write_headerEPNS0_10Filesystem7IOProxyE:bb.a
  %i.s = load ptr, ptr %1, align 8, !tbaa !7
  %i.t = getelementptr inbounds nuw i8, ptr %i.s, i64 64
  %i.u = load ptr, ptr %i.t, align 8
  %i.v = tail call noundef i64 %i.u(ptr noundef nonnull align 8 dereferenceable(88) %1, ptr noundef nonnull %i.r, i64 noundef 2)
  %i.w = icmp eq i64 %i.v, 2
  br i1 %i.w, label %bb.e, label %bb.f

end_hunk_8
begin_hunk_9_@_ZN11OpenImageIO4v3_17bmp_pvt13BmpFileHeader12write_headerEPNS0_10Filesystem7IOProxyE:bb.a
  %i.y = load ptr, ptr %1, align 8, !tbaa !7
  %i.z = getelementptr inbounds nuw i8, ptr %i.y, i64 64
  %i.aa = load ptr, ptr %i.z, align 8
  %i.ab = tail call noundef i64 %i.aa(ptr noundef nonnull align 8 dereferenceable(88) %1, ptr noundef nonnull %i.x, i64 noundef 4)
  %i.ac = icmp eq i64 %i.ab, 4
  br label %bb.f

end_hunk_9
begin_hunk_10_@_ZN11OpenImageIO4v3_17bmp_pvt13BmpFileHeader12write_headerEPNS0_10Filesystem7IOProxyE:bb.a
; Function Attrs: mustprogress nofree norecurse nosync nounwind willreturn memory(argmem: read) uwtable
define hidden noundef zeroext i1 @_ZNK11OpenImageIO4v3_17bmp_pvt13BmpFileHeader5isBmpEv(ptr noundef nonnull readonly align 4 captures(none) dereferenceable(16) %0) local_unnamed_addr #1 align 2 {
bb.a:
  %i.a = load i16, ptr %0, align 4, !tbaa !9
  switch i16 %i.a, label %bb.b [
    i16 19778, label %bb.c
    i16 16706, label %bb.c
end_hunk_10
begin_hunk_11_@_ZNK11OpenImageIO4v3_17bmp_pvt13BmpFileHeader5isBmpEv:bb.a
; Function Attrs: mustprogress nofree norecurse nosync nounwind willreturn memory(argmem: readwrite) uwtable
define hidden void @_ZN11OpenImageIO4v3_17bmp_pvt13BmpFileHeader11swap_endianEv(ptr noundef nonnull align 4 captures(none) dereferenceable(16) %0) local_unnamed_addr #2 align 2 {
.lr.ph.i:
  %i.a = load i16, ptr %0, align 4, !tbaa !12
  %i.b = tail call noundef i16 @llvm.bswap.i16(i16 %i.a)
  store i16 %i.b, ptr %0, align 4, !tbaa !12
  %i.c = getelementptr inbounds nuw i8, ptr %0, i64 4 ; 2 uses
  %i.d = load i32, ptr %i.c, align 4, !tbaa !3
  %i.e = tail call noundef i32 @llvm.bswap.i32(i32 %i.d)
end_hunk_11
begin_hunk_12_@_ZN11OpenImageIO4v3_17bmp_pvt20DibInformationHeader11read_headerEPNS0_10Filesystem7IOProxyE:bb.a
  %i.c = load ptr, ptr %1, align 8, !tbaa !7
  %i.d = getelementptr inbounds nuw i8, ptr %i.c, i64 56
  %i.e = load ptr, ptr %i.d, align 8
  %i.f = tail call noundef i64 %i.e(ptr noundef nonnull align 8 dereferenceable(88) %1, ptr noundef nonnull %0, i64 noundef 4)
  %i.g = icmp eq i64 %i.f, 4
  br i1 %i.g, label %bb.b, label %bb.ar

bb.b:                                             ; preds = %bb.a
  %i.h = load i32, ptr %0, align 4, !tbaa !13
  switch i32 %i.h, label %.thread47 [
    i32 40, label %bb.c
    i32 108, label %bb.c
end_hunk_12
begin_hunk_13_@_ZN11OpenImageIO4v3_17bmp_pvt20DibInformationHeader11read_headerEPNS0_10Filesystem7IOProxyE:bb.a
  %i.j = load ptr, ptr %1, align 8, !tbaa !7
  %i.k = getelementptr inbounds nuw i8, ptr %i.j, i64 56
  %i.l = load ptr, ptr %i.k, align 8
  %i.m = tail call noundef i64 %i.l(ptr noundef nonnull align 8 dereferenceable(88) %1, ptr noundef nonnull %i.i, i64 noundef 4)
  %i.n = icmp eq i64 %i.m, 4
  br i1 %i.n, label %bb.d, label %bb.ar

end_hunk_13
begin_hunk_14_@_ZN11OpenImageIO4v3_17bmp_pvt20DibInformationHeader11read_headerEPNS0_10Filesystem7IOProxyE:bb.a
  %i.p = load ptr, ptr %1, align 8, !tbaa !7
  %i.q = getelementptr inbounds nuw i8, ptr %i.p, i64 56
  %i.r = load ptr, ptr %i.q, align 8
  %i.s = tail call noundef i64 %i.r(ptr noundef nonnull align 8 dereferenceable(88) %1, ptr noundef nonnull %i.o, i64 noundef 4)
  %i.t = icmp eq i64 %i.s, 4
  br i1 %i.t, label %bb.e, label %bb.ar

end_hunk_14
begin_hunk_15_@_ZN11OpenImageIO4v3_17bmp_pvt20DibInformationHeader11read_headerEPNS0_10Filesystem7IOProxyE:bb.a
  %i.v = load ptr, ptr %1, align 8, !tbaa !7
  %i.w = getelementptr inbounds nuw i8, ptr %i.v, i64 56
  %i.x = load ptr, ptr %i.w, align 8
  %i.y = tail call noundef i64 %i.x(ptr noundef nonnull align 8 dereferenceable(88) %1, ptr noundef nonnull %i.u, i64 noundef 2)
  %i.z = icmp eq i64 %i.y, 2
  br i1 %i.z, label %bb.f, label %bb.ar

end_hunk_15
begin_hunk_16_@_ZN11OpenImageIO4v3_17bmp_pvt20DibInformationHeader11read_headerEPNS0_10Filesystem7IOProxyE:bb.a
  %i.ab = load ptr, ptr %1, align 8, !tbaa !7
  %i.ac = getelementptr inbounds nuw i8, ptr %i.ab, i64 56
  %i.ad = load ptr, ptr %i.ac, align 8
  %i.ae = tail call noundef i64 %i.ad(ptr noundef nonnull align 8 dereferenceable(88) %1, ptr noundef nonnull %i.aa, i64 noundef 2)
  %i.af = icmp eq i64 %i.ae, 2
  br i1 %i.af, label %bb.g, label %bb.ar

end_hunk_16
begin_hunk_17_@_ZN11OpenImageIO4v3_17bmp_pvt20DibInformationHeader11read_headerEPNS0_10Filesystem7IOProxyE:bb.a
  %i.ah = load ptr, ptr %1, align 8, !tbaa !7
  %i.ai = getelementptr inbounds nuw i8, ptr %i.ah, i64 56
  %i.aj = load ptr, ptr %i.ai, align 8
  %i.ak = tail call noundef i64 %i.aj(ptr noundef nonnull align 8 dereferenceable(88) %1, ptr noundef nonnull %i.ag, i64 noundef 4)
  %i.al = icmp eq i64 %i.ak, 4
  br i1 %i.al, label %bb.h, label %bb.ar

end_hunk_17
begin_hunk_18_@_ZN11OpenImageIO4v3_17bmp_pvt20DibInformationHeader11read_headerEPNS0_10Filesystem7IOProxyE:bb.a
  %i.an = load ptr, ptr %1, align 8, !tbaa !7
  %i.ao = getelementptr inbounds nuw i8, ptr %i.an, i64 56
  %i.ap = load ptr, ptr %i.ao, align 8
  %i.aq = tail call noundef i64 %i.ap(ptr noundef nonnull align 8 dereferenceable(88) %1, ptr noundef nonnull %i.am, i64 noundef 4)
  %i.ar = icmp eq i64 %i.aq, 4
  br i1 %i.ar, label %bb.i, label %bb.ar

end_hunk_18
begin_hunk_19_@_ZN11OpenImageIO4v3_17bmp_pvt20DibInformationHeader11read_headerEPNS0_10Filesystem7IOProxyE:bb.a
  %i.at = load ptr, ptr %1, align 8, !tbaa !7
  %i.au = getelementptr inbounds nuw i8, ptr %i.at, i64 56
  %i.av = load ptr, ptr %i.au, align 8
  %i.aw = tail call noundef i64 %i.av(ptr noundef nonnull align 8 dereferenceable(88) %1, ptr noundef nonnull %i.as, i64 noundef 4)
  %i.ax = icmp eq i64 %i.aw, 4
  br i1 %i.ax, label %bb.j, label %bb.ar

end_hunk_19
begin_hunk_20_@_ZN11OpenImageIO4v3_17bmp_pvt20DibInformationHeader11read_headerEPNS0_10Filesystem7IOProxyE:bb.a
  %i.az = load ptr, ptr %1, align 8, !tbaa !7
  %i.ba = getelementptr inbounds nuw i8, ptr %i.az, i64 56
  %i.bb = load ptr, ptr %i.ba, align 8
  %i.bc = tail call noundef i64 %i.bb(ptr noundef nonnull align 8 dereferenceable(88) %1, ptr noundef nonnull %i.ay, i64 noundef 4)
  %i.bd = icmp eq i64 %i.bc, 4
  br i1 %i.bd, label %bb.k, label %bb.ar

end_hunk_20
begin_hunk_21_@_ZN11OpenImageIO4v3_17bmp_pvt20DibInformationHeader11read_headerEPNS0_10Filesystem7IOProxyE:bb.a
  %i.bf = load ptr, ptr %1, align 8, !tbaa !7
  %i.bg = getelementptr inbounds nuw i8, ptr %i.bf, i64 56
  %i.bh = load ptr, ptr %i.bg, align 8
  %i.bi = tail call noundef i64 %i.bh(ptr noundef nonnull align 8 dereferenceable(88) %1, ptr noundef nonnull %i.be, i64 noundef 4)
  %i.bj = icmp eq i64 %i.bi, 4
  br i1 %i.bj, label %bb.l, label %bb.ar

end_hunk_21
begin_hunk_22_@_ZN11OpenImageIO4v3_17bmp_pvt20DibInformationHeader11read_headerEPNS0_10Filesystem7IOProxyE:bb.a
  %i.bl = load ptr, ptr %1, align 8, !tbaa !7
  %i.bm = getelementptr inbounds nuw i8, ptr %i.bl, i64 56
  %i.bn = load ptr, ptr %i.bm, align 8
  %i.bo = tail call noundef i64 %i.bn(ptr noundef nonnull align 8 dereferenceable(88) %1, ptr noundef nonnull %i.bk, i64 noundef 4)
  %i.bp = icmp eq i64 %i.bo, 4
  br i1 %i.bp, label %bb.m, label %bb.ar

bb.m:                                             ; preds = %bb.l
  %i.bq = load i32, ptr %0, align 4, !tbaa !13    ; 3 uses
  %i.br = icmp eq i32 %i.bq, 40
  %i.bs = load i16, ptr %i.aa, align 2
  %i.bt = icmp eq i16 %i.bs, 16
end_hunk_22
begin_hunk_23_@_ZN11OpenImageIO4v3_17bmp_pvt20DibInformationHeader11read_headerEPNS0_10Filesystem7IOProxyE:bb.a
  %i.bx = load ptr, ptr %1, align 8, !tbaa !7
  %i.by = getelementptr inbounds nuw i8, ptr %i.bx, i64 56
  %i.bz = load ptr, ptr %i.by, align 8
  %i.ca = tail call noundef i64 %i.bz(ptr noundef nonnull align 8 dereferenceable(88) %1, ptr noundef nonnull %i.bw, i64 noundef 4)
  %i.cb = icmp eq i64 %i.ca, 4
  br i1 %i.cb, label %bb.p, label %bb.ar

end_hunk_23
begin_hunk_24_@_ZN11OpenImageIO4v3_17bmp_pvt20DibInformationHeader11read_headerEPNS0_10Filesystem7IOProxyE:bb.a
  %i.cd = load ptr, ptr %1, align 8, !tbaa !7
  %i.ce = getelementptr inbounds nuw i8, ptr %i.cd, i64 56
  %i.cf = load ptr, ptr %i.ce, align 8
  %i.cg = tail call noundef i64 %i.cf(ptr noundef nonnull align 8 dereferenceable(88) %1, ptr noundef nonnull %i.cc, i64 noundef 4)
  %i.ch = icmp eq i64 %i.cg, 4
  br i1 %i.ch, label %bb.q, label %bb.ar

end_hunk_24
begin_hunk_25_@_ZN11OpenImageIO4v3_17bmp_pvt20DibInformationHeader11read_headerEPNS0_10Filesystem7IOProxyE:bb.a
  %i.cj = load ptr, ptr %1, align 8, !tbaa !7
  %i.ck = getelementptr inbounds nuw i8, ptr %i.cj, i64 56
  %i.cl = load ptr, ptr %i.ck, align 8
  %i.cm = tail call noundef i64 %i.cl(ptr noundef nonnull align 8 dereferenceable(88) %1, ptr noundef nonnull %i.ci, i64 noundef 4)
  %i.cn = icmp eq i64 %i.cm, 4
  br i1 %i.cn, label %bb.r, label %bb.ar

bb.r:                                             ; preds = %bb.q
  %i.co = load i32, ptr %0, align 4, !tbaa !13
  %.not = icmp eq i32 %i.co, 52
  br i1 %.not, label %.thread47, label %bb.s

end_hunk_25
begin_hunk_26_@_ZN11OpenImageIO4v3_17bmp_pvt20DibInformationHeader11read_headerEPNS0_10Filesystem7IOProxyE:bb.a
  %i.cq = load ptr, ptr %1, align 8, !tbaa !7
  %i.cr = getelementptr inbounds nuw i8, ptr %i.cq, i64 56
  %i.cs = load ptr, ptr %i.cr, align 8
  %i.ct = tail call noundef i64 %i.cs(ptr noundef nonnull align 8 dereferenceable(88) %1, ptr noundef nonnull %i.cp, i64 noundef 4)
  %i.cu = icmp eq i64 %i.ct, 4
  br i1 %i.cu, label %._crit_edge, label %bb.ar

._crit_edge:                                      ; preds = %bb.s
  %.pr.pre = load i32, ptr %0, align 4, !tbaa !13
  br label %bb.t

bb.t:                                             ; preds = %._crit_edge, %bb.n
end_hunk_26
begin_hunk_27_@_ZN11OpenImageIO4v3_17bmp_pvt20DibInformationHeader11read_headerEPNS0_10Filesystem7IOProxyE:bb.a
  %i.cw = load ptr, ptr %1, align 8, !tbaa !7
  %i.cx = getelementptr inbounds nuw i8, ptr %i.cw, i64 56
  %i.cy = load ptr, ptr %i.cx, align 8
  %i.cz = tail call noundef i64 %i.cy(ptr noundef nonnull align 8 dereferenceable(88) %1, ptr noundef nonnull %i.cv, i64 noundef 4)
  %i.da = icmp eq i64 %i.cz, 4
  br i1 %i.da, label %bb.v, label %bb.ar

end_hunk_27
begin_hunk_28_@_ZN11OpenImageIO4v3_17bmp_pvt20DibInformationHeader11read_headerEPNS0_10Filesystem7IOProxyE:bb.a
  %i.dc = load ptr, ptr %1, align 8, !tbaa !7
  %i.dd = getelementptr inbounds nuw i8, ptr %i.dc, i64 56
  %i.de = load ptr, ptr %i.dd, align 8
  %i.df = tail call noundef i64 %i.de(ptr noundef nonnull align 8 dereferenceable(88) %1, ptr noundef nonnull %i.db, i64 noundef 4)
  %i.dg = icmp eq i64 %i.df, 4
  br i1 %i.dg, label %bb.w, label %bb.ar

end_hunk_28
begin_hunk_29_@_ZN11OpenImageIO4v3_17bmp_pvt20DibInformationHeader11read_headerEPNS0_10Filesystem7IOProxyE:bb.a
  %i.di = load ptr, ptr %1, align 8, !tbaa !7
  %i.dj = getelementptr inbounds nuw i8, ptr %i.di, i64 56
  %i.dk = load ptr, ptr %i.dj, align 8
  %i.dl = tail call noundef i64 %i.dk(ptr noundef nonnull align 8 dereferenceable(88) %1, ptr noundef nonnull %i.dh, i64 noundef 4)
  %i.dm = icmp eq i64 %i.dl, 4
  br i1 %i.dm, label %bb.x, label %bb.ar

end_hunk_29
begin_hunk_30_@_ZN11OpenImageIO4v3_17bmp_pvt20DibInformationHeader11read_headerEPNS0_10Filesystem7IOProxyE:bb.a
  %i.do = load ptr, ptr %1, align 8, !tbaa !7
  %i.dp = getelementptr inbounds nuw i8, ptr %i.do, i64 56
  %i.dq = load ptr, ptr %i.dp, align 8
  %i.dr = tail call noundef i64 %i.dq(ptr noundef nonnull align 8 dereferenceable(88) %1, ptr noundef nonnull %i.dn, i64 noundef 4)
  %i.ds = icmp eq i64 %i.dr, 4
  br i1 %i.ds, label %bb.y, label %bb.ar

end_hunk_30
begin_hunk_31_@_ZN11OpenImageIO4v3_17bmp_pvt20DibInformationHeader11read_headerEPNS0_10Filesystem7IOProxyE:bb.a
  %i.du = load ptr, ptr %1, align 8, !tbaa !7
  %i.dv = getelementptr inbounds nuw i8, ptr %i.du, i64 56
  %i.dw = load ptr, ptr %i.dv, align 8
  %i.dx = tail call noundef i64 %i.dw(ptr noundef nonnull align 8 dereferenceable(88) %1, ptr noundef nonnull %i.dt, i64 noundef 4)
  %i.dy = icmp eq i64 %i.dx, 4
  br i1 %i.dy, label %bb.z, label %bb.ar

end_hunk_31
begin_hunk_32_@_ZN11OpenImageIO4v3_17bmp_pvt20DibInformationHeader11read_headerEPNS0_10Filesystem7IOProxyE:bb.a
  %i.ea = load ptr, ptr %1, align 8, !tbaa !7
  %i.eb = getelementptr inbounds nuw i8, ptr %i.ea, i64 56
  %i.ec = load ptr, ptr %i.eb, align 8
  %i.ed = tail call noundef i64 %i.ec(ptr noundef nonnull align 8 dereferenceable(88) %1, ptr noundef nonnull %i.dz, i64 noundef 4)
  %i.ee = icmp eq i64 %i.ed, 4
  br i1 %i.ee, label %bb.aa, label %bb.ar

end_hunk_32
begin_hunk_33_@_ZN11OpenImageIO4v3_17bmp_pvt20DibInformationHeader11read_headerEPNS0_10Filesystem7IOProxyE:bb.a
  %i.eg = load ptr, ptr %1, align 8, !tbaa !7
  %i.eh = getelementptr inbounds nuw i8, ptr %i.eg, i64 56
  %i.ei = load ptr, ptr %i.eh, align 8
  %i.ej = tail call noundef i64 %i.ei(ptr noundef nonnull align 8 dereferenceable(88) %1, ptr noundef nonnull %i.ef, i64 noundef 4)
  %i.ek = icmp eq i64 %i.ej, 4
  br i1 %i.ek, label %bb.ab, label %bb.ar

end_hunk_33
begin_hunk_34_@_ZN11OpenImageIO4v3_17bmp_pvt20DibInformationHeader11read_headerEPNS0_10Filesystem7IOProxyE:bb.a
  %i.em = load ptr, ptr %1, align 8, !tbaa !7
  %i.en = getelementptr inbounds nuw i8, ptr %i.em, i64 56
  %i.eo = load ptr, ptr %i.en, align 8
  %i.ep = tail call noundef i64 %i.eo(ptr noundef nonnull align 8 dereferenceable(88) %1, ptr noundef nonnull %i.el, i64 noundef 4)
  %i.eq = icmp eq i64 %i.ep, 4
  br i1 %i.eq, label %bb.ac, label %bb.ar

end_hunk_34
begin_hunk_35_@_ZN11OpenImageIO4v3_17bmp_pvt20DibInformationHeader11read_headerEPNS0_10Filesystem7IOProxyE:bb.a
  %i.es = load ptr, ptr %1, align 8, !tbaa !7
  %i.et = getelementptr inbounds nuw i8, ptr %i.es, i64 56
  %i.eu = load ptr, ptr %i.et, align 8
  %i.ev = tail call noundef i64 %i.eu(ptr noundef nonnull align 8 dereferenceable(88) %1, ptr noundef nonnull %i.er, i64 noundef 4)
  %i.ew = icmp eq i64 %i.ev, 4
  br i1 %i.ew, label %bb.ad, label %bb.ar

end_hunk_35
begin_hunk_36_@_ZN11OpenImageIO4v3_17bmp_pvt20DibInformationHeader11read_headerEPNS0_10Filesystem7IOProxyE:bb.a
  %i.ey = load ptr, ptr %1, align 8, !tbaa !7
  %i.ez = getelementptr inbounds nuw i8, ptr %i.ey, i64 56
  %i.fa = load ptr, ptr %i.ez, align 8
  %i.fb = tail call noundef i64 %i.fa(ptr noundef nonnull align 8 dereferenceable(88) %1, ptr noundef nonnull %i.ex, i64 noundef 4)
  %i.fc = icmp eq i64 %i.fb, 4
  br i1 %i.fc, label %bb.ae, label %bb.ar

end_hunk_36
begin_hunk_37_@_ZN11OpenImageIO4v3_17bmp_pvt20DibInformationHeader11read_headerEPNS0_10Filesystem7IOProxyE:bb.a
  %i.fe = load ptr, ptr %1, align 8, !tbaa !7
  %i.ff = getelementptr inbounds nuw i8, ptr %i.fe, i64 56
  %i.fg = load ptr, ptr %i.ff, align 8
  %i.fh = tail call noundef i64 %i.fg(ptr noundef nonnull align 8 dereferenceable(88) %1, ptr noundef nonnull %i.fd, i64 noundef 4)
  %i.fi = icmp eq i64 %i.fh, 4
  br i1 %i.fi, label %bb.af, label %bb.ar

end_hunk_37
begin_hunk_38_@_ZN11OpenImageIO4v3_17bmp_pvt20DibInformationHeader11read_headerEPNS0_10Filesystem7IOProxyE:bb.a
  %i.fk = load ptr, ptr %1, align 8, !tbaa !7
  %i.fl = getelementptr inbounds nuw i8, ptr %i.fk, i64 56
  %i.fm = load ptr, ptr %i.fl, align 8
  %i.fn = tail call noundef i64 %i.fm(ptr noundef nonnull align 8 dereferenceable(88) %1, ptr noundef nonnull %i.fj, i64 noundef 4)
  %i.fo = icmp eq i64 %i.fn, 4
  br i1 %i.fo, label %bb.ag, label %bb.ar

end_hunk_38
begin_hunk_39_@_ZN11OpenImageIO4v3_17bmp_pvt20DibInformationHeader11read_headerEPNS0_10Filesystem7IOProxyE:bb.a
  %i.fq = load ptr, ptr %1, align 8, !tbaa !7
  %i.fr = getelementptr inbounds nuw i8, ptr %i.fq, i64 56
  %i.fs = load ptr, ptr %i.fr, align 8
  %i.ft = tail call noundef i64 %i.fs(ptr noundef nonnull align 8 dereferenceable(88) %1, ptr noundef nonnull %i.fp, i64 noundef 4)
  %i.fu = icmp eq i64 %i.ft, 4
  br i1 %i.fu, label %bb.ah, label %bb.ar

bb.ah:                                            ; preds = %bb.ag
  %.pr46 = load i32, ptr %0, align 4, !tbaa !13
  %i.fv = icmp eq i32 %.pr46, 124
  br i1 %i.fv, label %bb.ai, label %.thread47

end_hunk_39
begin_hunk_40_@_ZN11OpenImageIO4v3_17bmp_pvt20DibInformationHeader11read_headerEPNS0_10Filesystem7IOProxyE:bb.a
  %i.fx = load ptr, ptr %1, align 8, !tbaa !7
  %i.fy = getelementptr inbounds nuw i8, ptr %i.fx, i64 56
  %i.fz = load ptr, ptr %i.fy, align 8
  %i.ga = tail call noundef i64 %i.fz(ptr noundef nonnull align 8 dereferenceable(88) %1, ptr noundef nonnull %i.fw, i64 noundef 4)
  %i.gb = icmp eq i64 %i.ga, 4
  br i1 %i.gb, label %bb.aj, label %bb.ar

end_hunk_40
begin_hunk_41_@_ZN11OpenImageIO4v3_17bmp_pvt20DibInformationHeader11read_headerEPNS0_10Filesystem7IOProxyE:bb.a
  %i.gd = load ptr, ptr %1, align 8, !tbaa !7
  %i.ge = getelementptr inbounds nuw i8, ptr %i.gd, i64 56
  %i.gf = load ptr, ptr %i.ge, align 8
  %i.gg = tail call noundef i64 %i.gf(ptr noundef nonnull align 8 dereferenceable(88) %1, ptr noundef nonnull %i.gc, i64 noundef 4)
  %i.gh = icmp eq i64 %i.gg, 4
  br i1 %i.gh, label %bb.ak, label %bb.ar

end_hunk_41
begin_hunk_42_@_ZN11OpenImageIO4v3_17bmp_pvt20DibInformationHeader11read_headerEPNS0_10Filesystem7IOProxyE:bb.a
  %i.gj = load ptr, ptr %1, align 8, !tbaa !7
  %i.gk = getelementptr inbounds nuw i8, ptr %i.gj, i64 56
  %i.gl = load ptr, ptr %i.gk, align 8
  %i.gm = tail call noundef i64 %i.gl(ptr noundef nonnull align 8 dereferenceable(88) %1, ptr noundef nonnull %i.gi, i64 noundef 4)
  %i.gn = icmp eq i64 %i.gm, 4
  br i1 %i.gn, label %bb.al, label %bb.ar

end_hunk_42
begin_hunk_43_@_ZN11OpenImageIO4v3_17bmp_pvt20DibInformationHeader11read_headerEPNS0_10Filesystem7IOProxyE:bb.a
  %i.gp = load ptr, ptr %1, align 8, !tbaa !7
  %i.gq = getelementptr inbounds nuw i8, ptr %i.gp, i64 56
  %i.gr = load ptr, ptr %i.gq, align 8
  %i.gs = tail call noundef i64 %i.gr(ptr noundef nonnull align 8 dereferenceable(88) %1, ptr noundef nonnull %i.go, i64 noundef 4)
  %i.gt = icmp eq i64 %i.gs, 4
  br i1 %i.gt, label %.thread47, label %bb.ar

bb.am:                                            ; preds = %bb.b
  call void @llvm.lifetime.start.p0(ptr nonnull %i.a) #6
  store i16 0, ptr %i.a, align 2, !tbaa !12
  call void @llvm.lifetime.start.p0(ptr nonnull %i.b) #6
  store i16 0, ptr %i.b, align 2, !tbaa !12
  %i.gu = load ptr, ptr %1, align 8, !tbaa !7
  %i.gv = getelementptr inbounds nuw i8, ptr %i.gu, i64 56
  %i.gw = load ptr, ptr %i.gv, align 8
  %i.gx = call noundef i64 %i.gw(ptr noundef nonnull align 8 dereferenceable(88) %1, ptr noundef nonnull %i.a, i64 noundef 2)
  %i.gy = icmp eq i64 %i.gx, 2
  br i1 %i.gy, label %bb.an, label %.thread49

end_hunk_43
begin_hunk_44_@_ZN11OpenImageIO4v3_17bmp_pvt20DibInformationHeader11read_headerEPNS0_10Filesystem7IOProxyE:bb.a
  %i.gz = load ptr, ptr %1, align 8, !tbaa !7
  %i.ha = getelementptr inbounds nuw i8, ptr %i.gz, i64 56
  %i.hb = load ptr, ptr %i.ha, align 8
  %i.hc = call noundef i64 %i.hb(ptr noundef nonnull align 8 dereferenceable(88) %1, ptr noundef nonnull %i.b, i64 noundef 2)
  %i.hd = icmp eq i64 %i.hc, 2
  br i1 %i.hd, label %bb.ao, label %.thread49

end_hunk_44
begin_hunk_45_@_ZN11OpenImageIO4v3_17bmp_pvt20DibInformationHeader11read_headerEPNS0_10Filesystem7IOProxyE:bb.a
  %i.hf = load ptr, ptr %1, align 8, !tbaa !7
  %i.hg = getelementptr inbounds nuw i8, ptr %i.hf, i64 56
  %i.hh = load ptr, ptr %i.hg, align 8
  %i.hi = call noundef i64 %i.hh(ptr noundef nonnull align 8 dereferenceable(88) %1, ptr noundef nonnull %i.he, i64 noundef 2)
  %i.hj = icmp eq i64 %i.hi, 2
  br i1 %i.hj, label %bb.ap, label %.thread49

end_hunk_45
begin_hunk_46_@_ZN11OpenImageIO4v3_17bmp_pvt20DibInformationHeader11read_headerEPNS0_10Filesystem7IOProxyE:bb.a
  %i.hl = load ptr, ptr %1, align 8, !tbaa !7
  %i.hm = getelementptr inbounds nuw i8, ptr %i.hl, i64 56
  %i.hn = load ptr, ptr %i.hm, align 8
  %i.ho = call noundef i64 %i.hn(ptr noundef nonnull align 8 dereferenceable(88) %1, ptr noundef nonnull %i.hk, i64 noundef 2)
  %i.hp = icmp eq i64 %i.ho, 2
  br i1 %i.hp, label %bb.aq, label %.thread49

end_hunk_46
begin_hunk_47_@_ZN11OpenImageIO4v3_17bmp_pvt20DibInformationHeader11read_headerEPNS0_10Filesystem7IOProxyE:bb.a
  br label %bb.ar

bb.aq:                                            ; preds = %bb.ap
  %i.hq = load i16, ptr %i.a, align 2, !tbaa !12
  %i.hr = zext i16 %i.hq to i32
  %i.hs = getelementptr inbounds nuw i8, ptr %0, i64 4
  store i32 %i.hr, ptr %i.hs, align 4, !tbaa !15
  %i.ht = load i16, ptr %i.b, align 2, !tbaa !12
  %i.hu = zext i16 %i.ht to i32
  %i.hv = getelementptr inbounds nuw i8, ptr %0, i64 8
  store i32 %i.hu, ptr %i.hv, align 4, !tbaa !16
  call void @llvm.lifetime.end.p0(ptr nonnull %i.b) #6
  call void @llvm.lifetime.end.p0(ptr nonnull %i.a) #6
  br label %.thread47
end_hunk_47
begin_hunk_48_@_ZN11OpenImageIO4v3_17bmp_pvt20DibInformationHeader12write_headerEPNS0_10Filesystem7IOProxyE:bb.a
  %i.a = load ptr, ptr %1, align 8, !tbaa !7
  %i.b = getelementptr inbounds nuw i8, ptr %i.a, i64 64
  %i.c = load ptr, ptr %i.b, align 8
  %i.d = tail call noundef i64 %i.c(ptr noundef nonnull align 8 dereferenceable(88) %1, ptr noundef nonnull %0, i64 noundef 4)
  %i.e = icmp eq i64 %i.d, 4
  br i1 %i.e, label %bb.b, label %bb.l

end_hunk_48
begin_hunk_49_@_ZN11OpenImageIO4v3_17bmp_pvt20DibInformationHeader12write_headerEPNS0_10Filesystem7IOProxyE:bb.a
  %i.g = load ptr, ptr %1, align 8, !tbaa !7
  %i.h = getelementptr inbounds nuw i8, ptr %i.g, i64 64
  %i.i = load ptr, ptr %i.h, align 8
  %i.j = tail call noundef i64 %i.i(ptr noundef nonnull align 8 dereferenceable(88) %1, ptr noundef nonnull %i.f, i64 noundef 4)
  %i.k = icmp eq i64 %i.j, 4
  br i1 %i.k, label %bb.c, label %bb.l

end_hunk_49
begin_hunk_50_@_ZN11OpenImageIO4v3_17bmp_pvt20DibInformationHeader12write_headerEPNS0_10Filesystem7IOProxyE:bb.a
  %i.m = load ptr, ptr %1, align 8, !tbaa !7
  %i.n = getelementptr inbounds nuw i8, ptr %i.m, i64 64
  %i.o = load ptr, ptr %i.n, align 8
  %i.p = tail call noundef i64 %i.o(ptr noundef nonnull align 8 dereferenceable(88) %1, ptr noundef nonnull %i.l, i64 noundef 4)
  %i.q = icmp eq i64 %i.p, 4
  br i1 %i.q, label %bb.d, label %bb.l

end_hunk_50
begin_hunk_51_@_ZN11OpenImageIO4v3_17bmp_pvt20DibInformationHeader12write_headerEPNS0_10Filesystem7IOProxyE:bb.a
  %i.s = load ptr, ptr %1, align 8, !tbaa !7
  %i.t = getelementptr inbounds nuw i8, ptr %i.s, i64 64
  %i.u = load ptr, ptr %i.t, align 8
  %i.v = tail call noundef i64 %i.u(ptr noundef nonnull align 8 dereferenceable(88) %1, ptr noundef nonnull %i.r, i64 noundef 2)
  %i.w = icmp eq i64 %i.v, 2
  br i1 %i.w, label %bb.e, label %bb.l

end_hunk_51
begin_hunk_52_@_ZN11OpenImageIO4v3_17bmp_pvt20DibInformationHeader12write_headerEPNS0_10Filesystem7IOProxyE:bb.a
  %i.y = load ptr, ptr %1, align 8, !tbaa !7
  %i.z = getelementptr inbounds nuw i8, ptr %i.y, i64 64
  %i.aa = load ptr, ptr %i.z, align 8
  %i.ab = tail call noundef i64 %i.aa(ptr noundef nonnull align 8 dereferenceable(88) %1, ptr noundef nonnull %i.x, i64 noundef 2)
  %i.ac = icmp eq i64 %i.ab, 2
  br i1 %i.ac, label %bb.f, label %bb.l

end_hunk_52
begin_hunk_53_@_ZN11OpenImageIO4v3_17bmp_pvt20DibInformationHeader12write_headerEPNS0_10Filesystem7IOProxyE:bb.a
  %i.ae = load ptr, ptr %1, align 8, !tbaa !7
  %i.af = getelementptr inbounds nuw i8, ptr %i.ae, i64 64
  %i.ag = load ptr, ptr %i.af, align 8
  %i.ah = tail call noundef i64 %i.ag(ptr noundef nonnull align 8 dereferenceable(88) %1, ptr noundef nonnull %i.ad, i64 noundef 4)
  %i.ai = icmp eq i64 %i.ah, 4
  br i1 %i.ai, label %bb.g, label %bb.l

end_hunk_53
begin_hunk_54_@_ZN11OpenImageIO4v3_17bmp_pvt20DibInformationHeader12write_headerEPNS0_10Filesystem7IOProxyE:bb.a
  %i.ak = load ptr, ptr %1, align 8, !tbaa !7
  %i.al = getelementptr inbounds nuw i8, ptr %i.ak, i64 64
  %i.am = load ptr, ptr %i.al, align 8
  %i.an = tail call noundef i64 %i.am(ptr noundef nonnull align 8 dereferenceable(88) %1, ptr noundef nonnull %i.aj, i64 noundef 4)
  %i.ao = icmp eq i64 %i.an, 4
  br i1 %i.ao, label %bb.h, label %bb.l

end_hunk_54
begin_hunk_55_@_ZN11OpenImageIO4v3_17bmp_pvt20DibInformationHeader12write_headerEPNS0_10Filesystem7IOProxyE:bb.a
  %i.aq = load ptr, ptr %1, align 8, !tbaa !7
  %i.ar = getelementptr inbounds nuw i8, ptr %i.aq, i64 64
  %i.as = load ptr, ptr %i.ar, align 8
  %i.at = tail call noundef i64 %i.as(ptr noundef nonnull align 8 dereferenceable(88) %1, ptr noundef nonnull %i.ap, i64 noundef 4)
  %i.au = icmp eq i64 %i.at, 4
  br i1 %i.au, label %bb.i, label %bb.l

end_hunk_55
begin_hunk_56_@_ZN11OpenImageIO4v3_17bmp_pvt20DibInformationHeader12write_headerEPNS0_10Filesystem7IOProxyE:bb.a
  %i.aw = load ptr, ptr %1, align 8, !tbaa !7
  %i.ax = getelementptr inbounds nuw i8, ptr %i.aw, i64 64
  %i.ay = load ptr, ptr %i.ax, align 8
  %i.az = tail call noundef i64 %i.ay(ptr noundef nonnull align 8 dereferenceable(88) %1, ptr noundef nonnull %i.av, i64 noundef 4)
  %i.ba = icmp eq i64 %i.az, 4
  br i1 %i.ba, label %bb.j, label %bb.l

end_hunk_56
begin_hunk_57_@_ZN11OpenImageIO4v3_17bmp_pvt20DibInformationHeader12write_headerEPNS0_10Filesystem7IOProxyE:bb.a
  %i.bc = load ptr, ptr %1, align 8, !tbaa !7
  %i.bd = getelementptr inbounds nuw i8, ptr %i.bc, i64 64
  %i.be = load ptr, ptr %i.bd, align 8
  %i.bf = tail call noundef i64 %i.be(ptr noundef nonnull align 8 dereferenceable(88) %1, ptr noundef nonnull %i.bb, i64 noundef 4)
  %i.bg = icmp eq i64 %i.bf, 4
  br i1 %i.bg, label %bb.k, label %bb.l

end_hunk_57
begin_hunk_58_@_ZN11OpenImageIO4v3_17bmp_pvt20DibInformationHeader12write_headerEPNS0_10Filesystem7IOProxyE:bb.a
  %i.bi = load ptr, ptr %1, align 8, !tbaa !7
  %i.bj = getelementptr inbounds nuw i8, ptr %i.bi, i64 64
  %i.bk = load ptr, ptr %i.bj, align 8
  %i.bl = tail call noundef i64 %i.bk(ptr noundef nonnull align 8 dereferenceable(88) %1, ptr noundef nonnull %i.bh, i64 noundef 4)
  %i.bm = icmp eq i64 %i.bl, 4
  br label %bb.l

end_hunk_58
begin_hunk_59_@_ZN11OpenImageIO4v3_17bmp_pvt20DibInformationHeader11swap_endianEv:.lr.ph.i
  %i.h = tail call noundef i32 @llvm.bswap.i32(i32 %i.g)
  store i32 %i.h, ptr %i.f, align 4, !tbaa !3
  %i.i = getelementptr inbounds nuw i8, ptr %0, i64 12 ; 2 uses
  %i.j = load i16, ptr %i.i, align 4, !tbaa !12
  %i.k = tail call noundef i16 @llvm.bswap.i16(i16 %i.j)
  store i16 %i.k, ptr %i.i, align 4, !tbaa !12
  %i.l = getelementptr inbounds nuw i8, ptr %0, i64 14 ; 2 uses
  %i.m = load i16, ptr %i.l, align 2, !tbaa !12
  %i.n = tail call noundef i16 @llvm.bswap.i16(i16 %i.m)
  store i16 %i.n, ptr %i.l, align 2, !tbaa !12
  %i.o = getelementptr inbounds nuw i8, ptr %0, i64 16 ; 2 uses
  %i.p = load <4 x i32>, ptr %i.o, align 4, !tbaa !3
  %i.q = tail call <4 x i32> @llvm.bswap.v4i32(<4 x i32> %i.p)
end_hunk_59
begin_hunk_60_@llvm.bswap.v4i32
!6 = !{!"Simple C++ TBAA"}
!7 = !{!8, !8, i64 0}
!8 = !{!"vtable pointer", !6, i64 0}
!9 = !{!10, !11, i64 0}
!10 = !{!"_ZTSN11OpenImageIO4v3_17bmp_pvt13BmpFileHeaderE", !11, i64 0, !4, i64 4, !11, i64 8, !11, i64 10, !4, i64 12}
!11 = !{!"short", !5, i64 0}
!12 = !{!11, !11, i64 0}
!13 = !{!14, !4, i64 0}
!14 = !{!"_ZTSN11OpenImageIO4v3_17bmp_pvt20DibInformationHeaderE", !4, i64 0, !4, i64 4, !4, i64 8, !11, i64 12, !11, i64 14, !4, i64 16, !4, i64 20, !4, i64 24, !4, i64 28, !4, i64 32, !4, i64 36, !4, i64 40, !4, i64 44, !4, i64 48, !4, i64 52, !4, i64 56, !4, i64 60, !4, i64 64, !4, i64 68, !4, i64 72, !4, i64 76, !4, i64 80, !4, i64 84, !4, i64 88, !4, i64 92, !4, i64 96, !4, i64 100, !4, i64 104, !4, i64 108, !4, i64 112, !4, i64 116, !4, i64 120}
!15 = !{!14, !4, i64 4}
!16 = !{!14, !4, i64 8}
end_hunk_60
