inline.NumInlined: 5804
inline.NumDeleted: 1972
begin_hunk_0_@_ZN16OpenColorIO_v2_516CTFReaderACESElt3endEv:bb.a
  ret void
}

; Function Attrs: mustprogress nofree norecurse nounwind willreturn memory(readwrite, target_mem: none) uwtable
define hidden void @_ZNK16OpenColorIO_v2_516CTFReaderACESElt5getOpEv(ptr dead_on_unwind noalias writable writeonly sret(%"class.std::shared_ptr.27") align 8 captures(none) initializes((0, 16)) %0, ptr noundef nonnull readonly align 8 captures(none) dereferenceable(120) %1) unnamed_addr #18 align 2 personality ptr @__gxx_personality_v0 {
bb.a:
  %i.a = getelementptr inbounds nuw i8, ptr %1, i64 104
end_hunk_0
begin_hunk_1_@_ZN16OpenColorIO_v2_515CTFReaderCDLElt3endEv:bb.a
  ret void
}

; Function Attrs: mustprogress nofree norecurse nounwind willreturn memory(readwrite, target_mem: none) uwtable
define hidden void @_ZNK16OpenColorIO_v2_515CTFReaderCDLElt5getOpEv(ptr dead_on_unwind noalias writable writeonly sret(%"class.std::shared_ptr.27") align 8 captures(none) initializes((0, 16)) %0, ptr noundef nonnull readonly align 8 captures(none) dereferenceable(120) %1) unnamed_addr #18 align 2 personality ptr @__gxx_personality_v0 {
bb.a:
  %i.a = getelementptr inbounds nuw i8, ptr %1, i64 104
end_hunk_1
begin_hunk_2_@_ZN16OpenColorIO_v2_525CTFReaderFixedFunctionElt3endEv:bb.a
  ret void
}

; Function Attrs: mustprogress nofree norecurse nounwind willreturn memory(readwrite, target_mem: none) uwtable
define hidden void @_ZNK16OpenColorIO_v2_525CTFReaderFixedFunctionElt5getOpEv(ptr dead_on_unwind noalias writable writeonly sret(%"class.std::shared_ptr.27") align 8 captures(none) initializes((0, 16)) %0, ptr noundef nonnull readonly align 8 captures(none) dereferenceable(120) %1) unnamed_addr #18 align 2 personality ptr @__gxx_personality_v0 {
bb.a:
  %i.a = getelementptr inbounds nuw i8, ptr %1, i64 104
end_hunk_2
begin_hunk_3_@_ZN16OpenColorIO_v2_520CTFReaderFunctionElt3endEv:bb.a
  ret void
}

; Function Attrs: mustprogress nofree norecurse nounwind willreturn memory(readwrite, target_mem: none) uwtable
define hidden void @_ZNK16OpenColorIO_v2_520CTFReaderFunctionElt5getOpEv(ptr dead_on_unwind noalias writable writeonly sret(%"class.std::shared_ptr.27") align 8 captures(none) initializes((0, 16)) %0, ptr noundef nonnull readonly align 8 captures(none) dereferenceable(120) %1) unnamed_addr #18 align 2 personality ptr @__gxx_personality_v0 {
bb.a:
  %i.a = getelementptr inbounds nuw i8, ptr %1, i64 104
end_hunk_3
begin_hunk_4_@_ZN16OpenColorIO_v2_528CTFReaderExposureContrastElt3endEv:bb.a
  ret void
}

; Function Attrs: mustprogress nofree norecurse nounwind willreturn memory(readwrite, target_mem: none) uwtable
define hidden void @_ZNK16OpenColorIO_v2_528CTFReaderExposureContrastElt5getOpEv(ptr dead_on_unwind noalias writable writeonly sret(%"class.std::shared_ptr.27") align 8 captures(none) initializes((0, 16)) %0, ptr noundef nonnull readonly align 8 captures(none) dereferenceable(120) %1) unnamed_addr #18 align 2 personality ptr @__gxx_personality_v0 {
bb.a:
  %i.a = getelementptr inbounds nuw i8, ptr %1, i64 104
end_hunk_4
begin_hunk_5_@_ZN16OpenColorIO_v2_512_GLOBAL__N_16ThrowMIA21_cJPKcS4_EEEvRKNS_16XmlReaderElementERKT_DpT0_:bb.a
  resume { ptr, i32 } %.pn.pn
}

; Function Attrs: mustprogress nofree norecurse nounwind willreturn memory(readwrite, target_mem: none) uwtable
define hidden void @_ZNK16OpenColorIO_v2_517CTFReaderGammaElt5getOpEv(ptr dead_on_unwind noalias writable writeonly sret(%"class.std::shared_ptr.27") align 8 captures(none) initializes((0, 16)) %0, ptr noundef nonnull readonly align 8 captures(none) dereferenceable(120) %1) unnamed_addr #18 align 2 personality ptr @__gxx_personality_v0 {
bb.a:
  %i.a = getelementptr inbounds nuw i8, ptr %1, i64 104
end_hunk_5
begin_hunk_6_@_ZN16OpenColorIO_v2_526CTFReaderGradingPrimaryElt3endEv:bb.a
  ret void
}

; Function Attrs: mustprogress nofree norecurse nounwind willreturn memory(readwrite, target_mem: none) uwtable
define hidden void @_ZNK16OpenColorIO_v2_526CTFReaderGradingPrimaryElt5getOpEv(ptr dead_on_unwind noalias writable writeonly sret(%"class.std::shared_ptr.27") align 8 captures(none) initializes((0, 16)) %0, ptr noundef nonnull readonly align 8 captures(none) dereferenceable(392) %1) unnamed_addr #18 align 2 personality ptr @__gxx_personality_v0 {
bb.a:
  %i.a = getelementptr inbounds nuw i8, ptr %1, i64 376
end_hunk_6
begin_hunk_7_@_ZNSt12__shared_ptrIKN16OpenColorIO_v2_515GradingRGBCurveELN9__gnu_cxx12_Lock_policyE2EED2Ev:bb.a
  ret void
}

; Function Attrs: mustprogress nofree norecurse nounwind willreturn memory(readwrite, target_mem: none) uwtable
define hidden void @_ZNK16OpenColorIO_v2_527CTFReaderGradingRGBCurveElt5getOpEv(ptr dead_on_unwind noalias writable writeonly sret(%"class.std::shared_ptr.27") align 8 captures(none) initializes((0, 16)) %0, ptr noundef nonnull readonly align 8 captures(none) dereferenceable(136) %1) unnamed_addr #18 align 2 personality ptr @__gxx_personality_v0 {
bb.a:
  %i.a = getelementptr inbounds nuw i8, ptr %1, i64 120
end_hunk_7
begin_hunk_8_@_ZNSt12__shared_ptrIKN16OpenColorIO_v2_515GradingHueCurveELN9__gnu_cxx12_Lock_policyE2EED2Ev:bb.a
  ret void
}

; Function Attrs: mustprogress nofree norecurse nounwind willreturn memory(readwrite, target_mem: none) uwtable
define hidden void @_ZNK16OpenColorIO_v2_527CTFReaderGradingHueCurveElt5getOpEv(ptr dead_on_unwind noalias writable writeonly sret(%"class.std::shared_ptr.27") align 8 captures(none) initializes((0, 16)) %0, ptr noundef nonnull readonly align 8 captures(none) dereferenceable(136) %1) unnamed_addr #18 align 2 personality ptr @__gxx_personality_v0 {
bb.a:
  %i.a = getelementptr inbounds nuw i8, ptr %1, i64 120
end_hunk_8
begin_hunk_9_@_ZN16OpenColorIO_v2_523CTFReaderGradingToneElt3endEv:bb.a
  ret void
}

; Function Attrs: mustprogress nofree norecurse nounwind willreturn memory(readwrite, target_mem: none) uwtable
define hidden void @_ZNK16OpenColorIO_v2_523CTFReaderGradingToneElt5getOpEv(ptr dead_on_unwind noalias writable writeonly sret(%"class.std::shared_ptr.27") align 8 captures(none) initializes((0, 16)) %0, ptr noundef nonnull readonly align 8 captures(none) dereferenceable(120) %1) unnamed_addr #18 align 2 personality ptr @__gxx_personality_v0 {
bb.a:
  %i.a = getelementptr inbounds nuw i8, ptr %1, i64 104
end_hunk_9
begin_hunk_10_@_ZN16OpenColorIO_v2_519GetBitDepthMaxValueENS_8BitDepthE

declare void @_ZN16OpenColorIO_v2_511Lut1DOpData5scaleEf(ptr noundef nonnull align 8 dereferenceable(364), float noundef) local_unnamed_addr #5

; Function Attrs: mustprogress nofree norecurse nounwind willreturn memory(readwrite, target_mem: none) uwtable
define hidden void @_ZNK16OpenColorIO_v2_520CTFReaderInvLut1DElt5getOpEv(ptr dead_on_unwind noalias writable writeonly sret(%"class.std::shared_ptr.27") align 8 captures(none) initializes((0, 16)) %0, ptr noundef nonnull readonly align 8 captures(none) dereferenceable(136) %1) unnamed_addr #18 align 2 personality ptr @__gxx_personality_v0 {
bb.a:
  %i.a = getelementptr inbounds nuw i8, ptr %1, i64 120
end_hunk_10
begin_hunk_11_@_ZN16OpenColorIO_v2_520CTFReaderInvLut3DElt3endEv:bb.a

declare void @_ZN16OpenColorIO_v2_511Lut3DOpData5scaleEf(ptr noundef nonnull align 8 dereferenceable(232), float noundef) local_unnamed_addr #5

; Function Attrs: mustprogress nofree norecurse nounwind willreturn memory(readwrite, target_mem: none) uwtable
define hidden void @_ZNK16OpenColorIO_v2_520CTFReaderInvLut3DElt5getOpEv(ptr dead_on_unwind noalias writable writeonly sret(%"class.std::shared_ptr.27") align 8 captures(none) initializes((0, 16)) %0, ptr noundef nonnull readonly align 8 captures(none) dereferenceable(136) %1) unnamed_addr #18 align 2 personality ptr @__gxx_personality_v0 {
bb.a:
  %i.a = getelementptr inbounds nuw i8, ptr %1, i64 120
end_hunk_11
begin_hunk_12_@_ZN16OpenColorIO_v2_512_GLOBAL__N_16ThrowMIA20_cJPKcS4_EEEvRKNS_16XmlReaderElementERKT_DpT0_:bb.a
  resume { ptr, i32 } %.pn.pn
}

; Function Attrs: mustprogress nofree norecurse nounwind willreturn memory(readwrite, target_mem: none) uwtable
define hidden void @_ZNK16OpenColorIO_v2_515CTFReaderLogElt5getOpEv(ptr dead_on_unwind noalias writable writeonly sret(%"class.std::shared_ptr.27") align 8 captures(none) initializes((0, 16)) %0, ptr noundef nonnull readonly align 8 captures(none) dereferenceable(216) %1) unnamed_addr #18 align 2 personality ptr @__gxx_personality_v0 {
bb.a:
  %i.a = getelementptr inbounds nuw i8, ptr %1, i64 200
end_hunk_12
begin_hunk_13_@_ZN16OpenColorIO_v2_517CTFReaderLut1DElt3endEv:bb.a
  ret void
}

; Function Attrs: mustprogress nofree norecurse nounwind willreturn memory(readwrite, target_mem: none) uwtable
define hidden void @_ZNK16OpenColorIO_v2_517CTFReaderLut1DElt5getOpEv(ptr dead_on_unwind noalias writable writeonly sret(%"class.std::shared_ptr.27") align 8 captures(none) initializes((0, 16)) %0, ptr noundef nonnull readonly align 8 captures(none) dereferenceable(240) %1) unnamed_addr #18 align 2 personality ptr @__gxx_personality_v0 {
bb.a:
  %i.a = getelementptr inbounds nuw i8, ptr %1, i64 136
end_hunk_13
begin_hunk_14_@_ZN16OpenColorIO_v2_517CTFReaderLut3DElt3endEv:bb.a
  ret void
}

; Function Attrs: mustprogress nofree norecurse nounwind willreturn memory(readwrite, target_mem: none) uwtable
define hidden void @_ZNK16OpenColorIO_v2_517CTFReaderLut3DElt5getOpEv(ptr dead_on_unwind noalias writable writeonly sret(%"class.std::shared_ptr.27") align 8 captures(none) initializes((0, 16)) %0, ptr noundef nonnull readonly align 8 captures(none) dereferenceable(240) %1) unnamed_addr #18 align 2 personality ptr @__gxx_personality_v0 {
bb.a:
  %i.a = getelementptr inbounds nuw i8, ptr %1, i64 136
end_hunk_14
begin_hunk_15_@_ZN16OpenColorIO_v2_518CTFReaderMatrixElt3endEv:bb.a

declare void @_ZN16OpenColorIO_v2_512MatrixOpData5scaleEdd(ptr noundef nonnull align 8 dereferenceable(260), double noundef, double noundef) local_unnamed_addr #5

; Function Attrs: mustprogress nofree norecurse nounwind willreturn memory(readwrite, target_mem: none) uwtable
define hidden void @_ZNK16OpenColorIO_v2_518CTFReaderMatrixElt5getOpEv(ptr dead_on_unwind noalias writable writeonly sret(%"class.std::shared_ptr.27") align 8 captures(none) initializes((0, 16)) %0, ptr noundef nonnull readonly align 8 captures(none) dereferenceable(136) %1) unnamed_addr #18 align 2 personality ptr @__gxx_personality_v0 {
bb.a:
  %i.a = getelementptr inbounds nuw i8, ptr %1, i64 120
end_hunk_15
begin_hunk_16_@_ZN16OpenColorIO_v2_517CTFReaderRangeElt3endEv:bb.a

declare void @_ZN16OpenColorIO_v2_511RangeOpData9normalizeEv(ptr noundef nonnull align 8 dereferenceable(228)) local_unnamed_addr #5

; Function Attrs: mustprogress nofree norecurse nounwind willreturn memory(readwrite, target_mem: none) uwtable
define hidden void @_ZNK16OpenColorIO_v2_517CTFReaderRangeElt5getOpEv(ptr dead_on_unwind noalias writable writeonly sret(%"class.std::shared_ptr.27") align 8 captures(none) initializes((0, 16)) %0, ptr noundef nonnull readonly align 8 captures(none) dereferenceable(120) %1) unnamed_addr #18 align 2 personality ptr @__gxx_personality_v0 {
bb.a:
  %i.a = getelementptr inbounds nuw i8, ptr %1, i64 104
end_hunk_16
begin_hunk_17_@_ZN16OpenColorIO_v2_521CTFReaderReferenceElt3endEv:bb.a
  ret void
}

; Function Attrs: mustprogress nofree norecurse nounwind willreturn memory(readwrite, target_mem: none) uwtable
define hidden void @_ZNK16OpenColorIO_v2_521CTFReaderReferenceElt5getOpEv(ptr dead_on_unwind noalias writable writeonly sret(%"class.std::shared_ptr.27") align 8 captures(none) initializes((0, 16)) %0, ptr noundef nonnull readonly align 8 captures(none) dereferenceable(120) %1) unnamed_addr #18 align 2 personality ptr @__gxx_personality_v0 {
bb.a:
  %i.a = getelementptr inbounds nuw i8, ptr %1, i64 104
end_hunk_17
begin_hunk_18_@llvm.umax.i64
attributes #15 = { cold mustprogress noreturn nounwind memory(inaccessiblemem: write) uwtable "min-legal-vector-width"="0" "no-trapping-math"="true" "stack-protector-buffer-size"="8" "target-cpu"="x86-64" "target-features"="+cmov,+cx8,+fxsr,+mmx,+sse,+sse2,+x87" "tune-cpu"="generic" }
attributes #16 = { cold noreturn nounwind memory(inaccessiblemem: write) }
attributes #17 = { nounwind "no-trapping-math"="true" "stack-protector-buffer-size"="8" "target-cpu"="x86-64" "target-features"="+cmov,+cx8,+fxsr,+mmx,+sse,+sse2,+x87" "tune-cpu"="generic" }
attributes #18 = { mustprogress nofree norecurse nounwind willreturn memory(readwrite, target_mem: none) uwtable "min-legal-vector-width"="0" "no-trapping-math"="true" "stack-protector-buffer-size"="8" "target-cpu"="x86-64" "target-features"="+cmov,+cx8,+fxsr,+mmx,+sse,+sse2,+x87" "tune-cpu"="generic" }
attributes #19 = { nocallback nofree nounwind willreturn memory(argmem: readwrite) }
attributes #20 = { nounwind uwtable "min-legal-vector-width"="0" "no-trapping-math"="true" "stack-protector-buffer-size"="8" "target-cpu"="x86-64" "target-features"="+cmov,+cx8,+fxsr,+mmx,+sse,+sse2,+x87" "tune-cpu"="generic" }
attributes #21 = { uwtable "min-legal-vector-width"="0" "no-trapping-math"="true" "stack-protector-buffer-size"="8" "target-cpu"="x86-64" "target-features"="+cmov,+cx8,+fxsr,+mmx,+sse,+sse2,+x87" "tune-cpu"="generic" }
end_hunk_18
