inline.NumInlined: 3285
inline.NumDeleted: 896
begin_hunk_0_@_ZN16OpenColorIO_v2_512_GLOBAL__N_19CDLWriterD0Ev:bb.a
  ret void
}

; Function Attrs: mustprogress nofree norecurse nounwind memory(readwrite, target_mem: none) uwtable
define internal void @_ZNK16OpenColorIO_v2_512_GLOBAL__N_19CDLWriter5getOpEv(ptr dead_on_unwind noalias writable writeonly sret(%"class.std::shared_ptr.28") align 8 captures(none) initializes((0, 16)) %0, ptr noundef nonnull readonly align 8 captures(none) dereferenceable(40) %1) unnamed_addr #17 align 2 personality ptr @__gxx_personality_v0 {
bb.a:
  %i.a = getelementptr inbounds nuw i8, ptr %1, i64 24
end_hunk_0
begin_hunk_1_@_ZN16OpenColorIO_v2_512_GLOBAL__N_111GammaWriterD0Ev:bb.a
  ret void
}

; Function Attrs: mustprogress nofree norecurse nounwind memory(readwrite, target_mem: none) uwtable
define internal void @_ZNK16OpenColorIO_v2_512_GLOBAL__N_111GammaWriter5getOpEv(ptr dead_on_unwind noalias writable writeonly sret(%"class.std::shared_ptr.28") align 8 captures(none) initializes((0, 16)) %0, ptr noundef nonnull readonly align 8 captures(none) dereferenceable(56) %1) unnamed_addr #17 align 2 personality ptr @__gxx_personality_v0 {
bb.a:
  %i.a = getelementptr inbounds nuw i8, ptr %1, i64 40
end_hunk_1
begin_hunk_2_@_ZN16OpenColorIO_v2_512_GLOBAL__N_122ExposureContrastWriterD0Ev:bb.a
  ret void
}

; Function Attrs: mustprogress nofree norecurse nounwind memory(readwrite, target_mem: none) uwtable
define internal void @_ZNK16OpenColorIO_v2_512_GLOBAL__N_122ExposureContrastWriter5getOpEv(ptr dead_on_unwind noalias writable writeonly sret(%"class.std::shared_ptr.28") align 8 captures(none) initializes((0, 16)) %0, ptr noundef nonnull readonly align 8 captures(none) dereferenceable(40) %1) unnamed_addr #17 align 2 personality ptr @__gxx_personality_v0 {
bb.a:
  %i.a = getelementptr inbounds nuw i8, ptr %1, i64 24
end_hunk_2
begin_hunk_3_@_ZN16OpenColorIO_v2_512_GLOBAL__N_119FixedFunctionWriterD0Ev:bb.a
  ret void
}

; Function Attrs: mustprogress nofree norecurse nounwind memory(readwrite, target_mem: none) uwtable
define internal void @_ZNK16OpenColorIO_v2_512_GLOBAL__N_119FixedFunctionWriter5getOpEv(ptr dead_on_unwind noalias writable writeonly sret(%"class.std::shared_ptr.28") align 8 captures(none) initializes((0, 16)) %0, ptr noundef nonnull readonly align 8 captures(none) dereferenceable(40) %1) unnamed_addr #17 align 2 personality ptr @__gxx_personality_v0 {
bb.a:
  %i.a = getelementptr inbounds nuw i8, ptr %1, i64 24
end_hunk_3
begin_hunk_4_@_ZN16OpenColorIO_v2_512_GLOBAL__N_120GradingPrimaryWriterD0Ev:bb.a
  ret void
}

; Function Attrs: mustprogress nofree norecurse nounwind memory(readwrite, target_mem: none) uwtable
define internal void @_ZNK16OpenColorIO_v2_512_GLOBAL__N_120GradingPrimaryWriter5getOpEv(ptr dead_on_unwind noalias writable writeonly sret(%"class.std::shared_ptr.28") align 8 captures(none) initializes((0, 16)) %0, ptr noundef nonnull readonly align 8 captures(none) dereferenceable(40) %1) unnamed_addr #17 align 2 personality ptr @__gxx_personality_v0 {
bb.a:
  %i.a = getelementptr inbounds nuw i8, ptr %1, i64 24
end_hunk_4
begin_hunk_5_@_ZN16OpenColorIO_v2_512_GLOBAL__N_121GradingRGBCurveWriterD0Ev:bb.a
  ret void
}

; Function Attrs: mustprogress nofree norecurse nounwind memory(readwrite, target_mem: none) uwtable
define internal void @_ZNK16OpenColorIO_v2_512_GLOBAL__N_121GradingRGBCurveWriter5getOpEv(ptr dead_on_unwind noalias writable writeonly sret(%"class.std::shared_ptr.28") align 8 captures(none) initializes((0, 16)) %0, ptr noundef nonnull readonly align 8 captures(none) dereferenceable(40) %1) unnamed_addr #17 align 2 personality ptr @__gxx_personality_v0 {
bb.a:
  %i.a = getelementptr inbounds nuw i8, ptr %1, i64 24
end_hunk_5
begin_hunk_6_@_ZN16OpenColorIO_v2_512_GLOBAL__N_121GradingHueCurveWriterD0Ev:bb.a
  ret void
}

; Function Attrs: mustprogress nofree norecurse nounwind memory(readwrite, target_mem: none) uwtable
define internal void @_ZNK16OpenColorIO_v2_512_GLOBAL__N_121GradingHueCurveWriter5getOpEv(ptr dead_on_unwind noalias writable writeonly sret(%"class.std::shared_ptr.28") align 8 captures(none) initializes((0, 16)) %0, ptr noundef nonnull readonly align 8 captures(none) dereferenceable(40) %1) unnamed_addr #17 align 2 personality ptr @__gxx_personality_v0 {
bb.a:
  %i.a = getelementptr inbounds nuw i8, ptr %1, i64 24
end_hunk_6
begin_hunk_7_@_ZN16OpenColorIO_v2_512_GLOBAL__N_117GradingToneWriterD0Ev:bb.a
  ret void
}

; Function Attrs: mustprogress nofree norecurse nounwind memory(readwrite, target_mem: none) uwtable
define internal void @_ZNK16OpenColorIO_v2_512_GLOBAL__N_117GradingToneWriter5getOpEv(ptr dead_on_unwind noalias writable writeonly sret(%"class.std::shared_ptr.28") align 8 captures(none) initializes((0, 16)) %0, ptr noundef nonnull readonly align 8 captures(none) dereferenceable(40) %1) unnamed_addr #17 align 2 personality ptr @__gxx_personality_v0 {
bb.a:
  %i.a = getelementptr inbounds nuw i8, ptr %1, i64 24
end_hunk_7
begin_hunk_8_@_ZN16OpenColorIO_v2_512_GLOBAL__N_19LogWriterD0Ev:bb.a
  ret void
}

; Function Attrs: mustprogress nofree norecurse nounwind memory(readwrite, target_mem: none) uwtable
define internal void @_ZNK16OpenColorIO_v2_512_GLOBAL__N_19LogWriter5getOpEv(ptr dead_on_unwind noalias writable writeonly sret(%"class.std::shared_ptr.28") align 8 captures(none) initializes((0, 16)) %0, ptr noundef nonnull readonly align 8 captures(none) dereferenceable(40) %1) unnamed_addr #17 align 2 personality ptr @__gxx_personality_v0 {
bb.a:
  %i.a = getelementptr inbounds nuw i8, ptr %1, i64 24
end_hunk_8
begin_hunk_9_@_ZN16OpenColorIO_v2_512_GLOBAL__N_111Lut1DWriterD0Ev:bb.a
  ret void
}

; Function Attrs: mustprogress nofree norecurse nounwind memory(readwrite, target_mem: none) uwtable
define internal void @_ZNK16OpenColorIO_v2_512_GLOBAL__N_111Lut1DWriter5getOpEv(ptr dead_on_unwind noalias writable writeonly sret(%"class.std::shared_ptr.28") align 8 captures(none) initializes((0, 16)) %0, ptr noundef nonnull readonly align 8 captures(none) dereferenceable(40) %1) unnamed_addr #17 align 2 personality ptr @__gxx_personality_v0 {
bb.a:
  %i.a = getelementptr inbounds nuw i8, ptr %1, i64 24
end_hunk_9
begin_hunk_10_@_ZN16OpenColorIO_v2_512_GLOBAL__N_111Lut3DWriterD0Ev:bb.a
  ret void
}

; Function Attrs: mustprogress nofree norecurse nounwind memory(readwrite, target_mem: none) uwtable
define internal void @_ZNK16OpenColorIO_v2_512_GLOBAL__N_111Lut3DWriter5getOpEv(ptr dead_on_unwind noalias writable writeonly sret(%"class.std::shared_ptr.28") align 8 captures(none) initializes((0, 16)) %0, ptr noundef nonnull readonly align 8 captures(none) dereferenceable(40) %1) unnamed_addr #17 align 2 personality ptr @__gxx_personality_v0 {
bb.a:
  %i.a = getelementptr inbounds nuw i8, ptr %1, i64 24
end_hunk_10
begin_hunk_11_@_ZN16OpenColorIO_v2_512_GLOBAL__N_112MatrixWriterD0Ev:bb.a
  ret void
}

; Function Attrs: mustprogress nofree norecurse nounwind memory(readwrite, target_mem: none) uwtable
define internal void @_ZNK16OpenColorIO_v2_512_GLOBAL__N_112MatrixWriter5getOpEv(ptr dead_on_unwind noalias writable writeonly sret(%"class.std::shared_ptr.28") align 8 captures(none) initializes((0, 16)) %0, ptr noundef nonnull readonly align 8 captures(none) dereferenceable(56) %1) unnamed_addr #17 align 2 personality ptr @__gxx_personality_v0 {
bb.a:
  %i.a = getelementptr inbounds nuw i8, ptr %1, i64 40
end_hunk_11
begin_hunk_12_@_ZN16OpenColorIO_v2_512_GLOBAL__N_111RangeWriterD0Ev:bb.a
  ret void
}

; Function Attrs: mustprogress nofree norecurse nounwind memory(readwrite, target_mem: none) uwtable
define internal void @_ZNK16OpenColorIO_v2_512_GLOBAL__N_111RangeWriter5getOpEv(ptr dead_on_unwind noalias writable writeonly sret(%"class.std::shared_ptr.28") align 8 captures(none) initializes((0, 16)) %0, ptr noundef nonnull readonly align 8 captures(none) dereferenceable(40) %1) unnamed_addr #17 align 2 personality ptr @__gxx_personality_v0 {
bb.a:
  %i.a = getelementptr inbounds nuw i8, ptr %1, i64 24
end_hunk_12
begin_hunk_13_@llvm.umax.i64
attributes #14 = { cold nofree noreturn }
attributes #15 = { mustprogress noinline nounwind uwtable "min-legal-vector-width"="0" "no-trapping-math"="true" "stack-protector-buffer-size"="8" "target-cpu"="x86-64" "target-features"="+cmov,+cx8,+fxsr,+mmx,+sse,+sse2,+x87" "tune-cpu"="generic" }
attributes #16 = { nocallback nofree nounwind willreturn memory(argmem: readwrite) }
attributes #17 = { mustprogress nofree norecurse nounwind memory(readwrite, target_mem: none) uwtable "min-legal-vector-width"="0" "no-trapping-math"="true" "stack-protector-buffer-size"="8" "target-cpu"="x86-64" "target-features"="+cmov,+cx8,+fxsr,+mmx,+sse,+sse2,+x87" "tune-cpu"="generic" }
attributes #18 = { mustprogress nofree norecurse nosync nounwind willreturn memory(read, inaccessiblemem: none, target_mem: none) uwtable "min-legal-vector-width"="0" "no-trapping-math"="true" "stack-protector-buffer-size"="8" "target-cpu"="x86-64" "target-features"="+cmov,+cx8,+fxsr,+mmx,+sse,+sse2,+x87" "tune-cpu"="generic" }
attributes #19 = { noreturn "no-trapping-math"="true" "stack-protector-buffer-size"="8" "target-cpu"="x86-64" "target-features"="+cmov,+cx8,+fxsr,+mmx,+sse,+sse2,+x87" "tune-cpu"="generic" }
attributes #20 = { nobuiltin allocsize(0) "no-trapping-math"="true" "stack-protector-buffer-size"="8" "target-cpu"="x86-64" "target-features"="+cmov,+cx8,+fxsr,+mmx,+sse,+sse2,+x87" "tune-cpu"="generic" }
end_hunk_13
