inline.NumInlined: 12593
inline.NumDeleted: 3318
begin_hunk_0_@_ZN11OpenImageIO4v3_112ImageBufAlgo9color_mapERNS0_8ImageBufERKS2_iNS0_17basic_string_viewIcSt11char_traitsIcEEENS0_3ROIEi:bb.a
          to label %bb.h unwind label %bb.f

_ZN11OpenImageIO4v3_1eqENS0_17basic_string_viewIcSt11char_traitsIcEEES4_.exit: ; preds = %_ZNSt11char_traitsIcE7compareEPKcS2_m.exit.i.i59, %_ZNSt11char_traitsIcE7compareEPKcS2_m.exit.i.i54, %_ZNSt11char_traitsIcE7compareEPKcS2_m.exit.i.i34, %_ZNSt11char_traitsIcE7compareEPKcS2_m.exit.i.i39, %_ZNSt11char_traitsIcE7compareEPKcS2_m.exit.i.i44, %_ZNSt11char_traitsIcE7compareEPKcS2_m.exit.i.i49, %_ZNSt11char_traitsIcE7compareEPKcS2_m.exit.i.i29, %_ZNSt11char_traitsIcE7compareEPKcS2_m.exit.i.i24, %_ZNSt11char_traitsIcE7compareEPKcS2_m.exit.i.i19, %_ZNSt11char_traitsIcE7compareEPKcS2_m.exit.i.i14, %_ZNSt11char_traitsIcE7compareEPKcS2_m.exit.i.i
  %.sroa.13.0 = phi i32 [ 5, %_ZNSt11char_traitsIcE7compareEPKcS2_m.exit.i.i59 ], [ 17, %_ZNSt11char_traitsIcE7compareEPKcS2_m.exit.i.i29 ], [ 2, %_ZNSt11char_traitsIcE7compareEPKcS2_m.exit.i.i49 ], [ 5, %_ZNSt11char_traitsIcE7compareEPKcS2_m.exit.i.i54 ], [ 2, %_ZNSt11char_traitsIcE7compareEPKcS2_m.exit.i.i44 ], [ 2, %_ZNSt11char_traitsIcE7compareEPKcS2_m.exit.i.i34 ], [ 2, %_ZNSt11char_traitsIcE7compareEPKcS2_m.exit.i.i39 ], [ 17, %_ZNSt11char_traitsIcE7compareEPKcS2_m.exit.i.i ], [ 17, %_ZNSt11char_traitsIcE7compareEPKcS2_m.exit.i.i14 ], [ 17, %_ZNSt11char_traitsIcE7compareEPKcS2_m.exit.i.i19 ], [ 17, %_ZNSt11char_traitsIcE7compareEPKcS2_m.exit.i.i24 ]
  %.sroa.13.0.a = phi i64 [ 15, %_ZNSt11char_traitsIcE7compareEPKcS2_m.exit.i.i59 ], [ 51, %_ZNSt11char_traitsIcE7compareEPKcS2_m.exit.i.i29 ], [ 6, %_ZNSt11char_traitsIcE7compareEPKcS2_m.exit.i.i49 ], [ 15, %_ZNSt11char_traitsIcE7compareEPKcS2_m.exit.i.i54 ], [ 6, %_ZNSt11char_traitsIcE7compareEPKcS2_m.exit.i.i44 ], [ 6, %_ZNSt11char_traitsIcE7compareEPKcS2_m.exit.i.i34 ], [ 6, %_ZNSt11char_traitsIcE7compareEPKcS2_m.exit.i.i39 ], [ 51, %_ZNSt11char_traitsIcE7compareEPKcS2_m.exit.i.i ], [ 51, %_ZNSt11char_traitsIcE7compareEPKcS2_m.exit.i.i14 ], [ 51, %_ZNSt11char_traitsIcE7compareEPKcS2_m.exit.i.i19 ], [ 51, %_ZNSt11char_traitsIcE7compareEPKcS2_m.exit.i.i24 ]
  %.sroa.0121.0 = phi ptr [ @_ZZN11OpenImageIO4v3_112ImageBufAlgo9color_mapERNS0_8ImageBufERKS2_iNS0_17basic_string_viewIcSt11char_traitsIcEEENS0_3ROIEiE1k_1, %_ZNSt11char_traitsIcE7compareEPKcS2_m.exit.i.i59 ], [ @_ZN11OpenImageIO4v3_1L10turbo_dataE, %_ZNSt11char_traitsIcE7compareEPKcS2_m.exit.i.i29 ], [ @_ZZN11OpenImageIO4v3_112ImageBufAlgo9color_mapERNS0_8ImageBufERKS2_iNS0_17basic_string_viewIcSt11char_traitsIcEEENS0_3ROIEiE1k, %_ZNSt11char_traitsIcE7compareEPKcS2_m.exit.i.i49 ], [ @_ZZN11OpenImageIO4v3_112ImageBufAlgo9color_mapERNS0_8ImageBufERKS2_iNS0_17basic_string_viewIcSt11char_traitsIcEEENS0_3ROIEiE1k_0, %_ZNSt11char_traitsIcE7compareEPKcS2_m.exit.i.i54 ], [ @_ZZN11OpenImageIO4v3_112ImageBufAlgo9color_mapERNS0_8ImageBufERKS2_iNS0_17basic_string_viewIcSt11char_traitsIcEEENS0_3ROIEiE1k, %_ZNSt11char_traitsIcE7compareEPKcS2_m.exit.i.i44 ], [ @_ZZN11OpenImageIO4v3_112ImageBufAlgo9color_mapERNS0_8ImageBufERKS2_iNS0_17basic_string_viewIcSt11char_traitsIcEEENS0_3ROIEiE1k, %_ZNSt11char_traitsIcE7compareEPKcS2_m.exit.i.i34 ], [ @_ZZN11OpenImageIO4v3_112ImageBufAlgo9color_mapERNS0_8ImageBufERKS2_iNS0_17basic_string_viewIcSt11char_traitsIcEEENS0_3ROIEiE1k, %_ZNSt11char_traitsIcE7compareEPKcS2_m.exit.i.i39 ], [ @_ZN11OpenImageIO4v3_1L10magma_dataE, %_ZNSt11char_traitsIcE7compareEPKcS2_m.exit.i.i ], [ @_ZN11OpenImageIO4v3_1L12inferno_dataE, %_ZNSt11char_traitsIcE7compareEPKcS2_m.exit.i.i14 ], [ @_ZN11OpenImageIO4v3_1L11plasma_dataE, %_ZNSt11char_traitsIcE7compareEPKcS2_m.exit.i.i19 ], [ @_ZN11OpenImageIO4v3_1L12viridis_dataE, %_ZNSt11char_traitsIcE7compareEPKcS2_m.exit.i.i24 ]
  store ptr %.sroa.0121.0, ptr %8, align 8, !tbaa !52
  %.sroa.13.0..sroa_idx = getelementptr inbounds nuw i8, ptr %8, i64 8
  store i64 %.sroa.13.0.a, ptr %.sroa.13.0..sroa_idx, align 8, !tbaa !53
  %i.ab = invoke noundef zeroext i1 @_ZN11OpenImageIO4v3_112ImageBufAlgo9color_mapERNS0_8ImageBufERKS2_iiiNS0_4spanIKfLm18446744073709551615EEENS0_3ROIEi(ptr noundef nonnull align 8 dereferenceable(16) %0, ptr noundef nonnull align 8 dereferenceable(16) %1, i32 noundef %2, i32 noundef %.sroa.13.0, i32 noundef 3, ptr noundef nonnull byval(%"class.OpenImageIO::v3_1::span") align 8 %8, ptr noundef nonnull byval(%"struct.OpenImageIO::v3_1::ROI") align 8 %4, i32 noundef %5)
          to label %bb.h unwind label %bb.f

bb.h:                                             ; preds = %bb.g, %_ZN11OpenImageIO4v3_1eqENS0_17basic_string_viewIcSt11char_traitsIcEEES4_.exit, %bb.c
end_hunk_0
begin_hunk_1_@_ZN3fmt3v126detail12format_floatIdEEiT_iRKNS0_12format_specsEbRNS1_6bufferIcEE:bb.a
bb.aa:                                            ; preds = %bb.z, %bb.y
  %.0208 = phi i64 [ %i.et, %bb.z ], [ %i.en, %bb.y ] ; 2 uses
  %.0204.in = phi i64 [ %i.eu, %bb.z ], [ %i.eo, %bb.y ]
  %.0.i = phi i64 [ 2, %bb.z ], [ 1, %bb.y ]      ; 4 uses
  %.0.i.a = phi i32 [ 2, %bb.z ], [ 1, %bb.y ]
  %i.ey = icmp samesign ugt i32 %.0187, %.0.i.a
  br i1 %i.ey, label %.lr.ph.i, label %.thread268

.lr.ph.i:                                         ; preds = %bb.aa
  %i.ez = zext nneg i32 %i.ei to i64              ; 3 uses
  %i.fa = and i64 %.0208, 4294967295
  %i.fb = mul nuw nsw i64 %i.fa, 100              ; 3 uses
  %i.fc = lshr i64 %i.fb, 32                      ; 2 uses
  %i.fd = getelementptr inbounds nuw i8, ptr %i.ej, i64 %.0.i
  %i.fe = shl nuw nsw i64 %i.fc, 1
  %i.ff = getelementptr inbounds nuw i8, ptr @_ZZN3fmt3v126detail7digits2EmE4data, i64 %i.fe
  %i.fg = load i16, ptr %i.ff, align 2
  store i16 %i.fg, ptr %i.fd, align 1
  %indvars.iv.next.i = add nuw nsw i64 %.0.i, 2   ; 2 uses
  %i.fh = icmp samesign ult i64 %indvars.iv.next.i, %i.ez
  br i1 %i.fh, label %bb.ab, label %_ZZN3fmt3v126detail12format_floatIdEEiT_iRKNS0_12format_specsEbRNS1_6bufferIcEEENKUljPcE_clEjSA_.exit

end_hunk_1
begin_hunk_2_@_ZN3fmt3v126detail12format_floatIdEEiT_iRKNS0_12format_specsEbRNS1_6bufferIcEE:bb.a
  %i.fn = getelementptr inbounds nuw i8, ptr @_ZZN3fmt3v126detail7digits2EmE4data, i64 %i.fm
  %i.fo = load i16, ptr %i.fn, align 2
  store i16 %i.fo, ptr %i.fl, align 1
  %indvars.iv.next.i.1 = or disjoint i64 %.0.i, 4 ; 2 uses
  %i.fp = icmp samesign ult i64 %indvars.iv.next.i.1, %i.ez
  br i1 %i.fp, label %bb.ac, label %_ZZN3fmt3v126detail12format_floatIdEEiT_iRKNS0_12format_specsEbRNS1_6bufferIcEEENKUljPcE_clEjSA_.exit

end_hunk_2
begin_hunk_3_@_ZN3fmt3v126detail12format_floatIdEEiT_iRKNS0_12format_specsEbRNS1_6bufferIcEE:bb.a
  %i.fv = getelementptr inbounds nuw i8, ptr @_ZZN3fmt3v126detail7digits2EmE4data, i64 %i.fu
  %i.fw = load i16, ptr %i.fv, align 2
  store i16 %i.fw, ptr %i.ft, align 1
  %indvars.iv.next.i.2 = add nuw nsw i64 %.0.i, 6 ; 2 uses
  %i.fx = icmp samesign ult i64 %indvars.iv.next.i.2, %i.ez
  br i1 %i.fx, label %bb.ad, label %_ZZN3fmt3v126detail12format_floatIdEEiT_iRKNS0_12format_specsEbRNS1_6bufferIcEEENKUljPcE_clEjSA_.exit

end_hunk_3
begin_hunk_4_@_ZN3fmt3v126detail12format_floatIdEEiT_iRKNS0_12format_specsEbRNS1_6bufferIcEE:bb.a
bb.ak:                                            ; preds = %bb.aj, %bb.ai
  %.3211 = phi i64 [ %i.hj, %bb.aj ], [ %i.hd, %bb.ai ] ; 2 uses
  %.2206.in = phi i64 [ %i.hk, %bb.aj ], [ %i.he, %bb.ai ]
  %.0.i143 = phi i64 [ 2, %bb.aj ], [ 1, %bb.ai ]
  %.0.i143.a = phi i32 [ 2, %bb.aj ], [ 1, %bb.ai ]
  %i.ho = icmp samesign ult i32 %.0.i143.a, %i.gv
  br i1 %i.ho, label %.lr.ph.i144.a, label %_ZZN3fmt3v126detail12format_floatIdEEiT_iRKNS0_12format_specsEbRNS1_6bufferIcEEENKUljPcE_clEjSA_.exit147.thread

.lr.ph.i144.a:                                    ; preds = %bb.ak
  %i.hp = zext nneg i32 %i.gv to i64
  br label %bb.al

bb.al:                                            ; preds = %.lr.ph.i144.a, %bb.al
  %.4 = phi i64 [ %i.hr, %bb.al ], [ %.3211, %.lr.ph.i144.a ]
  %indvars.iv.i145 = phi i64 [ %indvars.iv.next.i146, %bb.al ], [ %.0.i143, %.lr.ph.i144.a ] ; 2 uses
  %i.hq = and i64 %.4, 4294967295
  %i.hr = mul nuw nsw i64 %i.hq, 100              ; 3 uses
  %i.hs = lshr i64 %i.hr, 32                      ; 3 uses
end_hunk_4
