inline.NumInlined: 147
inline.NumDeleted: 93
begin_hunk_0_@_ZN5arrow8internal19StringStreamWrapperD2Ev:bb.a
  %i.b = load ptr, ptr %i.a, align 8, !tbaa !15
  %i.c = getelementptr inbounds nuw i8, ptr %i.b, i64 8
  %i.d = load ptr, ptr %i.c, align 8
  tail call void %i.d(ptr noundef nonnull align 8 dereferenceable(112) %i.a) #12
  br label %_ZNSt10unique_ptrINSt7__cxx1119basic_ostringstreamIcSt11char_traitsIcESaIcEEESt14default_deleteIS5_EED2Ev.exit

_ZNSt10unique_ptrINSt7__cxx1119basic_ostringstreamIcSt11char_traitsIcESaIcEEESt14default_deleteIS5_EED2Ev.exit: ; preds = %bb.a, %_ZNKSt14default_deleteINSt7__cxx1119basic_ostringstreamIcSt11char_traitsIcESaIcEEEEclEPS5_.exit.i
end_hunk_0
begin_hunk_1_@_ZN5arrow8internal19StringStreamWrapper3strB5cxx11Ev
define void @_ZN5arrow8internal19StringStreamWrapper3strB5cxx11Ev(ptr dead_on_unwind noalias writable sret(%"class.std::__cxx11::basic_string") align 8 %0, ptr noundef nonnull readonly align 8 captures(none) dereferenceable(16) %1) local_unnamed_addr #0 align 2 personality ptr @__gxx_personality_v0 {
bb.a:
  %i.a = load ptr, ptr %1, align 8, !tbaa !10     ; 4 uses
  tail call void @llvm.experimental.noalias.scope.decl(metadata !17)
  tail call void @llvm.experimental.noalias.scope.decl(metadata !20)
  %i.b = getelementptr inbounds nuw i8, ptr %0, i64 16 ; 4 uses
  store ptr %i.b, ptr %0, align 8, !tbaa !23, !alias.scope !26
  %i.c = getelementptr inbounds nuw i8, ptr %0, i64 8
  store i64 0, ptr %i.c, align 8, !tbaa !27, !alias.scope !26
  store i8 0, ptr %i.b, align 8, !tbaa !30, !alias.scope !26
  %i.d = getelementptr inbounds nuw i8, ptr %i.a, i64 48
  %i.e = load ptr, ptr %i.d, align 8, !tbaa !31, !noalias !26 ; 3 uses
  %.not.i.not.i.i = icmp eq ptr %i.e, null
  %i.f = getelementptr inbounds nuw i8, ptr %i.a, i64 32
  %i.g = load ptr, ptr %i.f, align 8, !noalias !26 ; 2 uses
  %i.h = icmp ugt ptr %i.e, %i.g
  %.08.i.i.i = select i1 %i.h, ptr %i.e, ptr %i.g ; 2 uses
  %.not5.i.i = icmp eq ptr %.08.i.i.i, null
end_hunk_1
begin_hunk_2_@_ZN5arrow8internal19StringStreamWrapper3strB5cxx11Ev:bb.a

bb.b:                                             ; preds = %bb.a
  %i.i = getelementptr inbounds nuw i8, ptr %i.a, i64 40
  %i.j = load ptr, ptr %i.i, align 8, !tbaa !35, !noalias !26 ; 2 uses
  %i.k = ptrtoint ptr %.08.i.i.i to i64
  %i.l = ptrtoint ptr %i.j to i64
  %i.m = sub i64 %i.k, %i.l
end_hunk_2
begin_hunk_3_@_ZN5arrow8internal19StringStreamWrapper3strB5cxx11Ev:bb.a
bb.c:                                             ; preds = %bb.d, %bb.b
  %i.o = landingpad { ptr, i32 }
          cleanup
  %i.p = load ptr, ptr %0, align 8, !tbaa !36, !alias.scope !26 ; 2 uses
  %i.q = icmp eq ptr %i.p, %i.b
  br i1 %i.q, label %_ZNSt7__cxx1112basic_stringIcSt11char_traitsIcESaIcEED2Ev.exit.i.i, label %_ZNKSt7__cxx1112basic_stringIcSt11char_traitsIcESaIcEE11_M_is_localEv.exit.i.i.i.i

_ZNKSt7__cxx1112basic_stringIcSt11char_traitsIcESaIcEE11_M_is_localEv.exit.i.i.i.i: ; preds = %bb.c
  %i.r = load i64, ptr %i.b, align 8, !tbaa !30, !alias.scope !26
  %i.s = add i64 %i.r, 1
  tail call void @_ZdlPvm(ptr noundef %i.p, i64 noundef %i.s) #11
  br label %_ZNSt7__cxx1112basic_stringIcSt11char_traitsIcESaIcEED2Ev.exit.i.i
end_hunk_3
begin_hunk_4_@_ZNSt7__cxx1112basic_stringIcSt11char_traitsIcESaIcEE10_M_replaceEmmPKcm
define linkonce_odr noundef nonnull align 8 dereferenceable(32) ptr @_ZNSt7__cxx1112basic_stringIcSt11char_traitsIcESaIcEE10_M_replaceEmmPKcm(ptr noundef nonnull align 8 dereferenceable(32) %0, i64 noundef %1, i64 noundef %2, ptr noundef %3, i64 noundef %4) local_unnamed_addr #0 comdat align 2 personality ptr @__gxx_personality_v0 {
bb.a:
  %i.a = getelementptr inbounds nuw i8, ptr %0, i64 8 ; 2 uses
  %i.b = load i64, ptr %i.a, align 8, !tbaa !27   ; 6 uses
  %.neg.i = add i64 %2, 9223372036854775807
  %i.c = sub i64 %.neg.i, %i.b
  %i.d = icmp ult i64 %i.c, %4
end_hunk_4
begin_hunk_5_@_ZNSt7__cxx1112basic_stringIcSt11char_traitsIcESaIcEE10_M_replaceEmmPKcm:bb.a
_ZNKSt7__cxx1112basic_stringIcSt11char_traitsIcESaIcEE15_M_check_lengthEmmPKc.exit: ; preds = %bb.a
  %i.e = sub i64 %4, %2
  %i.f = add i64 %i.e, %i.b                       ; 3 uses
  %i.g = load ptr, ptr %0, align 8, !tbaa !36     ; 4 uses
  %i.h = getelementptr inbounds nuw i8, ptr %0, i64 16 ; 2 uses
  %i.i = icmp eq ptr %i.g, %i.h                   ; 2 uses
  br i1 %i.i, label %bb.c, label %_ZNKSt7__cxx1112basic_stringIcSt11char_traitsIcESaIcEE8capacityEv.exit
end_hunk_5
begin_hunk_6_@_ZNSt7__cxx1112basic_stringIcSt11char_traitsIcESaIcEE10_M_replaceEmmPKcm:bb.a
  %i.q = getelementptr inbounds nuw i8, ptr %i.g, i64 %i.b
  %i.r = icmp ult ptr %i.q, %3
  %i.s = select i1 %i.p, i1 true, i1 %i.r
  br i1 %i.s, label %bb.e, label %bb.k, !prof !37

bb.e:                                             ; preds = %bb.d
  %.not35 = icmp eq i64 %i.b, %i.n
end_hunk_6
begin_hunk_7_@_ZNSt7__cxx1112basic_stringIcSt11char_traitsIcESaIcEE10_M_replaceEmmPKcm:bb.a
  br i1 %cond38, label %bb.g, label %bb.h

bb.g:                                             ; preds = %bb.f
  %i.v = load i8, ptr %i.u, align 1, !tbaa !30
  store i8 %i.v, ptr %i.t, align 1, !tbaa !30
  br label %_ZNSt7__cxx1112basic_stringIcSt11char_traitsIcESaIcEE7_S_moveEPcPKcm.exit

bb.h:                                             ; preds = %bb.f
end_hunk_7
begin_hunk_8_@_ZNSt7__cxx1112basic_stringIcSt11char_traitsIcESaIcEE10_M_replaceEmmPKcm:bb.a
  ]

bb.i:                                             ; preds = %_ZNSt7__cxx1112basic_stringIcSt11char_traitsIcESaIcEE7_S_moveEPcPKcm.exit
  %i.w = load i8, ptr %3, align 1, !tbaa !30
  store i8 %i.w, ptr %i.m, align 1, !tbaa !30
  br label %_ZNSt7__cxx1112basic_stringIcSt11char_traitsIcESaIcEE7_S_copyEPcPKcm.exit

bb.j:                                             ; preds = %_ZNSt7__cxx1112basic_stringIcSt11char_traitsIcESaIcEE7_S_moveEPcPKcm.exit
end_hunk_8
begin_hunk_9_@_ZNSt7__cxx1112basic_stringIcSt11char_traitsIcESaIcEE10_M_replaceEmmPKcm:bb.a
  br label %_ZNSt7__cxx1112basic_stringIcSt11char_traitsIcESaIcEE7_S_copyEPcPKcm.exit

_ZNSt7__cxx1112basic_stringIcSt11char_traitsIcESaIcEE7_S_copyEPcPKcm.exit: ; preds = %_ZNSt7__cxx1112basic_stringIcSt11char_traitsIcESaIcEE7_S_moveEPcPKcm.exit, %bb.j, %bb.i, %bb.k, %bb.l
  store i64 %i.f, ptr %i.a, align 8, !tbaa !27
  %i.x = load ptr, ptr %0, align 8, !tbaa !36
  %i.y = getelementptr inbounds nuw i8, ptr %i.x, i64 %i.f
  store i8 0, ptr %i.y, align 1, !tbaa !30
  ret ptr %0
}

end_hunk_9
begin_hunk_10_@_ZNSt7__cxx1112basic_stringIcSt11char_traitsIcESaIcEE9_M_mutateEmmPKcm
define linkonce_odr void @_ZNSt7__cxx1112basic_stringIcSt11char_traitsIcESaIcEE9_M_mutateEmmPKcm(ptr noundef nonnull align 8 dereferenceable(32) %0, i64 noundef %1, i64 noundef %2, ptr noundef %3, i64 noundef %4) local_unnamed_addr #0 comdat align 2 personality ptr @__gxx_personality_v0 {
bb.a:
  %i.a = getelementptr inbounds nuw i8, ptr %0, i64 8
  %i.b = load i64, ptr %i.a, align 8, !tbaa !27   ; 5 uses
  %i.c = add i64 %2, %1                           ; 2 uses
  %i.d = sub i64 %i.b, %i.c                       ; 2 uses
  %i.e = sub i64 %4, %2
  %i.f = add i64 %i.e, %i.b                       ; 5 uses
  %i.g = load ptr, ptr %0, align 8, !tbaa !36     ; 5 uses
  %i.h = getelementptr inbounds nuw i8, ptr %0, i64 16 ; 3 uses
  %i.i = icmp eq ptr %i.g, %i.h                   ; 3 uses
  br i1 %i.i, label %bb.b, label %_ZNKSt7__cxx1112basic_stringIcSt11char_traitsIcESaIcEE8capacityEv.exit
end_hunk_10
begin_hunk_11_@_ZNSt7__cxx1112basic_stringIcSt11char_traitsIcESaIcEE9_M_mutateEmmPKcm:bb.a
  %.0 = phi i64 [ %spec.store.select.i, %bb.f ], [ %i.f, %bb.e ], [ %i.f, %bb.d ] ; 2 uses
  %i.q = add nuw i64 %.0, 1                       ; 2 uses
  %i.r = icmp slt i64 %i.q, 0
  br i1 %i.r, label %bb.h, label %_ZNSt7__cxx1112basic_stringIcSt11char_traitsIcESaIcEE9_M_createERmm.exit, !prof !38

bb.h:                                             ; preds = %bb.g
  tail call void @_ZSt17__throw_bad_allocv() #13
end_hunk_11
begin_hunk_12_@_ZNSt7__cxx1112basic_stringIcSt11char_traitsIcESaIcEE9_M_mutateEmmPKcm:bb.a
  ]

bb.i:                                             ; preds = %_ZNSt7__cxx1112basic_stringIcSt11char_traitsIcESaIcEE9_M_createERmm.exit
  %i.t = load i8, ptr %i.g, align 1, !tbaa !30
  store i8 %i.t, ptr %i.s, align 1, !tbaa !30
  br label %_ZNSt7__cxx1112basic_stringIcSt11char_traitsIcESaIcEE7_S_copyEPcPKcm.exit

bb.j:                                             ; preds = %_ZNSt7__cxx1112basic_stringIcSt11char_traitsIcESaIcEE9_M_createERmm.exit
end_hunk_12
begin_hunk_13_@_ZNSt7__cxx1112basic_stringIcSt11char_traitsIcESaIcEE9_M_mutateEmmPKcm:bb.a
  br i1 %cond, label %bb.l, label %bb.m

bb.l:                                             ; preds = %bb.k
  %i.x = load i8, ptr %3, align 1, !tbaa !30
  store i8 %i.x, ptr %i.w, align 1, !tbaa !30
  br label %_ZNSt7__cxx1112basic_stringIcSt11char_traitsIcESaIcEE7_S_copyEPcPKcm.exit26

bb.m:                                             ; preds = %bb.k
end_hunk_13
begin_hunk_14_@_ZNSt7__cxx1112basic_stringIcSt11char_traitsIcESaIcEE9_M_mutateEmmPKcm:bb.a
  br i1 %cond29, label %bb.o, label %bb.p

bb.o:                                             ; preds = %bb.n
  %i.ac = load i8, ptr %i.ab, align 1, !tbaa !30
  store i8 %i.ac, ptr %i.z, align 1, !tbaa !30
  br label %_ZNSt7__cxx1112basic_stringIcSt11char_traitsIcESaIcEE7_S_copyEPcPKcm.exit27

bb.p:                                             ; preds = %bb.n
end_hunk_14
begin_hunk_15_@_ZNSt7__cxx1112basic_stringIcSt11char_traitsIcESaIcEE9_M_mutateEmmPKcm:bb.a
  br label %_ZNSt7__cxx1112basic_stringIcSt11char_traitsIcESaIcEE10_M_disposeEv.exit

_ZNSt7__cxx1112basic_stringIcSt11char_traitsIcESaIcEE10_M_disposeEv.exit: ; preds = %_ZNKSt7__cxx1112basic_stringIcSt11char_traitsIcESaIcEE11_M_is_localEv.exit.thread.i, %_ZNKSt7__cxx1112basic_stringIcSt11char_traitsIcESaIcEE11_M_is_localEv.exit.i
  store ptr %i.s, ptr %0, align 8, !tbaa !36
  store i64 %.0, ptr %i.h, align 8, !tbaa !30
  ret void
}

end_hunk_15
begin_hunk_16_@_ZNSt7__cxx1112basic_stringIcSt11char_traitsIcESaIcEE9_M_assignERKS4_:bb.a

_ZNKSt7__cxx1112basic_stringIcSt11char_traitsIcESaIcEE8capacityEv.exit: ; preds = %bb.a
  %i.a = getelementptr inbounds nuw i8, ptr %1, i64 8
  %i.b = load i64, ptr %i.a, align 8, !tbaa !27   ; 9 uses
  %i.c = load ptr, ptr %0, align 8, !tbaa !36     ; 4 uses
  %i.d = getelementptr inbounds nuw i8, ptr %0, i64 16 ; 3 uses
  %i.e = icmp eq ptr %i.c, %i.d                   ; 2 uses
  %i.f = load i64, ptr %i.d, align 8              ; 2 uses
end_hunk_16
begin_hunk_17_@_ZNSt7__cxx1112basic_stringIcSt11char_traitsIcESaIcEE9_M_assignERKS4_:bb.a
  %.0 = select i1 %i.k, i64 %spec.store.select.i, i64 %i.b ; 2 uses
  %i.l = add nuw i64 %.0, 1                       ; 2 uses
  %i.m = icmp slt i64 %i.l, 0
  br i1 %i.m, label %bb.e, label %_ZNSt7__cxx1112basic_stringIcSt11char_traitsIcESaIcEE9_M_createERmm.exit, !prof !38

bb.e:                                             ; preds = %bb.d
  tail call void @_ZSt17__throw_bad_allocv() #13
end_hunk_17
begin_hunk_18_@_ZNSt7__cxx1112basic_stringIcSt11char_traitsIcESaIcEE9_M_assignERKS4_:bb.a
  br label %.thread

.thread:                                          ; preds = %_ZNSt7__cxx1112basic_stringIcSt11char_traitsIcESaIcEE9_M_createERmm.exit, %_ZNKSt7__cxx1112basic_stringIcSt11char_traitsIcESaIcEE11_M_is_localEv.exit.i
  store ptr %i.n, ptr %0, align 8, !tbaa !36
  store i64 %.0, ptr %i.d, align 8, !tbaa !30
  br label %.split12

bb.f:                                             ; preds = %_ZNKSt7__cxx1112basic_stringIcSt11char_traitsIcESaIcEE8capacityEv.exit
end_hunk_18
begin_hunk_19_@_ZNSt7__cxx1112basic_stringIcSt11char_traitsIcESaIcEE9_M_assignERKS4_:bb.a

.split:                                           ; preds = %bb.f
  %i.p = getelementptr inbounds nuw i8, ptr %0, i64 8
  store i64 0, ptr %i.p, align 8, !tbaa !27
  store i8 0, ptr %i.c, align 1, !tbaa !30
  br label %bb.i

.split12:                                         ; preds = %.thread, %bb.f
  %i.q = phi ptr [ %i.n, %.thread ], [ %i.c, %bb.f ] ; 2 uses
  %i.r = load ptr, ptr %1, align 8, !tbaa !36     ; 2 uses
  %cond = icmp eq i64 %i.b, 1
  br i1 %cond, label %bb.g, label %bb.h

bb.g:                                             ; preds = %.split12
  %i.s = load i8, ptr %i.r, align 1, !tbaa !30
  store i8 %i.s, ptr %i.q, align 1, !tbaa !30
  br label %_ZNSt7__cxx1112basic_stringIcSt11char_traitsIcESaIcEE7_S_copyEPcPKcm.exit

bb.h:                                             ; preds = %.split12
end_hunk_19
begin_hunk_20_@_ZNSt7__cxx1112basic_stringIcSt11char_traitsIcESaIcEE9_M_assignERKS4_:bb.a

_ZNSt7__cxx1112basic_stringIcSt11char_traitsIcESaIcEE7_S_copyEPcPKcm.exit: ; preds = %bb.g, %bb.h
  %i.t = getelementptr inbounds nuw i8, ptr %0, i64 8
  store i64 %i.b, ptr %i.t, align 8, !tbaa !27
  %i.u = load ptr, ptr %0, align 8, !tbaa !36
  %i.v = getelementptr inbounds nuw i8, ptr %i.u, i64 %i.b
  store i8 0, ptr %i.v, align 1, !tbaa !30
  br label %bb.i

bb.i:                                             ; preds = %_ZNSt7__cxx1112basic_stringIcSt11char_traitsIcESaIcEE7_S_copyEPcPKcm.exit, %.split, %bb.a
end_hunk_20
begin_hunk_21_@llvm.umin.i64
!14 = !{!"p1 _ZTSSo", !12, i64 0}
!15 = !{!16, !16, i64 0}
!16 = !{!"vtable pointer", !6, i64 0}
!17 = !{!18}
!18 = distinct !{!18, !19, !"_ZNKRSt7__cxx1119basic_ostringstreamIcSt11char_traitsIcESaIcEE3strEv: argument 0"}
!19 = distinct !{!19, !"_ZNKRSt7__cxx1119basic_ostringstreamIcSt11char_traitsIcESaIcEE3strEv"}
!20 = !{!21}
!21 = distinct !{!21, !22, !"_ZNKRSt7__cxx1115basic_stringbufIcSt11char_traitsIcESaIcEE3strEv: argument 0"}
!22 = distinct !{!22, !"_ZNKRSt7__cxx1115basic_stringbufIcSt11char_traitsIcESaIcEE3strEv"}
!23 = !{!24, !25, i64 0}
!24 = !{!"_ZTSNSt7__cxx1112basic_stringIcSt11char_traitsIcESaIcEE12_Alloc_hiderE", !25, i64 0}
!25 = !{!"p1 omnipotent char", !12, i64 0}
!26 = !{!21, !18}
!27 = !{!28, !29, i64 8}
!28 = !{!"_ZTSNSt7__cxx1112basic_stringIcSt11char_traitsIcESaIcEEE", !24, i64 0, !29, i64 8, !5, i64 16}
!29 = !{!"long", !5, i64 0}
!30 = !{!5, !5, i64 0}
!31 = !{!32, !25, i64 40}
!32 = !{!"_ZTSSt15basic_streambufIcSt11char_traitsIcEE", !25, i64 8, !25, i64 16, !25, i64 24, !25, i64 32, !25, i64 40, !25, i64 48, !33, i64 56}
!33 = !{!"_ZTSSt6locale", !34, i64 0}
!34 = !{!"p1 _ZTSNSt6locale5_ImplE", !12, i64 0}
!35 = !{!32, !25, i64 32}
!36 = !{!28, !25, i64 0}
!37 = !{!"branch_weights", !"expected", i32 2000, i32 1}
!38 = !{!"branch_weights", !"expected", i32 1, i32 2000}
end_hunk_21
