begin_hunk_0_@_ZN5arrow6Status11DeleteStateEv:bb.a
  %i.j = load ptr, ptr %i.d, align 8, !tbaa !38
  %i.k = getelementptr inbounds nuw i8, ptr %i.j, i64 16
  %i.l = load ptr, ptr %i.k, align 8
  tail call void %i.l(ptr noundef nonnull align 8 dereferenceable(16) %i.d) #8
  %i.m = load ptr, ptr %i.d, align 8, !tbaa !38
  %i.n = getelementptr inbounds nuw i8, ptr %i.m, i64 24
  %i.o = load ptr, ptr %i.n, align 8
  tail call void %i.o(ptr noundef nonnull align 8 dereferenceable(16) %i.d) #8
  br label %_ZNSt12__shared_ptrIN5arrow12StatusDetailELN9__gnu_cxx12_Lock_policyE2EED2Ev.exit.i

bb.e:                                             ; preds = %bb.c
end_hunk_0
begin_hunk_1_@_ZN5arrow6Status11DeleteStateEv:bb.a
_ZN9__gnu_cxx27__exchange_and_add_dispatchEPii.exit.i.i.i.i: ; preds = %bb.g, %bb.f
  %.0.i.i.i.i.i = phi i32 [ %i.h, %bb.f ], [ %i.r, %bb.g ]
  %i.s = icmp eq i32 %.0.i.i.i.i.i, 1
  br i1 %i.s, label %bb.h, label %_ZNSt12__shared_ptrIN5arrow12StatusDetailELN9__gnu_cxx12_Lock_policyE2EED2Ev.exit.i, !prof !40

bb.h:                                             ; preds = %_ZN9__gnu_cxx27__exchange_and_add_dispatchEPii.exit.i.i.i.i
  tail call void @_ZNSt16_Sp_counted_baseILN9__gnu_cxx12_Lock_policyE2EE24_M_release_last_use_coldEv(ptr noundef nonnull align 8 dereferenceable(16) %i.d) #8
end_hunk_1
begin_hunk_2_@_ZNSt16_Sp_counted_baseILN9__gnu_cxx12_Lock_policyE2EE24_M_release_last_use_coldEv:bb.a
  %i.a = load ptr, ptr %0, align 8, !tbaa !38
  %i.b = getelementptr inbounds nuw i8, ptr %i.a, i64 16
  %i.c = load ptr, ptr %i.b, align 8
  tail call void %i.c(ptr noundef nonnull align 8 dereferenceable(16) %0) #8
  %i.d = getelementptr inbounds nuw i8, ptr %0, i64 12 ; 3 uses
  %i.e = load i8, ptr @__libc_single_threaded, align 1, !tbaa !33
  %.not.i = icmp eq i8 %i.e, 0
end_hunk_2
begin_hunk_3_@_ZNSt16_Sp_counted_baseILN9__gnu_cxx12_Lock_policyE2EE24_M_release_last_use_coldEv:bb.a
  %i.j = load ptr, ptr %0, align 8, !tbaa !38
  %i.k = getelementptr inbounds nuw i8, ptr %i.j, i64 24
  %i.l = load ptr, ptr %i.k, align 8
  tail call void %i.l(ptr noundef nonnull align 8 dereferenceable(16) %0) #8
  br label %_ZNSt16_Sp_counted_baseILN9__gnu_cxx12_Lock_policyE2EE19_M_release_last_useEv.exit

_ZNSt16_Sp_counted_baseILN9__gnu_cxx12_Lock_policyE2EE19_M_release_last_useEv.exit: ; preds = %_ZN9__gnu_cxx27__exchange_and_add_dispatchEPii.exit.i, %bb.d
end_hunk_3
begin_hunk_4_@_ZN5arrow8internal12JoinToStringIJRA61_KcRNS_4Type4typeEEEENSt7__cxx1112basic_stringIcSt11char_traitsIcESaIcEEEDpOT_:bb.a
  call void @llvm.lifetime.start.p0(ptr nonnull %3) #8
  call void @_ZN5arrow8internal19StringStreamWrapperC1Ev(ptr noundef nonnull align 8 dereferenceable(16) %3)
  %i.a = getelementptr inbounds nuw i8, ptr %3, i64 8 ; 2 uses
  %i.b = load ptr, ptr %i.a, align 8, !tbaa !41, !nonnull !28, !align !51
  %i.c = call noundef i64 @strlen(ptr noundef nonnull align 1 dereferenceable(61) %1) #8
  %i.d = invoke noundef nonnull align 8 dereferenceable(8) ptr @_ZSt16__ostream_insertIcSt11char_traitsIcEERSt13basic_ostreamIT_T0_ES6_PKS3_l(ptr noundef nonnull align 8 dereferenceable(8) %i.b, ptr noundef nonnull align 1 dereferenceable(61) %1, i64 noundef %i.c)
          to label %_ZZN5arrow8internal12JoinToStringIJRA61_KcRNS_4Type4typeEEEENSt7__cxx1112basic_stringIcSt11char_traitsIcESaIcEEEDpOT_ENKUlOT_E0_clIS4_EEDaSI_.exit unwind label %bb.c ; 0 uses

_ZZN5arrow8internal12JoinToStringIJRA61_KcRNS_4Type4typeEEEENSt7__cxx1112basic_stringIcSt11char_traitsIcESaIcEEEDpOT_ENKUlOT_E0_clIS4_EEDaSI_.exit: ; preds = %bb.a
  %i.e = load ptr, ptr %i.a, align 8, !tbaa !41, !nonnull !28, !align !51
  %i.f = load i32, ptr %2, align 4, !tbaa !7
  %i.g = invoke noundef nonnull align 8 dereferenceable(8) ptr @_ZNSolsEi(ptr noundef nonnull align 8 dereferenceable(8) %i.e, i32 noundef %i.f)
          to label %_ZZN5arrow8internal12JoinToStringIJRA61_KcRNS_4Type4typeEEEENSt7__cxx1112basic_stringIcSt11char_traitsIcESaIcEEEDpOT_ENKUlOT_E_clIS7_EEDaSI_.exit unwind label %bb.d ; 0 uses
end_hunk_4
begin_hunk_5_@_ZNSolsEi
!37 = !{!36, !4, i64 12}
!38 = !{!39, !39, i64 0}
!39 = !{!"vtable pointer", !6, i64 0}
!40 = !{!"branch_weights", !"expected", i32 1, i32 2000}
!41 = !{!42, !50, i64 8}
!42 = !{!"_ZTSN5arrow8internal19StringStreamWrapperE", !43, i64 0, !50, i64 8}
!43 = !{!"_ZTSSt10unique_ptrINSt7__cxx1119basic_ostringstreamIcSt11char_traitsIcESaIcEEESt14default_deleteIS5_EE", !44, i64 0}
!44 = !{!"_ZTSSt15__uniq_ptr_dataINSt7__cxx1119basic_ostringstreamIcSt11char_traitsIcESaIcEEESt14default_deleteIS5_ELb1ELb1EE", !45, i64 0}
!45 = !{!"_ZTSSt15__uniq_ptr_implINSt7__cxx1119basic_ostringstreamIcSt11char_traitsIcESaIcEEESt14default_deleteIS5_EE", !46, i64 0}
!46 = !{!"_ZTSSt5tupleIJPNSt7__cxx1119basic_ostringstreamIcSt11char_traitsIcESaIcEEESt14default_deleteIS5_EEE", !47, i64 0}
!47 = !{!"_ZTSSt11_Tuple_implILm0EJPNSt7__cxx1119basic_ostringstreamIcSt11char_traitsIcESaIcEEESt14default_deleteIS5_EEE", !48, i64 0}
!48 = !{!"_ZTSSt10_Head_baseILm0EPNSt7__cxx1119basic_ostringstreamIcSt11char_traitsIcESaIcEEELb0EE", !49, i64 0}
!49 = !{!"p1 _ZTSNSt7__cxx1119basic_ostringstreamIcSt11char_traitsIcESaIcEEE", !12, i64 0}
!50 = !{!"p1 _ZTSSo", !12, i64 0}
!51 = !{i64 8}
end_hunk_5
