begin_hunk_0_@_ZNSt12__shared_ptrIN6Assimp7Blender8ElemBaseELN9__gnu_cxx12_Lock_policyE2EE5resetIS2_PFvPS2_EEENSt9enable_ifIXsr21__sp_is_constructibleIS2_T_EE5valueEvE4typeEPSB_T0_:bb.a
  %i.s = load ptr, ptr %i.m, align 8
  %i.t = getelementptr inbounds nuw i8, ptr %i.s, i64 16
  %i.u = load ptr, ptr %i.t, align 8
  tail call void %i.u(ptr noundef nonnull align 8 dereferenceable(16) %i.m) #23
  %i.v = load ptr, ptr %i.m, align 8
  %i.w = getelementptr inbounds nuw i8, ptr %i.v, i64 24
  %i.x = load ptr, ptr %i.w, align 8
  tail call void %i.x(ptr noundef nonnull align 8 dereferenceable(16) %i.m) #23
  br label %_ZNSt12__shared_ptrIN6Assimp7Blender8ElemBaseELN9__gnu_cxx12_Lock_policyE2EED2Ev.exit

bb.j:                                             ; preds = %bb.h
end_hunk_0
begin_hunk_1_@_ZNSt12__shared_ptrIN6Assimp7Blender8ElemBaseELN9__gnu_cxx12_Lock_policyE2EE5resetIS2_PFvPS2_EEENSt9enable_ifIXsr21__sp_is_constructibleIS2_T_EE5valueEvE4typeEPSB_T0_:bb.a
_ZN9__gnu_cxx27__exchange_and_add_dispatchEPii.exit.i.i.i: ; preds = %bb.l, %bb.k
  %.0.i.i.i.i = phi i32 [ %i.q, %bb.k ], [ %i.aa, %bb.l ]
  %i.ab = icmp eq i32 %.0.i.i.i.i, 1
  br i1 %i.ab, label %bb.m, label %_ZNSt12__shared_ptrIN6Assimp7Blender8ElemBaseELN9__gnu_cxx12_Lock_policyE2EED2Ev.exit, !prof !14

bb.m:                                             ; preds = %_ZN9__gnu_cxx27__exchange_and_add_dispatchEPii.exit.i.i.i
  tail call void @_ZNSt16_Sp_counted_baseILN9__gnu_cxx12_Lock_policyE2EE24_M_release_last_use_coldEv(ptr noundef nonnull align 8 dereferenceable(16) %i.m) #23
end_hunk_1
begin_hunk_2_@_ZN6Assimp7Blender18getCustomDataLayerERKNS0_10CustomDataENS0_14CustomDataTypeERKNSt7__cxx1112basic_stringIcSt11char_traitsIcESaIcEEE:bb.a
_ZSteqIcSt11char_traitsIcESaIcEEbRKNSt7__cxx1112basic_stringIT_T0_T1_EEPKS5_.exit.thread9.us: ; preds = %bb.b, %.lr.ph.split.us
  %i.o = getelementptr inbounds nuw i8, ptr %.sroa.04.013.us, i64 16 ; 2 uses
  %.not.us = icmp eq ptr %i.o, %i.d
  br i1 %.not.us, label %_ZNSt10shared_ptrIN6Assimp7Blender15CustomDataLayerEEC2ERKS3_.exit, label %.lr.ph.split.us, !llvm.loop !15

.lr.ph.split:                                     ; preds = %.lr.ph, %_ZSteqIcSt11char_traitsIcESaIcEEbRKNSt7__cxx1112basic_stringIT_T0_T1_EEPKS5_.exit.thread9
  %.sroa.04.013 = phi ptr [ %i.af, %_ZSteqIcSt11char_traitsIcESaIcEEbRKNSt7__cxx1112basic_stringIT_T0_T1_EEPKS5_.exit.thread9 ], [ %i.b, %.lr.ph ] ; 3 uses
end_hunk_2
begin_hunk_3_@_ZN6Assimp7Blender18getCustomDataLayerERKNS0_10CustomDataENS0_14CustomDataTypeERKNSt7__cxx1112basic_stringIcSt11char_traitsIcESaIcEEE:bb.a
_ZSteqIcSt11char_traitsIcESaIcEEbRKNSt7__cxx1112basic_stringIT_T0_T1_EEPKS5_.exit.thread9: ; preds = %bb.c, %.lr.ph.split, %_ZSteqIcSt11char_traitsIcESaIcEEbRKNSt7__cxx1112basic_stringIT_T0_T1_EEPKS5_.exit
  %i.af = getelementptr inbounds nuw i8, ptr %.sroa.04.013, i64 16 ; 2 uses
  %.not = icmp eq ptr %i.af, %i.d
  br i1 %.not, label %_ZNSt10shared_ptrIN6Assimp7Blender15CustomDataLayerEEC2ERKS3_.exit, label %.lr.ph.split, !llvm.loop !15

_ZNSt10shared_ptrIN6Assimp7Blender15CustomDataLayerEEC2ERKS3_.exit: ; preds = %_ZSteqIcSt11char_traitsIcESaIcEEbRKNSt7__cxx1112basic_stringIT_T0_T1_EEPKS5_.exit.thread9, %_ZSteqIcSt11char_traitsIcESaIcEEbRKNSt7__cxx1112basic_stringIT_T0_T1_EEPKS5_.exit.thread9.us, %bb.a
  tail call void @llvm.memset.p0.i64(ptr noundef nonnull align 8 dereferenceable(16) %0, i8 0, i64 16, i1 false)
end_hunk_3
begin_hunk_4_@_ZN6Assimp7Blender22getCustomDataLayerDataERKNS0_10CustomDataENS0_14CustomDataTypeERKNSt7__cxx1112basic_stringIcSt11char_traitsIcESaIcEEE
define hidden noundef ptr @_ZN6Assimp7Blender22getCustomDataLayerDataERKNS0_10CustomDataENS0_14CustomDataTypeERKNSt7__cxx1112basic_stringIcSt11char_traitsIcESaIcEEE(ptr noundef nonnull readonly align 8 captures(none) dereferenceable(224) %0, i32 noundef %1, ptr noundef nonnull readonly align 8 captures(none) dereferenceable(32) %2) local_unnamed_addr #7 personality ptr @__gxx_personality_v0 {
bb.a:
  %i.a = getelementptr inbounds nuw i8, ptr %0, i64 16
  %i.b = load ptr, ptr %i.a, align 8, !noalias !16 ; 3 uses
  %i.c = getelementptr inbounds nuw i8, ptr %0, i64 24
  %i.d = load ptr, ptr %i.c, align 8, !noalias !16 ; 3 uses
  %.not12.i = icmp eq ptr %i.b, %i.d
  br i1 %.not12.i, label %_ZNSt12__shared_ptrIN6Assimp7Blender15CustomDataLayerELN9__gnu_cxx12_Lock_policyE2EED2Ev.exit, label %.lr.ph.i

.lr.ph.i:                                         ; preds = %bb.a
  %i.e = getelementptr inbounds nuw i8, ptr %2, i64 8
  %i.f = load i64, ptr %i.e, align 8, !noalias !16
  %.fr18.i = freeze i64 %i.f                      ; 3 uses
  %i.g = icmp eq i64 %.fr18.i, 0
  %i.h = load ptr, ptr %2, align 8, !noalias !16
  br i1 %i.g, label %.lr.ph.split.us.i, label %.lr.ph.split.i

.lr.ph.split.us.i:                                ; preds = %.lr.ph.i, %_ZSteqIcSt11char_traitsIcESaIcEEbRKNSt7__cxx1112basic_stringIT_T0_T1_EEPKS5_.exit.thread9.us.i
  %.sroa.04.013.us.i = phi ptr [ %i.o, %_ZSteqIcSt11char_traitsIcESaIcEEbRKNSt7__cxx1112basic_stringIT_T0_T1_EEPKS5_.exit.thread9.us.i ], [ %i.b, %.lr.ph.i ] ; 3 uses
  %i.i = load ptr, ptr %.sroa.04.013.us.i, align 8, !noalias !16 ; 3 uses
  %i.j = getelementptr inbounds nuw i8, ptr %i.i, i64 16
  %i.k = load i32, ptr %i.j, align 8, !noalias !16
  %i.l = icmp eq i32 %i.k, %1
  br i1 %i.l, label %bb.b, label %_ZSteqIcSt11char_traitsIcESaIcEEbRKNSt7__cxx1112basic_stringIT_T0_T1_EEPKS5_.exit.thread9.us.i

bb.b:                                             ; preds = %.lr.ph.split.us.i
  %i.m = getelementptr inbounds nuw i8, ptr %i.i, i64 48
  %char0.i = load i8, ptr %i.m, align 1, !noalias !16
  %i.n = icmp eq i8 %char0.i, 0
  br i1 %i.n, label %_ZSteqIcSt11char_traitsIcESaIcEEbRKNSt7__cxx1112basic_stringIT_T0_T1_EEPKS5_.exit.thread.i, label %_ZSteqIcSt11char_traitsIcESaIcEEbRKNSt7__cxx1112basic_stringIT_T0_T1_EEPKS5_.exit.thread9.us.i

_ZSteqIcSt11char_traitsIcESaIcEEbRKNSt7__cxx1112basic_stringIT_T0_T1_EEPKS5_.exit.thread9.us.i: ; preds = %bb.b, %.lr.ph.split.us.i
  %i.o = getelementptr inbounds nuw i8, ptr %.sroa.04.013.us.i, i64 16 ; 2 uses
  %.not.us.i = icmp eq ptr %i.o, %i.d
  br i1 %.not.us.i, label %_ZNSt12__shared_ptrIN6Assimp7Blender15CustomDataLayerELN9__gnu_cxx12_Lock_policyE2EED2Ev.exit, label %.lr.ph.split.us.i, !llvm.loop !15

.lr.ph.split.i:                                   ; preds = %.lr.ph.i, %_ZSteqIcSt11char_traitsIcESaIcEEbRKNSt7__cxx1112basic_stringIT_T0_T1_EEPKS5_.exit.thread9.i
  %.sroa.04.013.i = phi ptr [ %i.ae, %_ZSteqIcSt11char_traitsIcESaIcEEbRKNSt7__cxx1112basic_stringIT_T0_T1_EEPKS5_.exit.thread9.i ], [ %i.b, %.lr.ph.i ] ; 3 uses
  %i.p = load ptr, ptr %.sroa.04.013.i, align 8, !noalias !16 ; 3 uses
  %i.q = getelementptr inbounds nuw i8, ptr %i.p, i64 16
  %i.r = load i32, ptr %i.q, align 8, !noalias !16
  %i.s = icmp eq i32 %i.r, %1
  br i1 %i.s, label %bb.c, label %_ZSteqIcSt11char_traitsIcESaIcEEbRKNSt7__cxx1112basic_stringIT_T0_T1_EEPKS5_.exit.thread9.i

bb.c:                                             ; preds = %.lr.ph.split.i
  %i.t = getelementptr inbounds nuw i8, ptr %i.p, i64 48 ; 2 uses
  %i.u = tail call noundef i64 @strlen(ptr noundef nonnull dereferenceable(1) %i.t) #23, !noalias !16
  %i.v = icmp eq i64 %.fr18.i, %i.u
  br i1 %i.v, label %_ZSteqIcSt11char_traitsIcESaIcEEbRKNSt7__cxx1112basic_stringIT_T0_T1_EEPKS5_.exit.i, label %_ZSteqIcSt11char_traitsIcESaIcEEbRKNSt7__cxx1112basic_stringIT_T0_T1_EEPKS5_.exit.thread9.i

_ZSteqIcSt11char_traitsIcESaIcEEbRKNSt7__cxx1112basic_stringIT_T0_T1_EEPKS5_.exit.i: ; preds = %bb.c
  %bcmp.i.i = tail call i32 @bcmp(ptr %i.h, ptr nonnull %i.t, i64 %.fr18.i), !noalias !16
  %i.w = icmp eq i32 %bcmp.i.i, 0
  br i1 %i.w, label %_ZSteqIcSt11char_traitsIcESaIcEEbRKNSt7__cxx1112basic_stringIT_T0_T1_EEPKS5_.exit.thread.i, label %_ZSteqIcSt11char_traitsIcESaIcEEbRKNSt7__cxx1112basic_stringIT_T0_T1_EEPKS5_.exit.thread9.i

end_hunk_4
begin_hunk_5_@_ZN6Assimp7Blender22getCustomDataLayerDataERKNS0_10CustomDataENS0_14CustomDataTypeERKNSt7__cxx1112basic_stringIcSt11char_traitsIcESaIcEEE:bb.a
  %.us-phi.i = phi ptr [ %i.i, %bb.b ], [ %i.p, %_ZSteqIcSt11char_traitsIcESaIcEEbRKNSt7__cxx1112basic_stringIT_T0_T1_EEPKS5_.exit.i ] ; 2 uses
  %.us-phi14.i = phi ptr [ %.sroa.04.013.us.i, %bb.b ], [ %.sroa.04.013.i, %_ZSteqIcSt11char_traitsIcESaIcEEbRKNSt7__cxx1112basic_stringIT_T0_T1_EEPKS5_.exit.i ]
  %i.x = getelementptr inbounds nuw i8, ptr %.us-phi14.i, i64 8
  %i.y = load ptr, ptr %i.x, align 8, !noalias !16 ; 9 uses
  %.not.i.i.i.i = icmp eq ptr %i.y, null
  br i1 %.not.i.i.i.i, label %_ZN6Assimp7Blender18getCustomDataLayerERKNS0_10CustomDataENS0_14CustomDataTypeERKNSt7__cxx1112basic_stringIcSt11char_traitsIcESaIcEEE.exit, label %bb.d

bb.d:                                             ; preds = %_ZSteqIcSt11char_traitsIcESaIcEEbRKNSt7__cxx1112basic_stringIT_T0_T1_EEPKS5_.exit.thread.i
  %i.z = getelementptr inbounds nuw i8, ptr %i.y, i64 8 ; 3 uses
  %i.aa = load i8, ptr @__libc_single_threaded, align 1, !noalias !16
  %.not.i.i.i.i.i = icmp eq i8 %i.aa, 0
  br i1 %.not.i.i.i.i.i, label %bb.f, label %bb.e

bb.e:                                             ; preds = %bb.d
  %i.ab = load i32, ptr %i.z, align 4, !noalias !16
  %i.ac = add nsw i32 %i.ab, 1
  store i32 %i.ac, ptr %i.z, align 4, !noalias !16
  br label %bb.g

bb.f:                                             ; preds = %bb.d
  %i.ad = atomicrmw volatile add ptr %i.z, i32 1 acq_rel, align 4, !noalias !16 ; 0 uses
  br label %bb.g

_ZSteqIcSt11char_traitsIcESaIcEEbRKNSt7__cxx1112basic_stringIT_T0_T1_EEPKS5_.exit.thread9.i: ; preds = %_ZSteqIcSt11char_traitsIcESaIcEEbRKNSt7__cxx1112basic_stringIT_T0_T1_EEPKS5_.exit.i, %bb.c, %.lr.ph.split.i
  %i.ae = getelementptr inbounds nuw i8, ptr %.sroa.04.013.i, i64 16 ; 2 uses
  %.not.i = icmp eq ptr %i.ae, %i.d
  br i1 %.not.i, label %_ZNSt12__shared_ptrIN6Assimp7Blender15CustomDataLayerELN9__gnu_cxx12_Lock_policyE2EED2Ev.exit, label %.lr.ph.split.i, !llvm.loop !15

_ZN6Assimp7Blender18getCustomDataLayerERKNS0_10CustomDataENS0_14CustomDataTypeERKNSt7__cxx1112basic_stringIcSt11char_traitsIcESaIcEEE.exit: ; preds = %_ZSteqIcSt11char_traitsIcESaIcEEbRKNSt7__cxx1112basic_stringIT_T0_T1_EEPKS5_.exit.thread.i
  %i.af = getelementptr inbounds nuw i8, ptr %.us-phi.i, i64 112
end_hunk_5
begin_hunk_6_@_ZN6Assimp7Blender22getCustomDataLayerDataERKNS0_10CustomDataENS0_14CustomDataTypeERKNSt7__cxx1112basic_stringIcSt11char_traitsIcESaIcEEE:bb.a
  %i.ao = load ptr, ptr %i.y, align 8
  %i.ap = getelementptr inbounds nuw i8, ptr %i.ao, i64 16
  %i.aq = load ptr, ptr %i.ap, align 8
  tail call void %i.aq(ptr noundef nonnull align 8 dereferenceable(16) %i.y) #23
  %i.ar = load ptr, ptr %i.y, align 8
  %i.as = getelementptr inbounds nuw i8, ptr %i.ar, i64 24
  %i.at = load ptr, ptr %i.as, align 8
  tail call void %i.at(ptr noundef nonnull align 8 dereferenceable(16) %i.y) #23
  br label %_ZNSt12__shared_ptrIN6Assimp7Blender15CustomDataLayerELN9__gnu_cxx12_Lock_policyE2EED2Ev.exit

bb.i:                                             ; preds = %bb.g
end_hunk_6
begin_hunk_7_@_ZN6Assimp7Blender22getCustomDataLayerDataERKNS0_10CustomDataENS0_14CustomDataTypeERKNSt7__cxx1112basic_stringIcSt11char_traitsIcESaIcEEE:bb.a
_ZN9__gnu_cxx27__exchange_and_add_dispatchEPii.exit.i.i.i: ; preds = %bb.k, %bb.j
  %.0.i.i.i.i = phi i32 [ %i.am, %bb.j ], [ %i.aw, %bb.k ]
  %i.ax = icmp eq i32 %.0.i.i.i.i, 1
  br i1 %i.ax, label %bb.l, label %_ZNSt12__shared_ptrIN6Assimp7Blender15CustomDataLayerELN9__gnu_cxx12_Lock_policyE2EED2Ev.exit, !prof !14

bb.l:                                             ; preds = %_ZN9__gnu_cxx27__exchange_and_add_dispatchEPii.exit.i.i.i
  tail call void @_ZNSt16_Sp_counted_baseILN9__gnu_cxx12_Lock_policyE2EE24_M_release_last_use_coldEv(ptr noundef nonnull align 8 dereferenceable(16) %i.y) #23
end_hunk_7
begin_hunk_8_@_ZN6Assimp9Formatter15basic_formatterIcSt11char_traitsIcESaIcEEC2EOS5_:bb.a
  %2 = alloca %"class.std::__cxx11::basic_string", align 8 ; 12 uses
  tail call void @_ZNSt7__cxx1119basic_ostringstreamIcSt11char_traitsIcESaIcEEC1Ev(ptr noundef nonnull align 8 dereferenceable(112) %0)
  call void @llvm.lifetime.start.p0(ptr nonnull %2) #23
  tail call void @llvm.experimental.noalias.scope.decl(metadata !19)
  tail call void @llvm.experimental.noalias.scope.decl(metadata !22)
  tail call void @llvm.experimental.noalias.scope.decl(metadata !25)
  %i.a = getelementptr inbounds nuw i8, ptr %2, i64 16 ; 7 uses
  store ptr %i.a, ptr %2, align 8, !alias.scope !28
  %i.b = getelementptr inbounds nuw i8, ptr %2, i64 8 ; 2 uses
  store i64 0, ptr %i.b, align 8, !alias.scope !28
  store i8 0, ptr %i.a, align 8, !alias.scope !28
  %i.c = getelementptr inbounds nuw i8, ptr %1, i64 48
  %i.d = load ptr, ptr %i.c, align 8, !noalias !28 ; 3 uses
  %.not.i.not.i.i.i = icmp eq ptr %i.d, null
  %i.e = getelementptr inbounds nuw i8, ptr %1, i64 32
  %i.f = load ptr, ptr %i.e, align 8, !noalias !28 ; 2 uses
  %i.g = icmp ugt ptr %i.d, %i.f
  %.08.i.i.i.i = select i1 %i.g, ptr %i.d, ptr %i.f ; 2 uses
  %.not5.i.i.i = icmp eq ptr %.08.i.i.i.i, null
end_hunk_8
begin_hunk_9_@_ZN6Assimp9Formatter15basic_formatterIcSt11char_traitsIcESaIcEEC2EOS5_:bb.a

bb.b:                                             ; preds = %bb.a
  %i.h = getelementptr inbounds nuw i8, ptr %1, i64 40
  %i.i = load ptr, ptr %i.h, align 8, !noalias !28 ; 2 uses
  %i.j = ptrtoint ptr %.08.i.i.i.i to i64
  %i.k = ptrtoint ptr %i.i to i64
  %i.l = sub i64 %i.j, %i.k
end_hunk_9
begin_hunk_10_@_ZN6Assimp9Formatter15basic_formatterIcSt11char_traitsIcESaIcEEC2EOS5_:bb.a
bb.c:                                             ; preds = %bb.d, %bb.b
  %i.n = landingpad { ptr, i32 }
          cleanup                                 ; 2 uses
  %i.o = load ptr, ptr %2, align 8, !alias.scope !28 ; 2 uses
  %i.p = icmp eq ptr %i.o, %i.a
  br i1 %i.p, label %.body, label %.body.sink.split

end_hunk_10
begin_hunk_11_@_ZNSt16_Sp_counted_baseILN9__gnu_cxx12_Lock_policyE2EE24_M_release_last_use_coldEv:bb.a
  %i.a = load ptr, ptr %0, align 8
  %i.b = getelementptr inbounds nuw i8, ptr %i.a, i64 16
  %i.c = load ptr, ptr %i.b, align 8
  tail call void %i.c(ptr noundef nonnull align 8 dereferenceable(16) %0) #23
  %i.d = getelementptr inbounds nuw i8, ptr %0, i64 12 ; 3 uses
  %i.e = load i8, ptr @__libc_single_threaded, align 1
  %.not.i = icmp eq i8 %i.e, 0
end_hunk_11
begin_hunk_12_@_ZNSt16_Sp_counted_baseILN9__gnu_cxx12_Lock_policyE2EE24_M_release_last_use_coldEv:bb.a
  %i.j = load ptr, ptr %0, align 8
  %i.k = getelementptr inbounds nuw i8, ptr %i.j, i64 24
  %i.l = load ptr, ptr %i.k, align 8
  tail call void %i.l(ptr noundef nonnull align 8 dereferenceable(16) %0) #23
  br label %_ZNSt16_Sp_counted_baseILN9__gnu_cxx12_Lock_policyE2EE19_M_release_last_useEv.exit

_ZNSt16_Sp_counted_baseILN9__gnu_cxx12_Lock_policyE2EE19_M_release_last_useEv.exit: ; preds = %_ZN9__gnu_cxx27__exchange_and_add_dispatchEPii.exit.i, %bb.d
end_hunk_12
begin_hunk_13_@bcmp
!11 = distinct !{!11, !4}
!12 = distinct !{!12, !4}
!13 = distinct !{!13, !4}
!14 = !{!"branch_weights", !"expected", i32 1, i32 2000}
!15 = distinct !{!15, !4}
!16 = !{!17}
!17 = distinct !{!17, !18, !"_ZN6Assimp7Blender18getCustomDataLayerERKNS0_10CustomDataENS0_14CustomDataTypeERKNSt7__cxx1112basic_stringIcSt11char_traitsIcESaIcEEE: argument 0"}
!18 = distinct !{!18, !"_ZN6Assimp7Blender18getCustomDataLayerERKNS0_10CustomDataENS0_14CustomDataTypeERKNSt7__cxx1112basic_stringIcSt11char_traitsIcESaIcEEE"}
!19 = !{!20}
!20 = distinct !{!20, !21, !"_ZNK6Assimp9Formatter15basic_formatterIcSt11char_traitsIcESaIcEEcvNSt7__cxx1112basic_stringIcS3_S4_EEEv: argument 0"}
!21 = distinct !{!21, !"_ZNK6Assimp9Formatter15basic_formatterIcSt11char_traitsIcESaIcEEcvNSt7__cxx1112basic_stringIcS3_S4_EEEv"}
!22 = !{!23}
!23 = distinct !{!23, !24, !"_ZNKSt7__cxx1119basic_ostringstreamIcSt11char_traitsIcESaIcEE3strEv: argument 0"}
!24 = distinct !{!24, !"_ZNKSt7__cxx1119basic_ostringstreamIcSt11char_traitsIcESaIcEE3strEv"}
!25 = !{!26}
!26 = distinct !{!26, !27, !"_ZNKSt7__cxx1115basic_stringbufIcSt11char_traitsIcESaIcEE3strEv: argument 0"}
!27 = distinct !{!27, !"_ZNKSt7__cxx1115basic_stringbufIcSt11char_traitsIcESaIcEE3strEv"}
!28 = !{!26, !23, !20}
end_hunk_13
