inline.NumInlined: 569
inline.NumDeleted: 281
begin_hunk_0_@_ZN6Assimp4Ogre12OgreImporter14InternReadFileERKNSt7__cxx1112basic_stringIcSt11char_traitsIcESaIcEEEP7aiScenePNS_8IOSystemE:._crit_edge.i.i
  %i.f = getelementptr inbounds nuw i8, ptr %i.e, i64 32
  %i.g = load ptr, ptr %i.f, align 8
  %i.h = invoke noundef ptr %i.g(ptr noundef nonnull align 8 dereferenceable(32) %3, ptr noundef %i.d, ptr noundef nonnull %i.a)
          to label %_ZN6Assimp8IOSystem4OpenERKNSt7__cxx1112basic_stringIcSt11char_traitsIcESaIcEEES8_.exit unwind label %bb.c, !inline_history !10 ; 7 uses

_ZN6Assimp8IOSystem4OpenERKNSt7__cxx1112basic_stringIcSt11char_traitsIcESaIcEEES8_.exit: ; preds = %._crit_edge.i.i
  %i.i = load ptr, ptr %4, align 8                ; 2 uses
end_hunk_0
begin_hunk_1_@_ZN6Assimp4Ogre12OgreImporter14InternReadFileERKNSt7__cxx1112basic_stringIcSt11char_traitsIcESaIcEEEP7aiScenePNS_8IOSystemE:._crit_edge.i.i
  %i.an = load ptr, ptr %i.ah, align 8
  %i.ao = getelementptr inbounds nuw i8, ptr %i.an, i64 16
  %i.ap = load ptr, ptr %i.ao, align 8
  call void %i.ap(ptr noundef nonnull align 8 dereferenceable(16) %i.ah) #22, !inline_history !11
  %i.aq = load ptr, ptr %i.ah, align 8
  %i.ar = getelementptr inbounds nuw i8, ptr %i.aq, i64 24
  %i.as = load ptr, ptr %i.ar, align 8
  call void %i.as(ptr noundef nonnull align 8 dereferenceable(16) %i.ah) #22, !inline_history !11
  br label %_ZN6Assimp12StreamReaderILb0ELb0EED2Ev.exit

bb.n:                                             ; preds = %bb.l
end_hunk_1
begin_hunk_2_@_ZN6Assimp4Ogre12OgreImporter14InternReadFileERKNSt7__cxx1112basic_stringIcSt11char_traitsIcESaIcEEEP7aiScenePNS_8IOSystemE:._crit_edge.i.i
  %i.bw = load ptr, ptr %i.h, align 8
  %i.bx = getelementptr inbounds nuw i8, ptr %i.bw, i64 8
  %i.by = load ptr, ptr %i.bx, align 8
  call void %i.by(ptr noundef nonnull align 8 dereferenceable(8) %i.h) #22, !inline_history !12
  br label %bb.ad

bb.ad:                                            ; preds = %_ZNSt10unique_ptrIN6Assimp8IOStreamESt14default_deleteIS1_EED2Ev.exit, %_ZN6Assimp12StreamReaderILb0ELb0EED2Ev.exit
end_hunk_2
begin_hunk_3_@_ZN6Assimp4Ogre12OgreImporter14InternReadFileERKNSt7__cxx1112basic_stringIcSt11char_traitsIcESaIcEEEP7aiScenePNS_8IOSystemE:._crit_edge.i.i
  %i.cd = load ptr, ptr %i.h, align 8
  %i.ce = getelementptr inbounds nuw i8, ptr %i.cd, i64 8
  %i.cf = load ptr, ptr %i.ce, align 8
  call void %i.cf(ptr noundef nonnull align 8 dereferenceable(8) %i.h) #22, !inline_history !12
  br label %bb.ak

bb.ak:                                            ; preds = %_ZNSt10unique_ptrIN6Assimp8IOStreamESt14default_deleteIS1_EED2Ev.exit57, %bb.u, %_ZNSt7__cxx1112basic_stringIcSt11char_traitsIcESaIcEED2Ev.exit50, %bb.d, %_ZNSt7__cxx1112basic_stringIcSt11char_traitsIcESaIcEED2Ev.exit40
end_hunk_3
begin_hunk_4_@_ZN6Assimp12StreamReaderILb0ELb0EEC2EPNS_8IOStreamEb:bb.a
  %i.g = load ptr, ptr %1, align 8
  %i.h = getelementptr inbounds nuw i8, ptr %i.g, i64 8
  %i.i = load ptr, ptr %i.h, align 8
  tail call void %i.i(ptr noundef nonnull align 8 dereferenceable(8) %1) #22, !inline_history !13
  br label %bb.d

bb.d:                                             ; preds = %bb.c, %bb.b
end_hunk_4
begin_hunk_5_@_ZN6Assimp12StreamReaderILb0ELb0EED2Ev:bb.a
  %i.k = load ptr, ptr %i.e, align 8
  %i.l = getelementptr inbounds nuw i8, ptr %i.k, i64 16
  %i.m = load ptr, ptr %i.l, align 8
  tail call void %i.m(ptr noundef nonnull align 8 dereferenceable(16) %i.e) #22, !inline_history !14
  %i.n = load ptr, ptr %i.e, align 8
  %i.o = getelementptr inbounds nuw i8, ptr %i.n, i64 24
  %i.p = load ptr, ptr %i.o, align 8
  tail call void %i.p(ptr noundef nonnull align 8 dereferenceable(16) %i.e) #22, !inline_history !14
  br label %_ZNSt12__shared_ptrIN6Assimp8IOStreamELN9__gnu_cxx12_Lock_policyE2EED2Ev.exit

bb.f:                                             ; preds = %bb.d
end_hunk_5
begin_hunk_6_@_ZN6Assimp4Ogre12OgreImporterD0Ev:bb.a
  %i.b = getelementptr inbounds nuw i8, ptr %0, i64 128
  %i.c = load ptr, ptr %i.b, align 8
  invoke void @_ZNSt8_Rb_treeI13aiTextureTypeSt4pairIKS0_jESt10_Select1stIS3_ESt4lessIS0_ESaIS3_EE8_M_eraseEPSt13_Rb_tree_nodeIS3_E(ptr noundef nonnull align 8 dereferenceable(48) %i.a, ptr noundef %i.c)
          to label %_ZNSt3mapI13aiTextureTypejSt4lessIS0_ESaISt4pairIKS0_jEEED2Ev.exit.i unwind label %bb.b, !inline_history !15

bb.b:                                             ; preds = %bb.a
  %i.d = landingpad { ptr, i32 }
          catch ptr null
  %i.e = extractvalue { ptr, i32 } %i.d, 0
  tail call void @__clang_call_terminate(ptr %i.e) #27, !inline_history !15
  unreachable

_ZNSt3mapI13aiTextureTypejSt4lessIS0_ESaISt4pairIKS0_jEEED2Ev.exit.i: ; preds = %bb.a
end_hunk_6
begin_hunk_7_@_ZN6Assimp4Ogre12OgreImporterD0Ev:bb.a
_ZNKSt7__cxx1112basic_stringIcSt11char_traitsIcESaIcEE11_M_is_localEv.exit.i.i.i: ; preds = %_ZNSt3mapI13aiTextureTypejSt4lessIS0_ESaISt4pairIKS0_jEEED2Ev.exit.i
  %i.j = load i64, ptr %i.h, align 8
  %i.k = add i64 %i.j, 1
  tail call void @_ZdlPvm(ptr noundef %i.g, i64 noundef %i.k) #23, !inline_history !15
  br label %_ZNSt7__cxx1112basic_stringIcSt11char_traitsIcESaIcEED2Ev.exit.i

_ZNSt7__cxx1112basic_stringIcSt11char_traitsIcESaIcEED2Ev.exit.i: ; preds = %_ZNSt3mapI13aiTextureTypejSt4lessIS0_ESaISt4pairIKS0_jEEED2Ev.exit.i, %_ZNKSt7__cxx1112basic_stringIcSt11char_traitsIcESaIcEE11_M_is_localEv.exit.i.i.i
end_hunk_7
begin_hunk_8_@_ZN6Assimp4Ogre12OgreImporterD0Ev:bb.a
  br i1 %.not.i.i.i, label %_ZNSt15__exception_ptr13exception_ptrD2Ev.exit.i.i, label %bb.c

bb.c:                                             ; preds = %_ZNSt7__cxx1112basic_stringIcSt11char_traitsIcESaIcEED2Ev.exit.i
  tail call void @_ZNSt15__exception_ptr13exception_ptr10_M_releaseEv(ptr noundef nonnull align 8 dereferenceable(8) %i.l) #22, !inline_history !15
  br label %_ZNSt15__exception_ptr13exception_ptrD2Ev.exit.i.i

_ZNSt15__exception_ptr13exception_ptrD2Ev.exit.i.i: ; preds = %bb.c, %_ZNSt7__cxx1112basic_stringIcSt11char_traitsIcESaIcEED2Ev.exit.i
end_hunk_8
begin_hunk_9_@_ZN6Assimp4Ogre12OgreImporterD0Ev:bb.a
_ZNKSt7__cxx1112basic_stringIcSt11char_traitsIcESaIcEE11_M_is_localEv.exit.i.i.i.i: ; preds = %_ZNSt15__exception_ptr13exception_ptrD2Ev.exit.i.i
  %i.r = load i64, ptr %i.p, align 8
  %i.s = add i64 %i.r, 1
  tail call void @_ZdlPvm(ptr noundef %i.o, i64 noundef %i.s) #23, !inline_history !15
  br label %_ZN6Assimp4Ogre12OgreImporterD2Ev.exit

_ZN6Assimp4Ogre12OgreImporterD2Ev.exit:           ; preds = %_ZNSt15__exception_ptr13exception_ptrD2Ev.exit.i.i, %_ZNKSt7__cxx1112basic_stringIcSt11char_traitsIcESaIcEE11_M_is_localEv.exit.i.i.i.i
end_hunk_9
begin_hunk_10_@_Z10ai_tolowerRKNSt7__cxx1112basic_stringIcSt11char_traitsIcESaIcEEE:bb.a

_Z12ai_trim_leftRNSt7__cxx1112basic_stringIcSt11char_traitsIcESaIcEEE.exit: ; preds = %bb.d, %bb.e
  call void @llvm.lifetime.start.p0(ptr nonnull %4) #22
  %i.ac = load ptr, ptr %0, align 8, !noalias !16 ; 2 uses
  %i.ad = load i64, ptr %i.l, align 8, !noalias !16
  %i.ae = getelementptr inbounds nuw i8, ptr %i.ac, i64 %i.ad
  %i.af = ptrtoint ptr %i.ae to i64
  %i.ag = ptrtoint ptr %i.ac to i64
  call void @llvm.lifetime.start.p0(ptr nonnull %2), !noalias !19
  call void @llvm.lifetime.start.p0(ptr nonnull %3), !noalias !19
  store i64 %i.af, ptr %2, align 8, !noalias !22
  store i64 %i.ag, ptr %3, align 8, !noalias !22
  invoke void @_ZSt9__find_ifISt16reverse_iteratorIN9__gnu_cxx17__normal_iteratorIPcNSt7__cxx1112basic_stringIcSt11char_traitsIcESaIcEEEEEENS1_5__ops10_Iter_predIZ13ai_trim_rightRS9_EUlhE_EEET_SH_SH_T0_St26random_access_iterator_tag(ptr dead_on_unwind nonnull writable sret(%"class.std::reverse_iterator") align 8 %4, ptr noundef nonnull dead_on_return %2, ptr noundef nonnull dead_on_return %3)
          to label %bb.f unwind label %bb.g

bb.f:                                             ; preds = %_Z12ai_trim_leftRNSt7__cxx1112basic_stringIcSt11char_traitsIcESaIcEEE.exit
  call void @llvm.lifetime.end.p0(ptr nonnull %2), !noalias !19
  call void @llvm.lifetime.end.p0(ptr nonnull %3), !noalias !19
  %.sroa.0.0.copyload.i.i = load ptr, ptr %4, align 8
  %i.ah = load ptr, ptr %0, align 8               ; 2 uses
  %i.ai = ptrtoint ptr %.sroa.0.0.copyload.i.i to i64
end_hunk_10
begin_hunk_11_@_Z10ai_tolowerRKNSt7__cxx1112basic_stringIcSt11char_traitsIcESaIcEEE:bb.a
  store <16 x i8> %i.ay, ptr %i.aq, align 1
  %index.next = add nuw i64 %index, 32            ; 2 uses
  %i.az = icmp eq i64 %index.next, %n.vec
  br i1 %i.az, label %middle.block, label %vector.body, !llvm.loop !25

middle.block:                                     ; preds = %vector.body
  %cmp.n = icmp eq i64 %i.an, %n.vec
end_hunk_11
begin_hunk_12_@_Z10ai_tolowerRKNSt7__cxx1112basic_stringIcSt11char_traitsIcESaIcEEE:bb.a

vec.epilog.iter.check:                            ; preds = %middle.block
  %min.epilog.iters.check = icmp eq i64 %n.mod.vf, 0
  br i1 %min.epilog.iters.check, label %.lr.ph.i.preheader, label %vec.epilog.ph, !prof !28

vec.epilog.ph:                                    ; preds = %vector.main.loop.iter.check, %vec.epilog.iter.check
  %vec.epilog.resume.val = phi i64 [ %n.vec, %vec.epilog.iter.check ], [ 0, %vector.main.loop.iter.check ]
end_hunk_12
begin_hunk_13_@_Z10ai_tolowerRKNSt7__cxx1112basic_stringIcSt11char_traitsIcESaIcEEE:bb.a
  store <8 x i8> %i.be, ptr %next.gep15, align 1
  %index.next17 = add nuw i64 %index14, 8         ; 2 uses
  %i.bf = icmp eq i64 %index.next17, %n.vec13
  br i1 %i.bf, label %vec.epilog.middle.block, label %vec.epilog.vector.body, !llvm.loop !29

vec.epilog.middle.block:                          ; preds = %vec.epilog.vector.body
  %cmp.n18 = icmp eq i64 %i.an, %n.vec13
end_hunk_13
begin_hunk_14_@_Z10ai_tolowerRKNSt7__cxx1112basic_stringIcSt11char_traitsIcESaIcEEE:bb.a
  store i8 %i.bj, ptr %.sroa.0.08.i, align 1
  %i.bk = getelementptr i8, ptr %.sroa.0.08.i, i64 1 ; 2 uses
  %.not.i = icmp eq ptr %i.bk, %i.ao
  br i1 %.not.i, label %_ZSt9transformIN9__gnu_cxx17__normal_iteratorIPcNSt7__cxx1112basic_stringIcSt11char_traitsIcESaIcEEEEES9_Z10ai_tolowerRKS8_EUlhE_ET0_T_SE_SD_T1_.exit, label %.lr.ph.i, !llvm.loop !30

bb.g:                                             ; preds = %_Z12ai_trim_leftRNSt7__cxx1112basic_stringIcSt11char_traitsIcESaIcEEE.exit, %bb.e, %_ZNSt7__cxx1112basic_stringIcSt11char_traitsIcESaIcEEC2ERKS4_.exit
  %i.bl = landingpad { ptr, i32 }
end_hunk_14
begin_hunk_15_@_ZSt9__find_ifIN9__gnu_cxx17__normal_iteratorIPcNSt7__cxx1112basic_stringIcSt11char_traitsIcESaIcEEEEENS0_5__ops10_Iter_predIZ12ai_trim_leftRS8_EUlhE_EEET_SF_SF_T0_St26random_access_iterator_tag:bb.a
  %i.v = getelementptr inbounds nuw i8, ptr %.sroa.031.050, i64 4
  %i.w = add nsw i64 %.051, -1
  %i.x = icmp sgt i64 %.051, 1
  br i1 %i.x, label %.lr.ph, label %._crit_edge.loopexit, !llvm.loop !31

._crit_edge.loopexit:                             ; preds = %bb.e
  %.pre = ptrtoint ptr %scevgep to i64
end_hunk_15
begin_hunk_16_@_ZSt9__find_ifISt16reverse_iteratorIN9__gnu_cxx17__normal_iteratorIPcNSt7__cxx1112basic_stringIcSt11char_traitsIcESaIcEEEEEENS1_5__ops10_Iter_predIZ13ai_trim_rightRS9_EUlhE_EEET_SH_SH_T0_St26random_access_iterator_tag:bb.a
  %i.af = add nsw i64 %.030, -1
  %i.ag = icmp sgt i64 %.030, 1
  %i.ah = ptrtoint ptr %i.ae to i64               ; 2 uses
  br i1 %i.ag, label %.lr.ph, label %._crit_edge.loopexit, !llvm.loop !32

._crit_edge.loopexit:                             ; preds = %bb.h
  %.sroa.0.0.copyload.i2.i6.pre = load ptr, ptr %2, align 8
end_hunk_16
begin_hunk_17_@_ZNSt8_Rb_treeI13aiTextureTypeSt4pairIKS0_jESt10_Select1stIS3_ESt4lessIS0_ESaIS3_EE8_M_eraseEPSt13_Rb_tree_nodeIS3_E:bb.a
  %i.d = load ptr, ptr %i.c, align 8              ; 2 uses
  tail call void @_ZdlPvm(ptr noundef nonnull %.07, i64 noundef 40) #23
  %.not = icmp eq ptr %i.d, null
  br i1 %.not, label %._crit_edge, label %.lr.ph, !llvm.loop !33

._crit_edge:                                      ; preds = %.lr.ph, %bb.a
  ret void
end_hunk_17
begin_hunk_18_@_ZN6Assimp9Formatter15basic_formatterIcSt11char_traitsIcESaIcEEC2EOS5_:bb.a
  %2 = alloca %"class.std::__cxx11::basic_string", align 8 ; 12 uses
  tail call void @_ZNSt7__cxx1119basic_ostringstreamIcSt11char_traitsIcESaIcEEC1Ev(ptr noundef nonnull align 8 dereferenceable(112) %0)
  call void @llvm.lifetime.start.p0(ptr nonnull %2) #22
  tail call void @llvm.experimental.noalias.scope.decl(metadata !34)
  tail call void @llvm.experimental.noalias.scope.decl(metadata !37)
  tail call void @llvm.experimental.noalias.scope.decl(metadata !40)
  %i.a = getelementptr inbounds nuw i8, ptr %2, i64 16 ; 7 uses
  store ptr %i.a, ptr %2, align 8, !alias.scope !43
  %i.b = getelementptr inbounds nuw i8, ptr %2, i64 8 ; 2 uses
  store i64 0, ptr %i.b, align 8, !alias.scope !43
  store i8 0, ptr %i.a, align 8, !alias.scope !43
  %i.c = getelementptr inbounds nuw i8, ptr %1, i64 48
  %i.d = load ptr, ptr %i.c, align 8, !noalias !43 ; 3 uses
  %.not.i.not.i.i.i = icmp eq ptr %i.d, null
  %i.e = getelementptr inbounds nuw i8, ptr %1, i64 32
  %i.f = load ptr, ptr %i.e, align 8, !noalias !43 ; 2 uses
  %i.g = icmp ugt ptr %i.d, %i.f
  %.08.i.i.i.i = select i1 %i.g, ptr %i.d, ptr %i.f ; 2 uses
  %.not5.i.i.i = icmp eq ptr %.08.i.i.i.i, null
end_hunk_18
begin_hunk_19_@_ZN6Assimp9Formatter15basic_formatterIcSt11char_traitsIcESaIcEEC2EOS5_:bb.a

bb.b:                                             ; preds = %bb.a
  %i.h = getelementptr inbounds nuw i8, ptr %1, i64 40
  %i.i = load ptr, ptr %i.h, align 8, !noalias !43 ; 2 uses
  %i.j = ptrtoint ptr %.08.i.i.i.i to i64
  %i.k = ptrtoint ptr %i.i to i64
  %i.l = sub i64 %i.j, %i.k
end_hunk_19
begin_hunk_20_@_ZN6Assimp9Formatter15basic_formatterIcSt11char_traitsIcESaIcEEC2EOS5_:bb.a
bb.c:                                             ; preds = %bb.d, %bb.b
  %i.n = landingpad { ptr, i32 }
          cleanup                                 ; 2 uses
  %i.o = load ptr, ptr %2, align 8, !alias.scope !43 ; 2 uses
  %i.p = icmp eq ptr %i.o, %i.a
  br i1 %i.p, label %.body, label %.body.sink.split

end_hunk_20
begin_hunk_21_@_ZNSt12__shared_ptrIN6Assimp8IOStreamELN9__gnu_cxx12_Lock_policyE2EED2Ev:bb.a
  %i.h = load ptr, ptr %i.b, align 8
  %i.i = getelementptr inbounds nuw i8, ptr %i.h, i64 16
  %i.j = load ptr, ptr %i.i, align 8
  tail call void %i.j(ptr noundef nonnull align 8 dereferenceable(16) %i.b) #22, !inline_history !44
  %i.k = load ptr, ptr %i.b, align 8
  %i.l = getelementptr inbounds nuw i8, ptr %i.k, i64 24
  %i.m = load ptr, ptr %i.l, align 8
  tail call void %i.m(ptr noundef nonnull align 8 dereferenceable(16) %i.b) #22, !inline_history !44
  br label %_ZNSt14__shared_countILN9__gnu_cxx12_Lock_policyE2EED2Ev.exit

bb.d:                                             ; preds = %bb.b
end_hunk_21
begin_hunk_22_@_ZNSt16_Sp_counted_baseILN9__gnu_cxx12_Lock_policyE2EE24_M_release_last_use_coldEv:bb.a
  %i.a = load ptr, ptr %0, align 8
  %i.b = getelementptr inbounds nuw i8, ptr %i.a, i64 16
  %i.c = load ptr, ptr %i.b, align 8
  tail call void %i.c(ptr noundef nonnull align 8 dereferenceable(16) %0) #22, !inline_history !45
  %i.d = getelementptr inbounds nuw i8, ptr %0, i64 12 ; 3 uses
  %i.e = load i8, ptr @__libc_single_threaded, align 1
  %.not.i = icmp eq i8 %i.e, 0
end_hunk_22
begin_hunk_23_@_ZNSt16_Sp_counted_baseILN9__gnu_cxx12_Lock_policyE2EE24_M_release_last_use_coldEv:bb.a
  %i.j = load ptr, ptr %0, align 8
  %i.k = getelementptr inbounds nuw i8, ptr %i.j, i64 24
  %i.l = load ptr, ptr %i.k, align 8
  tail call void %i.l(ptr noundef nonnull align 8 dereferenceable(16) %0) #22, !inline_history !45
  br label %_ZNSt16_Sp_counted_baseILN9__gnu_cxx12_Lock_policyE2EE19_M_release_last_useEv.exit

_ZNSt16_Sp_counted_baseILN9__gnu_cxx12_Lock_policyE2EE19_M_release_last_useEv.exit: ; preds = %_ZN9__gnu_cxx27__exchange_and_add_dispatchEPii.exit.i, %bb.d
end_hunk_23
begin_hunk_24_@_ZN6Assimp6Logger13formatMessageIJERlEENSt7__cxx1112basic_stringIcSt11char_traitsIcESaIcEEENS_9Formatter15basic_formatterIcS6_S7_EEOT0_DpOT_:bb.a
  %i.a = load i64, ptr %3, align 8
  %i.b = tail call noundef nonnull align 8 dereferenceable(8) ptr @_ZNSo9_M_insertIlEERSoT_(ptr noundef nonnull align 8 dereferenceable(376) %2, i64 noundef %i.a) ; 0 uses
  call void @_ZN6Assimp9Formatter15basic_formatterIcSt11char_traitsIcESaIcEEC2EOS5_(ptr noundef nonnull align 8 dereferenceable(376) %4, ptr noundef nonnull align 8 dereferenceable(376) %2)
  call void @llvm.experimental.noalias.scope.decl(metadata !46)
  call void @llvm.experimental.noalias.scope.decl(metadata !49)
  call void @llvm.experimental.noalias.scope.decl(metadata !52)
  call void @llvm.experimental.noalias.scope.decl(metadata !55)
  %i.c = getelementptr inbounds nuw i8, ptr %0, i64 16 ; 4 uses
  store ptr %i.c, ptr %0, align 8, !alias.scope !58
  %i.d = getelementptr inbounds nuw i8, ptr %0, i64 8
  store i64 0, ptr %i.d, align 8, !alias.scope !58
  store i8 0, ptr %i.c, align 8, !alias.scope !58
  %i.e = getelementptr inbounds nuw i8, ptr %4, i64 48
  %i.f = load ptr, ptr %i.e, align 8, !noalias !58 ; 3 uses
  %.not.i.not.i.i.i.i = icmp eq ptr %i.f, null
  %i.g = getelementptr inbounds nuw i8, ptr %4, i64 32
  %i.h = load ptr, ptr %i.g, align 8, !noalias !58 ; 2 uses
  %i.i = icmp ugt ptr %i.f, %i.h
  %.08.i.i.i.i.i = select i1 %i.i, ptr %i.f, ptr %i.h ; 2 uses
  %.not5.i.i.i.i = icmp eq ptr %.08.i.i.i.i.i, null
end_hunk_24
begin_hunk_25_@_ZN6Assimp6Logger13formatMessageIJERlEENSt7__cxx1112basic_stringIcSt11char_traitsIcESaIcEEENS_9Formatter15basic_formatterIcS6_S7_EEOT0_DpOT_:bb.a

bb.b:                                             ; preds = %bb.a
  %i.j = getelementptr inbounds nuw i8, ptr %4, i64 40
  %i.k = load ptr, ptr %i.j, align 8, !noalias !58 ; 2 uses
  %i.l = ptrtoint ptr %.08.i.i.i.i.i to i64
  %i.m = ptrtoint ptr %i.k to i64
  %i.n = sub i64 %i.l, %i.m
end_hunk_25
begin_hunk_26_@_ZN6Assimp6Logger13formatMessageIJERlEENSt7__cxx1112basic_stringIcSt11char_traitsIcESaIcEEENS_9Formatter15basic_formatterIcS6_S7_EEOT0_DpOT_:bb.a
bb.c:                                             ; preds = %bb.d, %bb.b
  %i.p = landingpad { ptr, i32 }
          cleanup
  %i.q = load ptr, ptr %0, align 8, !alias.scope !58 ; 2 uses
  %i.r = icmp eq ptr %i.q, %i.c
  br i1 %i.r, label %.body, label %_ZNKSt7__cxx1112basic_stringIcSt11char_traitsIcESaIcEE11_M_is_localEv.exit.i.i.i.i.i.i

_ZNKSt7__cxx1112basic_stringIcSt11char_traitsIcESaIcEE11_M_is_localEv.exit.i.i.i.i.i.i: ; preds = %bb.c
  %i.s = load i64, ptr %i.c, align 8, !alias.scope !58
  %i.t = add i64 %i.s, 1
  call void @_ZdlPvm(ptr noundef %i.q, i64 noundef %i.t) #23
  br label %.body
end_hunk_26
begin_hunk_27_@llvm.umax.i64
!7 = distinct !{!7, !"_ZNKSt7__cxx1112basic_stringIcSt11char_traitsIcESaIcEE6substrEmm"}
!8 = distinct !{!8, !9}
!9 = !{!"llvm.loop.mustprogress"}
!10 = distinct !{null}
!11 = distinct !{ptr @_ZN6Assimp12StreamReaderILb0ELb0EED2Ev, ptr @_ZNSt12__shared_ptrIN6Assimp8IOStreamELN9__gnu_cxx12_Lock_policyE2EED2Ev, null, null}
!12 = distinct !{null, null}
!13 = distinct !{null, null, null, null}
!14 = distinct !{ptr @_ZNSt12__shared_ptrIN6Assimp8IOStreamELN9__gnu_cxx12_Lock_policyE2EED2Ev, null, null}
!15 = !{ptr @_ZN6Assimp4Ogre12OgreImporterD2Ev}
!16 = !{!17}
!17 = distinct !{!17, !18, !"_ZNSt7__cxx1112basic_stringIcSt11char_traitsIcESaIcEE6rbeginEv: argument 0"}
!18 = distinct !{!18, !"_ZNSt7__cxx1112basic_stringIcSt11char_traitsIcESaIcEE6rbeginEv"}
!19 = !{!20}
!20 = distinct !{!20, !21, !"_ZSt7find_ifISt16reverse_iteratorIN9__gnu_cxx17__normal_iteratorIPcNSt7__cxx1112basic_stringIcSt11char_traitsIcESaIcEEEEEEZ13ai_trim_rightRS9_EUlhE_ET_SE_SE_T0_: argument 0"}
!21 = distinct !{!21, !"_ZSt7find_ifISt16reverse_iteratorIN9__gnu_cxx17__normal_iteratorIPcNSt7__cxx1112basic_stringIcSt11char_traitsIcESaIcEEEEEEZ13ai_trim_rightRS9_EUlhE_ET_SE_SE_T0_"}
!22 = !{!23, !20}
!23 = distinct !{!23, !24, !"_ZSt9__find_ifISt16reverse_iteratorIN9__gnu_cxx17__normal_iteratorIPcNSt7__cxx1112basic_stringIcSt11char_traitsIcESaIcEEEEEENS1_5__ops10_Iter_predIZ13ai_trim_rightRS9_EUlhE_EEET_SH_SH_T0_: argument 0"}
!24 = distinct !{!24, !"_ZSt9__find_ifISt16reverse_iteratorIN9__gnu_cxx17__normal_iteratorIPcNSt7__cxx1112basic_stringIcSt11char_traitsIcESaIcEEEEEENS1_5__ops10_Iter_predIZ13ai_trim_rightRS9_EUlhE_EEET_SH_SH_T0_"}
!25 = distinct !{!25, !9, !26, !27}
!26 = !{!"llvm.loop.isvectorized", i32 1}
!27 = !{!"llvm.loop.unroll.runtime.disable"}
!28 = !{!"branch_weights", i32 8, i32 24}
!29 = distinct !{!29, !9, !26, !27}
!30 = distinct !{!30, !9, !27, !26}
!31 = distinct !{!31, !9}
!32 = distinct !{!32, !9}
!33 = distinct !{!33, !9}
!34 = !{!35}
!35 = distinct !{!35, !36, !"_ZNK6Assimp9Formatter15basic_formatterIcSt11char_traitsIcESaIcEEcvNSt7__cxx1112basic_stringIcS3_S4_EEEv: argument 0"}
!36 = distinct !{!36, !"_ZNK6Assimp9Formatter15basic_formatterIcSt11char_traitsIcESaIcEEcvNSt7__cxx1112basic_stringIcS3_S4_EEEv"}
!37 = !{!38}
!38 = distinct !{!38, !39, !"_ZNKSt7__cxx1119basic_ostringstreamIcSt11char_traitsIcESaIcEE3strEv: argument 0"}
!39 = distinct !{!39, !"_ZNKSt7__cxx1119basic_ostringstreamIcSt11char_traitsIcESaIcEE3strEv"}
!40 = !{!41}
!41 = distinct !{!41, !42, !"_ZNKSt7__cxx1115basic_stringbufIcSt11char_traitsIcESaIcEE3strEv: argument 0"}
!42 = distinct !{!42, !"_ZNKSt7__cxx1115basic_stringbufIcSt11char_traitsIcESaIcEE3strEv"}
!43 = !{!41, !38, !35}
!44 = distinct !{null, null}
!45 = distinct !{null}
!46 = !{!47}
!47 = distinct !{!47, !48, !"_ZN6Assimp6Logger13formatMessageB5cxx11ENS_9Formatter15basic_formatterIcSt11char_traitsIcESaIcEEE: argument 0"}
!48 = distinct !{!48, !"_ZN6Assimp6Logger13formatMessageB5cxx11ENS_9Formatter15basic_formatterIcSt11char_traitsIcESaIcEEE"}
!49 = !{!50}
!50 = distinct !{!50, !51, !"_ZNK6Assimp9Formatter15basic_formatterIcSt11char_traitsIcESaIcEEcvNSt7__cxx1112basic_stringIcS3_S4_EEEv: argument 0"}
!51 = distinct !{!51, !"_ZNK6Assimp9Formatter15basic_formatterIcSt11char_traitsIcESaIcEEcvNSt7__cxx1112basic_stringIcS3_S4_EEEv"}
!52 = !{!53}
!53 = distinct !{!53, !54, !"_ZNKSt7__cxx1119basic_ostringstreamIcSt11char_traitsIcESaIcEE3strEv: argument 0"}
!54 = distinct !{!54, !"_ZNKSt7__cxx1119basic_ostringstreamIcSt11char_traitsIcESaIcEE3strEv"}
!55 = !{!56}
!56 = distinct !{!56, !57, !"_ZNKSt7__cxx1115basic_stringbufIcSt11char_traitsIcESaIcEE3strEv: argument 0"}
!57 = distinct !{!57, !"_ZNKSt7__cxx1115basic_stringbufIcSt11char_traitsIcESaIcEE3strEv"}
!58 = !{!56, !53, !50, !47}
end_hunk_27
