begin_hunk_0
@.str.9 = private unnamed_addr constant [3 x i8] c" <\00", align 1
@.str.10 = private unnamed_addr constant [5 x i8] c">...\00", align 1
@.str.11 = private unnamed_addr constant [3 x i8] c"=<\00", align 1
@.str.20 = private unnamed_addr constant [2 x i8] c"'\00", align 1
@.str.21 = private unnamed_addr constant [52 x i8] c"' is invalid value for boolean argument! Try 0 or 1\00", align 1
@.str.22 = private unnamed_addr constant [38 x i8] c"' value invalid for integer argument!\00", align 1
end_hunk_0
begin_hunk_1
  ]

_ZNK4llvh9StringRef6equalsES0_.exit21:            ; preds = %bb.a
  %11 = load i32, ptr %4, align 1
  %12 = icmp ne i32 %11, 1702195828
  %13 = zext i1 %12 to i32
  %i.b = icmp eq i32 %13, 0
  br i1 %i.b, label %_ZNK4llvh9StringRef6equalsES0_.exit.thread79, label %_ZNK4llvh9StringRef6equalsES0_.exit22

_ZNK4llvh9StringRef6equalsES0_.exit22:            ; preds = %_ZNK4llvh9StringRef6equalsES0_.exit21
  %14 = load i32, ptr %4, align 1
  %15 = icmp ne i32 %14, 1163219540
  %16 = zext i1 %15 to i32
  %i.c = icmp eq i32 %16, 0
  br i1 %i.c, label %_ZNK4llvh9StringRef6equalsES0_.exit.thread79, label %_ZNK4llvh9StringRef6equalsES0_.exit23

_ZNK4llvh9StringRef6equalsES0_.exit23:            ; preds = %_ZNK4llvh9StringRef6equalsES0_.exit22
  %17 = load i32, ptr %4, align 1
  %18 = icmp ne i32 %17, 1702195796
  %19 = zext i1 %18 to i32
  %i.d = icmp eq i32 %19, 0
  br i1 %i.d, label %_ZNK4llvh9StringRef6equalsES0_.exit.thread79, label %_ZNK4llvh9StringRef6equalsES0_.exit28.thread

_ZNK4llvh9StringRef6equalsES0_.exit24:            ; preds = %bb.a
end_hunk_1
begin_hunk_2
  br label %bb.b

_ZNK4llvh9StringRef6equalsES0_.exit25:            ; preds = %bb.a
  %20 = load i32, ptr %4, align 1
  %21 = xor i32 %20, 1936482662
  %22 = getelementptr i8, ptr %4, i64 4
  %23 = load i8, ptr %22, align 1
  %24 = zext i8 %23 to i32
  %25 = xor i32 %24, 101
  %26 = or i32 %21, %25
  %27 = icmp ne i32 %26, 0
  %28 = zext i1 %27 to i32
  %i.f = icmp eq i32 %28, 0
  br i1 %i.f, label %_ZNK4llvh9StringRef6equalsES0_.exit25.thread89, label %_ZNK4llvh9StringRef6equalsES0_.exit26

_ZNK4llvh9StringRef6equalsES0_.exit26:            ; preds = %_ZNK4llvh9StringRef6equalsES0_.exit25
  %29 = load i32, ptr %4, align 1
  %30 = xor i32 %29, 1397506374
  %31 = getelementptr i8, ptr %4, i64 4
  %32 = load i8, ptr %31, align 1
  %33 = zext i8 %32 to i32
  %34 = xor i32 %33, 69
  %35 = or i32 %30, %34
  %36 = icmp ne i32 %35, 0
  %37 = zext i1 %36 to i32
  %i.g = icmp eq i32 %37, 0
  br i1 %i.g, label %_ZNK4llvh9StringRef6equalsES0_.exit25.thread89, label %_ZNK4llvh9StringRef6equalsES0_.exit27

_ZNK4llvh9StringRef6equalsES0_.exit27:            ; preds = %_ZNK4llvh9StringRef6equalsES0_.exit26
  %38 = load i32, ptr %4, align 1
  %39 = xor i32 %38, 1936482630
  %40 = getelementptr i8, ptr %4, i64 4
  %41 = load i8, ptr %40, align 1
  %42 = zext i8 %41 to i32
  %43 = xor i32 %42, 101
  %44 = or i32 %39, %43
  %45 = icmp ne i32 %44, 0
  %46 = zext i1 %45 to i32
  %i.h = icmp eq i32 %46, 0
  br i1 %i.h, label %_ZNK4llvh9StringRef6equalsES0_.exit25.thread89, label %_ZNK4llvh9StringRef6equalsES0_.exit28.thread

_ZNK4llvh9StringRef6equalsES0_.exit28:            ; preds = %_ZNK4llvh9StringRef6equalsES0_.exit24
end_hunk_2
begin_hunk_3
  ]

_ZNK4llvh9StringRef6equalsES0_.exit21:            ; preds = %bb.a
  %11 = load i32, ptr %4, align 1
  %12 = icmp ne i32 %11, 1702195828
  %13 = zext i1 %12 to i32
  %i.b = icmp eq i32 %13, 0
  br i1 %i.b, label %_ZNK4llvh9StringRef6equalsES0_.exit.thread79, label %_ZNK4llvh9StringRef6equalsES0_.exit22

_ZNK4llvh9StringRef6equalsES0_.exit22:            ; preds = %_ZNK4llvh9StringRef6equalsES0_.exit21
  %14 = load i32, ptr %4, align 1
  %15 = icmp ne i32 %14, 1163219540
  %16 = zext i1 %15 to i32
  %i.c = icmp eq i32 %16, 0
  br i1 %i.c, label %_ZNK4llvh9StringRef6equalsES0_.exit.thread79, label %_ZNK4llvh9StringRef6equalsES0_.exit23

_ZNK4llvh9StringRef6equalsES0_.exit23:            ; preds = %_ZNK4llvh9StringRef6equalsES0_.exit22
  %17 = load i32, ptr %4, align 1
  %18 = icmp ne i32 %17, 1702195796
  %19 = zext i1 %18 to i32
  %i.d = icmp eq i32 %19, 0
  br i1 %i.d, label %_ZNK4llvh9StringRef6equalsES0_.exit.thread79, label %_ZNK4llvh9StringRef6equalsES0_.exit28.thread

_ZNK4llvh9StringRef6equalsES0_.exit24:            ; preds = %bb.a
end_hunk_3
begin_hunk_4
  br label %bb.b

_ZNK4llvh9StringRef6equalsES0_.exit25:            ; preds = %bb.a
  %20 = load i32, ptr %4, align 1
  %21 = xor i32 %20, 1936482662
  %22 = getelementptr i8, ptr %4, i64 4
  %23 = load i8, ptr %22, align 1
  %24 = zext i8 %23 to i32
  %25 = xor i32 %24, 101
  %26 = or i32 %21, %25
  %27 = icmp ne i32 %26, 0
  %28 = zext i1 %27 to i32
  %i.f = icmp eq i32 %28, 0
  br i1 %i.f, label %_ZNK4llvh9StringRef6equalsES0_.exit25.thread89, label %_ZNK4llvh9StringRef6equalsES0_.exit26

_ZNK4llvh9StringRef6equalsES0_.exit26:            ; preds = %_ZNK4llvh9StringRef6equalsES0_.exit25
  %29 = load i32, ptr %4, align 1
  %30 = xor i32 %29, 1397506374
  %31 = getelementptr i8, ptr %4, i64 4
  %32 = load i8, ptr %31, align 1
  %33 = zext i8 %32 to i32
  %34 = xor i32 %33, 69
  %35 = or i32 %30, %34
  %36 = icmp ne i32 %35, 0
  %37 = zext i1 %36 to i32
  %i.g = icmp eq i32 %37, 0
  br i1 %i.g, label %_ZNK4llvh9StringRef6equalsES0_.exit25.thread89, label %_ZNK4llvh9StringRef6equalsES0_.exit27

_ZNK4llvh9StringRef6equalsES0_.exit27:            ; preds = %_ZNK4llvh9StringRef6equalsES0_.exit26
  %38 = load i32, ptr %4, align 1
  %39 = xor i32 %38, 1936482630
  %40 = getelementptr i8, ptr %4, i64 4
  %41 = load i8, ptr %40, align 1
  %42 = zext i8 %41 to i32
  %43 = xor i32 %42, 101
  %44 = or i32 %39, %43
  %45 = icmp ne i32 %44, 0
  %46 = zext i1 %45 to i32
  %i.h = icmp eq i32 %46, 0
  br i1 %i.h, label %_ZNK4llvh9StringRef6equalsES0_.exit25.thread89, label %_ZNK4llvh9StringRef6equalsES0_.exit28.thread

_ZNK4llvh9StringRef6equalsES0_.exit28:            ; preds = %_ZNK4llvh9StringRef6equalsES0_.exit24
end_hunk_4
