begin_hunk_0_@_RNvXNvNtCsjJ0p09o2jmV_10proc_macro6bridges3_1__INtNtCsbvkFyIu7lgC_4core6option6OptionReEINtNtB4_3rpc6EncodeuE6encodeCs4ZaLwAtrTbk_16deltalake_derive:bb.a
  store ptr @_RNvNvXs6_NtNtCsjJ0p09o2jmV_10proc_macro6bridge6bufferNtB7_6BufferINtNtCsbvkFyIu7lgC_4core7convert4FromINtNtCs6Po7BT7Nknu_5alloc3vec3VechEE4from4drop, ptr %.sroa.5.0..sroa_idx.i, align 8
  %i.j = getelementptr inbounds nuw i8, ptr %i.d, i64 24
  %i.k = load ptr, ptr %i.j, align 8
  call void %i.k(ptr nonnull sret([40 x i8]) align 8 %i.c, ptr nonnull byval([40 x i8]) align 8 %i.d, i64 1) #20
  invoke void @_RINvNtCsbvkFyIu7lgC_4core3ptr13drop_in_placeNtNtNtCsjJ0p09o2jmV_10proc_macro6bridge6buffer6BufferECs4ZaLwAtrTbk_16deltalake_derive(ptr nonnull align 8 %2)
          to label %bb.e unwind label %bb.d

end_hunk_0
begin_hunk_1_@_RNvXNvNtCsjJ0p09o2jmV_10proc_macro6bridges3_1__INtNtCsbvkFyIu7lgC_4core6option6OptionReEINtNtB4_3rpc6EncodeuE6encodeCs4ZaLwAtrTbk_16deltalake_derive:bb.a
  store ptr @_RNvNvXs6_NtNtCsjJ0p09o2jmV_10proc_macro6bridge6bufferNtB7_6BufferINtNtCsbvkFyIu7lgC_4core7convert4FromINtNtCs6Po7BT7Nknu_5alloc3vec3VechEE4from4drop, ptr %.sroa.5.0..sroa_idx.i6, align 8
  %i.u = getelementptr inbounds nuw i8, ptr %i.b, i64 24
  %i.v = load ptr, ptr %i.u, align 8
  call void %i.v(ptr nonnull sret([40 x i8]) align 8 %i.a, ptr nonnull byval([40 x i8]) align 8 %i.b, i64 1) #20
  invoke void @_RINvNtCsbvkFyIu7lgC_4core3ptr13drop_in_placeNtNtNtCsjJ0p09o2jmV_10proc_macro6bridge6buffer6BufferECs4ZaLwAtrTbk_16deltalake_derive(ptr nonnull align 8 %2)
          to label %bb.i unwind label %bb.h

end_hunk_1
begin_hunk_2_@_RNvXNvNtCsjJ0p09o2jmV_10proc_macro6bridges4_1__INtNtCsbvkFyIu7lgC_4core6result6ResultINtNtBO_6option6OptionNtNtB4_6client11TokenStreamEuEINtNtB4_3rpc6EncodeuE6encodeCs4ZaLwAtrTbk_16deltalake_derive:bb.a
  store ptr @_RNvNvXs6_NtNtCsjJ0p09o2jmV_10proc_macro6bridge6bufferNtB7_6BufferINtNtCsbvkFyIu7lgC_4core7convert4FromINtNtCs6Po7BT7Nknu_5alloc3vec3VechEE4from4drop, ptr %.sroa.5.0..sroa_idx.i, align 8
  %i.q = getelementptr inbounds nuw i8, ptr %i.i, i64 24
  %i.r = load ptr, ptr %i.q, align 8
  call void %i.r(ptr nonnull sret([40 x i8]) align 8 %i.h, ptr nonnull byval([40 x i8]) align 8 %i.i, i64 1) #20
  invoke void @_RINvNtCsbvkFyIu7lgC_4core3ptr13drop_in_placeNtNtNtCsjJ0p09o2jmV_10proc_macro6bridge6buffer6BufferECs4ZaLwAtrTbk_16deltalake_derive(ptr nonnull align 8 %2)
          to label %bb.e unwind label %bb.d

end_hunk_2
begin_hunk_3_@_RNvXNvNtCsjJ0p09o2jmV_10proc_macro6bridges4_1__INtNtCsbvkFyIu7lgC_4core6result6ResultINtNtBO_6option6OptionNtNtB4_6client11TokenStreamEuEINtNtB4_3rpc6EncodeuE6encodeCs4ZaLwAtrTbk_16deltalake_derive:bb.a
  store ptr @_RNvNvXs6_NtNtCsjJ0p09o2jmV_10proc_macro6bridge6bufferNtB7_6BufferINtNtCsbvkFyIu7lgC_4core7convert4FromINtNtCs6Po7BT7Nknu_5alloc3vec3VechEE4from4drop, ptr %.sroa.5.0..sroa_idx.i7, align 8
  %i.ad = getelementptr inbounds nuw i8, ptr %i.g, i64 24
  %i.ae = load ptr, ptr %i.ad, align 8
  call void %i.ae(ptr nonnull sret([40 x i8]) align 8 %i.f, ptr nonnull byval([40 x i8]) align 8 %i.g, i64 1) #20
  invoke void @_RINvNtCsbvkFyIu7lgC_4core3ptr13drop_in_placeNtNtNtCsjJ0p09o2jmV_10proc_macro6bridge6buffer6BufferECs4ZaLwAtrTbk_16deltalake_derive(ptr nonnull align 8 %2)
          to label %bb.h unwind label %bb.u

end_hunk_3
begin_hunk_4_@_RNvXNvNtCsjJ0p09o2jmV_10proc_macro6bridges4_1__INtNtCsbvkFyIu7lgC_4core6result6ResultINtNtBO_6option6OptionNtNtB4_6client11TokenStreamEuEINtNtB4_3rpc6EncodeuE6encodeCs4ZaLwAtrTbk_16deltalake_derive:bb.a
  store ptr @_RNvNvXs6_NtNtCsjJ0p09o2jmV_10proc_macro6bridge6bufferNtB7_6BufferINtNtCsbvkFyIu7lgC_4core7convert4FromINtNtCs6Po7BT7Nknu_5alloc3vec3VechEE4from4drop, ptr %.sroa.5.0..sroa_idx.i.i, align 8
  %i.am = getelementptr inbounds nuw i8, ptr %i.d, i64 24
  %i.an = load ptr, ptr %i.am, align 8
  call void %i.an(ptr nonnull sret([40 x i8]) align 8 %i.c, ptr nonnull byval([40 x i8]) align 8 %i.d, i64 1) #20
  invoke void @_RINvNtCsbvkFyIu7lgC_4core3ptr13drop_in_placeNtNtNtCsjJ0p09o2jmV_10proc_macro6bridge6buffer6BufferECs4ZaLwAtrTbk_16deltalake_derive(ptr nonnull align 8 %2)
          to label %bb.l unwind label %bb.r

end_hunk_4
begin_hunk_5_@_RNvXNvNtCsjJ0p09o2jmV_10proc_macro6bridges4_1__INtNtCsbvkFyIu7lgC_4core6result6ResultINtNtBO_6option6OptionNtNtB4_6client11TokenStreamEuEINtNtB4_3rpc6EncodeuE6encodeCs4ZaLwAtrTbk_16deltalake_derive:bb.a
  store ptr @_RNvNvXs6_NtNtCsjJ0p09o2jmV_10proc_macro6bridge6bufferNtB7_6BufferINtNtCsbvkFyIu7lgC_4core7convert4FromINtNtCs6Po7BT7Nknu_5alloc3vec3VechEE4from4drop, ptr %.sroa.5.0..sroa_idx.i5.i, align 8
  %i.aq = getelementptr inbounds nuw i8, ptr %i.b, i64 24
  %i.ar = load ptr, ptr %i.aq, align 8
  call void %i.ar(ptr nonnull sret([40 x i8]) align 8 %i.a, ptr nonnull byval([40 x i8]) align 8 %i.b, i64 1) #20
  invoke void @_RINvNtCsbvkFyIu7lgC_4core3ptr13drop_in_placeNtNtNtCsjJ0p09o2jmV_10proc_macro6bridge6buffer6BufferECs4ZaLwAtrTbk_16deltalake_derive(ptr nonnull align 8 %2)
          to label %bb.p unwind label %bb.o

end_hunk_5
begin_hunk_6_@_RNvXNvNtCsjJ0p09o2jmV_10proc_macro6bridges4_1__INtNtCsbvkFyIu7lgC_4core6result6ResultuNtNtB4_3rpc12PanicMessageEINtB1o_6EncodeuE6encodeCs4ZaLwAtrTbk_16deltalake_derive:bb.a
  store ptr @_RNvNvXs6_NtNtCsjJ0p09o2jmV_10proc_macro6bridge6bufferNtB7_6BufferINtNtCsbvkFyIu7lgC_4core7convert4FromINtNtCs6Po7BT7Nknu_5alloc3vec3VechEE4from4drop, ptr %.sroa.5.0..sroa_idx.i, align 8
  %i.m = getelementptr inbounds nuw i8, ptr %i.d, i64 24
  %i.n = load ptr, ptr %i.m, align 8
  call void %i.n(ptr nonnull sret([40 x i8]) align 8 %i.c, ptr nonnull byval([40 x i8]) align 8 %i.d, i64 1) #20
  invoke void @_RINvNtCsbvkFyIu7lgC_4core3ptr13drop_in_placeNtNtNtCsjJ0p09o2jmV_10proc_macro6bridge6buffer6BufferECs4ZaLwAtrTbk_16deltalake_derive(ptr nonnull align 8 %1)
          to label %bb.d unwind label %bb.k

end_hunk_6
begin_hunk_7_@_RNvXNvNtCsjJ0p09o2jmV_10proc_macro6bridges4_1__INtNtCsbvkFyIu7lgC_4core6result6ResultuNtNtB4_3rpc12PanicMessageEINtB1o_6EncodeuE6encodeCs4ZaLwAtrTbk_16deltalake_derive:bb.a
  store ptr @_RNvNvXs6_NtNtCsjJ0p09o2jmV_10proc_macro6bridge6bufferNtB7_6BufferINtNtCsbvkFyIu7lgC_4core7convert4FromINtNtCs6Po7BT7Nknu_5alloc3vec3VechEE4from4drop, ptr %.sroa.5.0..sroa_idx.i5, align 8
  %i.t = getelementptr inbounds nuw i8, ptr %i.b, i64 24
  %i.u = load ptr, ptr %i.t, align 8
  call void %i.u(ptr nonnull sret([40 x i8]) align 8 %i.a, ptr nonnull byval([40 x i8]) align 8 %i.b, i64 1) #20
  invoke void @_RINvNtCsbvkFyIu7lgC_4core3ptr13drop_in_placeNtNtNtCsjJ0p09o2jmV_10proc_macro6bridge6buffer6BufferECs4ZaLwAtrTbk_16deltalake_derive(ptr nonnull align 8 %1)
          to label %bb.h unwind label %bb.g

end_hunk_7
begin_hunk_8_@_RNvXs7_NtCs6Po7BT7Nknu_5alloc3vecINtB5_3VecRNtNtCs7nQiqFc7Txl_3syn4data5FieldENtNtNtCsbvkFyIu7lgC_4core3ops5deref5Deref5derefCs4ZaLwAtrTbk_16deltalake_derive:bb.a
; Function Attrs: nonlazybind uwtable
define hidden void @_RNvXs7_NtNtCsjJ0p09o2jmV_10proc_macro6bridge3rpcTINtB7_11ExpnGlobalsNtNtB7_6client4SpanENtB16_11TokenStreamEINtB5_6DecodeuE6decodeCs4ZaLwAtrTbk_16deltalake_derive(ptr writeonly sret([16 x i8]) align 4 captures(none) initializes((0, 16)) %0, ptr align 8 %1, ptr %2) unnamed_addr #6 personality ptr @rust_eh_personality {
bb.a:
  %i.a = tail call i32 @_RNvXs7_NtNtCsjJ0p09o2jmV_10proc_macro6bridge6clientNtB5_4SpanINtNtB7_3rpc6DecodeuE6decodeCs4ZaLwAtrTbk_16deltalake_derive(ptr align 8 %1, ptr %2), !noalias !43
  %i.b = tail call i32 @_RNvXs7_NtNtCsjJ0p09o2jmV_10proc_macro6bridge6clientNtB5_4SpanINtNtB7_3rpc6DecodeuE6decodeCs4ZaLwAtrTbk_16deltalake_derive(ptr align 8 %1, ptr %2), !noalias !43
  %i.c = tail call i32 @_RNvXs7_NtNtCsjJ0p09o2jmV_10proc_macro6bridge6clientNtB5_4SpanINtNtB7_3rpc6DecodeuE6decodeCs4ZaLwAtrTbk_16deltalake_derive(ptr align 8 %1, ptr %2), !noalias !43
  %i.d = tail call i32 @_RNvXs3_NtNtCsjJ0p09o2jmV_10proc_macro6bridge6clientNtB5_11TokenStreamINtNtB7_3rpc6DecodeuE6decodeCs4ZaLwAtrTbk_16deltalake_derive(ptr align 8 %1, ptr %2)
  store i32 %i.a, ptr %0, align 4
  %.sroa.2.0..sroa_idx = getelementptr inbounds nuw i8, ptr %0, i64 4
end_hunk_8
begin_hunk_9_@_RNvXsz_NtCsbjGuDcEILED_11proc_macro23impNtB5_11TokenStreamNtNtCsbvkFyIu7lgC_4core5clone5Clone5cloneCs4ZaLwAtrTbk_16deltalake_derive:bb.a
  call void @llvm.lifetime.start.p0(ptr nonnull %i.a)
  call void @llvm.lifetime.start.p0(ptr nonnull %i.b)
  %i.h = getelementptr inbounds nuw i8, ptr %1, i64 24
  %i.i = tail call i32 @_RNvXsU_CsjJ0p09o2jmV_10proc_macroNtB5_11TokenStreamNtNtCsbvkFyIu7lgC_4core5clone5Clone5cloneCs4ZaLwAtrTbk_16deltalake_derive(ptr nonnull align 4 %i.h) #19, !noalias !46 ; 2 uses
  store i32 %i.i, ptr %i.b, align 4, !noalias !46
  invoke void @_RNvXsa_NtCs6Po7BT7Nknu_5alloc3vecINtB5_3VecNtCsjJ0p09o2jmV_10proc_macro9TokenTreeENtNtCsbvkFyIu7lgC_4core5clone5Clone5cloneCsbjGuDcEILED_11proc_macro2(ptr nonnull sret([24 x i8]) align 8 %i.a, ptr nonnull align 8 %1)
          to label %_RNvXsA_NtCsbjGuDcEILED_11proc_macro23impNtB5_19DeferredTokenStreamNtNtCsbvkFyIu7lgC_4core5clone5Clone5cloneCs4ZaLwAtrTbk_16deltalake_derive.exit unwind label %bb.d, !noalias !46

bb.d:                                             ; preds = %bb.c
  %i.j = landingpad { ptr, i32 }
          cleanup
  invoke void @_RINvNtCsbvkFyIu7lgC_4core3ptr13drop_in_placeNtCsjJ0p09o2jmV_10proc_macro11TokenStreamECsbjGuDcEILED_11proc_macro2(ptr nonnull align 4 %i.b) #21
          to label %bb.f unwind label %bb.e, !noalias !46

bb.e:                                             ; preds = %bb.d
  %i.k = landingpad { ptr, i32 }
          filter [0 x ptr] zeroinitializer        ; 0 uses
  call void @_RNvNtCsbvkFyIu7lgC_4core9panicking16panic_in_cleanup() #22, !noalias !46
  unreachable

bb.f:                                             ; preds = %bb.d
end_hunk_9
begin_hunk_10_@llvm.memmove.p0.p0.i64
!40 = distinct !{!40, !"_RNvXNtNtCs6Po7BT7Nknu_5alloc3vec21spec_from_iter_nestedINtB4_3VecNtCsbjGuDcEILED_11proc_macro211TokenStreamEINtB2_18SpecFromIterNestedB11_INtNtNtCsbvkFyIu7lgC_4core4iter8adapters12GenericShuntINtNtB2f_3map3MapINtNtNtB2j_5slice4iter4IterRNtNtCs7nQiqFc7Txl_3syn4data5FieldENCNvCs4ZaLwAtrTbk_16deltalake_derive20generate_config_keys0EINtNtB2j_6result6ResultNtNtB2j_7convert10InfallibleNtNtB3R_5error5ErrorEEE9from_iterB4p_"}
!41 = !{!36, !33}
!42 = !{!39, !36, !33}
!43 = !{!44}
!44 = distinct !{!44, !45, !"_RNvXs15_NtCsjJ0p09o2jmV_10proc_macro6bridgeINtB6_11ExpnGlobalsNtNtB6_6client4SpanEINtNtB6_3rpc6DecodeuE6decodeCs4ZaLwAtrTbk_16deltalake_derive: argument 0"}
!45 = distinct !{!45, !"_RNvXs15_NtCsjJ0p09o2jmV_10proc_macro6bridgeINtB6_11ExpnGlobalsNtNtB6_6client4SpanEINtNtB6_3rpc6DecodeuE6decodeCs4ZaLwAtrTbk_16deltalake_derive"}
!46 = !{!47}
!47 = distinct !{!47, !48, !"_RNvXsA_NtCsbjGuDcEILED_11proc_macro23impNtB5_19DeferredTokenStreamNtNtCsbvkFyIu7lgC_4core5clone5Clone5cloneCs4ZaLwAtrTbk_16deltalake_derive: argument 0"}
!48 = distinct !{!48, !"_RNvXsA_NtCsbjGuDcEILED_11proc_macro23impNtB5_19DeferredTokenStreamNtNtCsbvkFyIu7lgC_4core5clone5Clone5cloneCs4ZaLwAtrTbk_16deltalake_derive"}
end_hunk_10
