inline.NumInlined: 3868
inline.NumDeleted: 1539
begin_hunk_0_@_RINvNtCsbvkFyIu7lgC_4core3ptr13drop_in_placeINtNtCs3gpiEk3WpjL_9hashbrown3raw8RawTableTNtNtCs6Po7BT7Nknu_5alloc6string6StringINtNtB1r_4sync3ArcNtNtCs8VI8w5SIoU4_15datafusion_expr3udf9ScalarUDFEEEECs2VbMhdeEr66_16delta_benchmarks:bb.a

bb.e:                                             ; preds = %_RINvMsa_NtCs3gpiEk3WpjL_9hashbrown3rawNtB6_13RawTableInner13drop_elementsTNtNtCs6Po7BT7Nknu_5alloc6string6StringINtNtB1e_4sync3ArcNtNtCs8VI8w5SIoU4_15datafusion_expr3udf9ScalarUDFEEECs2VbMhdeEr66_16delta_benchmarks.exit.i.i
  %i.ah = load ptr, ptr %0, align 8, !alias.scope !1059, !nonnull !8, !noundef !8
  %1 = sub nuw nsw i64 -32, %i.aa
  %i.ai = getelementptr inbounds i8, ptr %i.ah, i64 %1
  tail call void @_RNvCs8mYq7K4qqSA_7___rustc14___rust_dealloc(ptr noundef nonnull %i.ai, i64 noundef %i.ad, i64 noundef range(i64 1, -9223372036854775807) 16) #39, !noalias !1059
  br label %_RNvXsg_NtCs3gpiEk3WpjL_9hashbrown3rawINtB5_8RawTableTNtNtCs6Po7BT7Nknu_5alloc6string6StringINtNtBT_4sync3ArcNtNtCs8VI8w5SIoU4_15datafusion_expr3udf9ScalarUDFEEENtNtNtCsbvkFyIu7lgC_4core3ops4drop4Drop4dropCs2VbMhdeEr66_16delta_benchmarks.exit
end_hunk_0
begin_hunk_1_@_RINvNtCsbvkFyIu7lgC_4core3ptr13drop_in_placeINtNtCs3gpiEk3WpjL_9hashbrown3raw8RawTableTNtNtCs6Po7BT7Nknu_5alloc6string6StringINtNtB1r_4sync3ArcNtNtCs8VI8w5SIoU4_15datafusion_expr4udaf12AggregateUDFEEEECs2VbMhdeEr66_16delta_benchmarks:bb.a

bb.e:                                             ; preds = %_RINvMsa_NtCs3gpiEk3WpjL_9hashbrown3rawNtB6_13RawTableInner13drop_elementsTNtNtCs6Po7BT7Nknu_5alloc6string6StringINtNtB1e_4sync3ArcNtNtCs8VI8w5SIoU4_15datafusion_expr4udaf12AggregateUDFEEECs2VbMhdeEr66_16delta_benchmarks.exit.i.i
  %i.ah = load ptr, ptr %0, align 8, !alias.scope !1080, !nonnull !8, !noundef !8
  %1 = sub nuw nsw i64 -32, %i.aa
  %i.ai = getelementptr inbounds i8, ptr %i.ah, i64 %1
  tail call void @_RNvCs8mYq7K4qqSA_7___rustc14___rust_dealloc(ptr noundef nonnull %i.ai, i64 noundef %i.ad, i64 noundef range(i64 1, -9223372036854775807) 16) #39, !noalias !1080
  br label %_RNvXsg_NtCs3gpiEk3WpjL_9hashbrown3rawINtB5_8RawTableTNtNtCs6Po7BT7Nknu_5alloc6string6StringINtNtBT_4sync3ArcNtNtCs8VI8w5SIoU4_15datafusion_expr4udaf12AggregateUDFEEENtNtNtCsbvkFyIu7lgC_4core3ops4drop4Drop4dropCs2VbMhdeEr66_16delta_benchmarks.exit
end_hunk_1
begin_hunk_2_@_RINvNtCsbvkFyIu7lgC_4core3ptr13drop_in_placeINtNtCs3gpiEk3WpjL_9hashbrown3raw8RawTableTNtNtCs6Po7BT7Nknu_5alloc6string6StringINtNtB1r_4sync3ArcNtNtCs8VI8w5SIoU4_15datafusion_expr4udwf9WindowUDFEEEECs2VbMhdeEr66_16delta_benchmarks:bb.a

bb.e:                                             ; preds = %_RINvMsa_NtCs3gpiEk3WpjL_9hashbrown3rawNtB6_13RawTableInner13drop_elementsTNtNtCs6Po7BT7Nknu_5alloc6string6StringINtNtB1e_4sync3ArcNtNtCs8VI8w5SIoU4_15datafusion_expr4udwf9WindowUDFEEECs2VbMhdeEr66_16delta_benchmarks.exit.i.i
  %i.ah = load ptr, ptr %0, align 8, !alias.scope !1101, !nonnull !8, !noundef !8
  %1 = sub nuw nsw i64 -32, %i.aa
  %i.ai = getelementptr inbounds i8, ptr %i.ah, i64 %1
  tail call void @_RNvCs8mYq7K4qqSA_7___rustc14___rust_dealloc(ptr noundef nonnull %i.ai, i64 noundef %i.ad, i64 noundef range(i64 1, -9223372036854775807) 16) #39, !noalias !1101
  br label %_RNvXsg_NtCs3gpiEk3WpjL_9hashbrown3rawINtB5_8RawTableTNtNtCs6Po7BT7Nknu_5alloc6string6StringINtNtBT_4sync3ArcNtNtCs8VI8w5SIoU4_15datafusion_expr4udwf9WindowUDFEEENtNtNtCsbvkFyIu7lgC_4core3ops4drop4Drop4dropCs2VbMhdeEr66_16delta_benchmarks.exit
end_hunk_2
begin_hunk_3_@_RINvNtCsbvkFyIu7lgC_4core3ptr13drop_in_placeINtNtCs3gpiEk3WpjL_9hashbrown3raw8RawTableTNtNtCs6Po7BT7Nknu_5alloc6string6StringINtNtB1r_4sync3ArcNtNtCsanCXJAiNsO_18datafusion_catalog5table13TableFunctionEEEECs2VbMhdeEr66_16delta_benchmarks:bb.a

bb.e:                                             ; preds = %_RINvMsa_NtCs3gpiEk3WpjL_9hashbrown3rawNtB6_13RawTableInner13drop_elementsTNtNtCs6Po7BT7Nknu_5alloc6string6StringINtNtB1e_4sync3ArcNtNtCsanCXJAiNsO_18datafusion_catalog5table13TableFunctionEEECs2VbMhdeEr66_16delta_benchmarks.exit.i.i
  %i.ah = load ptr, ptr %0, align 8, !alias.scope !1122, !nonnull !8, !noundef !8
  %1 = sub nuw nsw i64 -32, %i.aa
  %i.ai = getelementptr inbounds i8, ptr %i.ah, i64 %1
  tail call void @_RNvCs8mYq7K4qqSA_7___rustc14___rust_dealloc(ptr noundef nonnull %i.ai, i64 noundef %i.ad, i64 noundef range(i64 1, -9223372036854775807) 16) #39, !noalias !1122
  br label %_RNvXsg_NtCs3gpiEk3WpjL_9hashbrown3rawINtB5_8RawTableTNtNtCs6Po7BT7Nknu_5alloc6string6StringINtNtBT_4sync3ArcNtNtCsanCXJAiNsO_18datafusion_catalog5table13TableFunctionEEENtNtNtCsbvkFyIu7lgC_4core3ops4drop4Drop4dropCs2VbMhdeEr66_16delta_benchmarks.exit
end_hunk_3
begin_hunk_4_@_RINvNtCsbvkFyIu7lgC_4core3ptr13drop_in_placeINtNtCs3gpiEk3WpjL_9hashbrown3raw8RawTableTNtNtCs6Po7BT7Nknu_5alloc6string6StringINtNtB1r_4sync3ArcNtNtNtCs8Hz2sPNgbCO_10datafusion9execution13session_state12PreparedPlanEEEECs2VbMhdeEr66_16delta_benchmarks:bb.a

bb.e:                                             ; preds = %_RINvMsa_NtCs3gpiEk3WpjL_9hashbrown3rawNtB6_13RawTableInner13drop_elementsTNtNtCs6Po7BT7Nknu_5alloc6string6StringINtNtB1e_4sync3ArcNtNtNtCs8Hz2sPNgbCO_10datafusion9execution13session_state12PreparedPlanEEECs2VbMhdeEr66_16delta_benchmarks.exit.i.i
  %i.ah = load ptr, ptr %0, align 8, !alias.scope !1143, !nonnull !8, !noundef !8
  %1 = sub nuw nsw i64 -32, %i.aa
  %i.ai = getelementptr inbounds i8, ptr %i.ah, i64 %1
  tail call void @_RNvCs8mYq7K4qqSA_7___rustc14___rust_dealloc(ptr noundef nonnull %i.ai, i64 noundef %i.ad, i64 noundef range(i64 1, -9223372036854775807) 16) #39, !noalias !1143
  br label %_RNvXsg_NtCs3gpiEk3WpjL_9hashbrown3rawINtB5_8RawTableTNtNtCs6Po7BT7Nknu_5alloc6string6StringINtNtBT_4sync3ArcNtNtNtCs8Hz2sPNgbCO_10datafusion9execution13session_state12PreparedPlanEEENtNtNtCsbvkFyIu7lgC_4core3ops4drop4Drop4dropCs2VbMhdeEr66_16delta_benchmarks.exit
end_hunk_4
begin_hunk_5_@_RINvNtCsbvkFyIu7lgC_4core3ptr13drop_in_placeINtNtCs3gpiEk3WpjL_9hashbrown3raw8RawTableTNtNtCs6Po7BT7Nknu_5alloc6string6StringINtNtB1r_4sync3ArcNtNtNtCs8VI8w5SIoU4_15datafusion_expr12logical_plan4plan11LogicalPlanEEEECs2VbMhdeEr66_16delta_benchmarks:bb.a

bb.e:                                             ; preds = %_RINvMsa_NtCs3gpiEk3WpjL_9hashbrown3rawNtB6_13RawTableInner13drop_elementsTNtNtCs6Po7BT7Nknu_5alloc6string6StringINtNtB1e_4sync3ArcNtNtNtCs8VI8w5SIoU4_15datafusion_expr12logical_plan4plan11LogicalPlanEEECs2VbMhdeEr66_16delta_benchmarks.exit.i.i
  %i.ah = load ptr, ptr %0, align 8, !alias.scope !1164, !nonnull !8, !noundef !8
  %1 = sub nuw nsw i64 -32, %i.aa
  %i.ai = getelementptr inbounds i8, ptr %i.ah, i64 %1
  tail call void @_RNvCs8mYq7K4qqSA_7___rustc14___rust_dealloc(ptr noundef nonnull %i.ai, i64 noundef %i.ad, i64 noundef range(i64 1, -9223372036854775807) 16) #39, !noalias !1164
  br label %_RNvXsg_NtCs3gpiEk3WpjL_9hashbrown3rawINtB5_8RawTableTNtNtCs6Po7BT7Nknu_5alloc6string6StringINtNtBT_4sync3ArcNtNtNtCs8VI8w5SIoU4_15datafusion_expr12logical_plan4plan11LogicalPlanEEENtNtNtCsbvkFyIu7lgC_4core3ops4drop4Drop4dropCs2VbMhdeEr66_16delta_benchmarks.exit
end_hunk_5
begin_hunk_6_@_RINvNtCsbvkFyIu7lgC_4core3ptr13drop_in_placeINtNtNtNtCs2pqxYH9ZEk8_3std11collections4hash3map7HashMapNtNtB4_3any6TypeIdINtNtCs6Po7BT7Nknu_5alloc4sync3ArcDNtB1D_3AnyNtNtB4_6marker4SyncNtB2E_4SendEL_EINtNtB4_4hash18BuildHasherDefaultNtNtCs4m0Tg8nAduX_20datafusion_execution6config8IdHasherEEECs2VbMhdeEr66_16delta_benchmarks:bb.a

bb.f:                                             ; preds = %_RINvMsa_NtCs3gpiEk3WpjL_9hashbrown3rawNtB6_13RawTableInner13drop_elementsTNtNtCsbvkFyIu7lgC_4core3any6TypeIdINtNtCs6Po7BT7Nknu_5alloc4sync3ArcDNtB1c_3AnyNtNtB1e_6marker4SyncNtB2t_4SendEL_EEECs2VbMhdeEr66_16delta_benchmarks.exit.i.i.i.i
  %i.ak = load ptr, ptr %0, align 8, !alias.scope !1351, !nonnull !8, !noundef !8
  %1 = sub nuw nsw i64 -32, %i.ad
  %i.al = getelementptr inbounds i8, ptr %i.ak, i64 %1
  tail call void @_RNvCs8mYq7K4qqSA_7___rustc14___rust_dealloc(ptr noundef nonnull %i.al, i64 noundef %i.ag, i64 noundef range(i64 1, -9223372036854775807) 16) #39, !noalias !1351
  br label %_RINvNtCsbvkFyIu7lgC_4core3ptr13drop_in_placeINtNtCs3gpiEk3WpjL_9hashbrown3map7HashMapNtNtB4_3any6TypeIdINtNtCs6Po7BT7Nknu_5alloc4sync3ArcDNtB1n_3AnyNtNtB4_6marker4SyncNtB2o_4SendEL_EINtNtB4_4hash18BuildHasherDefaultNtNtCs4m0Tg8nAduX_20datafusion_execution6config8IdHasherEEECs2VbMhdeEr66_16delta_benchmarks.exit
end_hunk_6
begin_hunk_7_@_RINvNtCsbvkFyIu7lgC_4core3ptr13drop_in_placeINtNtNtNtCs2pqxYH9ZEk8_3std11collections4hash3map7HashMapNtNtCs6Po7BT7Nknu_5alloc6string6StringINtNtB1F_4sync3ArcNtNtCs8VI8w5SIoU4_15datafusion_expr3udf9ScalarUDFEEECs2VbMhdeEr66_16delta_benchmarks:bb.a

bb.e:                                             ; preds = %_RINvMsa_NtCs3gpiEk3WpjL_9hashbrown3rawNtB6_13RawTableInner13drop_elementsTNtNtCs6Po7BT7Nknu_5alloc6string6StringINtNtB1e_4sync3ArcNtNtCs8VI8w5SIoU4_15datafusion_expr3udf9ScalarUDFEEECs2VbMhdeEr66_16delta_benchmarks.exit.i.i.i.i
  %i.ah = load ptr, ptr %0, align 8, !alias.scope !1470, !nonnull !8, !noundef !8
  %1 = sub nuw nsw i64 -32, %i.aa
  %i.ai = getelementptr inbounds i8, ptr %i.ah, i64 %1
  tail call void @_RNvCs8mYq7K4qqSA_7___rustc14___rust_dealloc(ptr noundef nonnull %i.ai, i64 noundef %i.ad, i64 noundef range(i64 1, -9223372036854775807) 16) #39, !noalias !1470
  br label %_RINvNtCsbvkFyIu7lgC_4core3ptr13drop_in_placeINtNtCs3gpiEk3WpjL_9hashbrown3map7HashMapNtNtCs6Po7BT7Nknu_5alloc6string6StringINtNtB1p_4sync3ArcNtNtCs8VI8w5SIoU4_15datafusion_expr3udf9ScalarUDFENtNtNtCs2pqxYH9ZEk8_3std4hash6random11RandomStateEECs2VbMhdeEr66_16delta_benchmarks.exit
end_hunk_7
begin_hunk_8_@_RINvNtCsbvkFyIu7lgC_4core3ptr13drop_in_placeINtNtNtNtCs2pqxYH9ZEk8_3std11collections4hash3map7HashMapNtNtCs6Po7BT7Nknu_5alloc6string6StringINtNtB1F_4sync3ArcNtNtCs8VI8w5SIoU4_15datafusion_expr4udaf12AggregateUDFEEECs2VbMhdeEr66_16delta_benchmarks:bb.a

bb.e:                                             ; preds = %_RINvMsa_NtCs3gpiEk3WpjL_9hashbrown3rawNtB6_13RawTableInner13drop_elementsTNtNtCs6Po7BT7Nknu_5alloc6string6StringINtNtB1e_4sync3ArcNtNtCs8VI8w5SIoU4_15datafusion_expr4udaf12AggregateUDFEEECs2VbMhdeEr66_16delta_benchmarks.exit.i.i.i.i
  %i.ah = load ptr, ptr %0, align 8, !alias.scope !1497, !nonnull !8, !noundef !8
  %1 = sub nuw nsw i64 -32, %i.aa
  %i.ai = getelementptr inbounds i8, ptr %i.ah, i64 %1
  tail call void @_RNvCs8mYq7K4qqSA_7___rustc14___rust_dealloc(ptr noundef nonnull %i.ai, i64 noundef %i.ad, i64 noundef range(i64 1, -9223372036854775807) 16) #39, !noalias !1497
  br label %_RINvNtCsbvkFyIu7lgC_4core3ptr13drop_in_placeINtNtCs3gpiEk3WpjL_9hashbrown3map7HashMapNtNtCs6Po7BT7Nknu_5alloc6string6StringINtNtB1p_4sync3ArcNtNtCs8VI8w5SIoU4_15datafusion_expr4udaf12AggregateUDFENtNtNtCs2pqxYH9ZEk8_3std4hash6random11RandomStateEECs2VbMhdeEr66_16delta_benchmarks.exit
end_hunk_8
begin_hunk_9_@_RINvNtCsbvkFyIu7lgC_4core3ptr13drop_in_placeINtNtNtNtCs2pqxYH9ZEk8_3std11collections4hash3map7HashMapNtNtCs6Po7BT7Nknu_5alloc6string6StringINtNtB1F_4sync3ArcNtNtCs8VI8w5SIoU4_15datafusion_expr4udwf9WindowUDFEEECs2VbMhdeEr66_16delta_benchmarks:bb.a

bb.e:                                             ; preds = %_RINvMsa_NtCs3gpiEk3WpjL_9hashbrown3rawNtB6_13RawTableInner13drop_elementsTNtNtCs6Po7BT7Nknu_5alloc6string6StringINtNtB1e_4sync3ArcNtNtCs8VI8w5SIoU4_15datafusion_expr4udwf9WindowUDFEEECs2VbMhdeEr66_16delta_benchmarks.exit.i.i.i.i
  %i.ah = load ptr, ptr %0, align 8, !alias.scope !1524, !nonnull !8, !noundef !8
  %1 = sub nuw nsw i64 -32, %i.aa
  %i.ai = getelementptr inbounds i8, ptr %i.ah, i64 %1
  tail call void @_RNvCs8mYq7K4qqSA_7___rustc14___rust_dealloc(ptr noundef nonnull %i.ai, i64 noundef %i.ad, i64 noundef range(i64 1, -9223372036854775807) 16) #39, !noalias !1524
  br label %_RINvNtCsbvkFyIu7lgC_4core3ptr13drop_in_placeINtNtCs3gpiEk3WpjL_9hashbrown3map7HashMapNtNtCs6Po7BT7Nknu_5alloc6string6StringINtNtB1p_4sync3ArcNtNtCs8VI8w5SIoU4_15datafusion_expr4udwf9WindowUDFENtNtNtCs2pqxYH9ZEk8_3std4hash6random11RandomStateEECs2VbMhdeEr66_16delta_benchmarks.exit
end_hunk_9
begin_hunk_10_@_RINvNtCsbvkFyIu7lgC_4core3ptr13drop_in_placeINtNtNtNtCs2pqxYH9ZEk8_3std11collections4hash3map7HashMapNtNtCs6Po7BT7Nknu_5alloc6string6StringINtNtB1F_4sync3ArcNtNtCsanCXJAiNsO_18datafusion_catalog5table13TableFunctionEEECs2VbMhdeEr66_16delta_benchmarks:bb.a

bb.e:                                             ; preds = %_RINvMsa_NtCs3gpiEk3WpjL_9hashbrown3rawNtB6_13RawTableInner13drop_elementsTNtNtCs6Po7BT7Nknu_5alloc6string6StringINtNtB1e_4sync3ArcNtNtCsanCXJAiNsO_18datafusion_catalog5table13TableFunctionEEECs2VbMhdeEr66_16delta_benchmarks.exit.i.i.i.i
  %i.ah = load ptr, ptr %0, align 8, !alias.scope !1551, !nonnull !8, !noundef !8
  %1 = sub nuw nsw i64 -32, %i.aa
  %i.ai = getelementptr inbounds i8, ptr %i.ah, i64 %1
  tail call void @_RNvCs8mYq7K4qqSA_7___rustc14___rust_dealloc(ptr noundef nonnull %i.ai, i64 noundef %i.ad, i64 noundef range(i64 1, -9223372036854775807) 16) #39, !noalias !1551
  br label %_RINvNtCsbvkFyIu7lgC_4core3ptr13drop_in_placeINtNtCs3gpiEk3WpjL_9hashbrown3map7HashMapNtNtCs6Po7BT7Nknu_5alloc6string6StringINtNtB1p_4sync3ArcNtNtCsanCXJAiNsO_18datafusion_catalog5table13TableFunctionENtNtNtCs2pqxYH9ZEk8_3std4hash6random11RandomStateEECs2VbMhdeEr66_16delta_benchmarks.exit
end_hunk_10
begin_hunk_11_@_RINvNtCsbvkFyIu7lgC_4core3ptr13drop_in_placeINtNtNtNtCs2pqxYH9ZEk8_3std11collections4hash3map7HashMapNtNtCs6Po7BT7Nknu_5alloc6string6StringINtNtB1F_4sync3ArcNtNtNtCs8Hz2sPNgbCO_10datafusion9execution13session_state12PreparedPlanEEECs2VbMhdeEr66_16delta_benchmarks:bb.a

bb.e:                                             ; preds = %_RINvMsa_NtCs3gpiEk3WpjL_9hashbrown3rawNtB6_13RawTableInner13drop_elementsTNtNtCs6Po7BT7Nknu_5alloc6string6StringINtNtB1e_4sync3ArcNtNtNtCs8Hz2sPNgbCO_10datafusion9execution13session_state12PreparedPlanEEECs2VbMhdeEr66_16delta_benchmarks.exit.i.i.i.i
  %i.ah = load ptr, ptr %0, align 8, !alias.scope !1578, !nonnull !8, !noundef !8
  %1 = sub nuw nsw i64 -32, %i.aa
  %i.ai = getelementptr inbounds i8, ptr %i.ah, i64 %1
  tail call void @_RNvCs8mYq7K4qqSA_7___rustc14___rust_dealloc(ptr noundef nonnull %i.ai, i64 noundef %i.ad, i64 noundef range(i64 1, -9223372036854775807) 16) #39, !noalias !1578
  br label %_RINvNtCsbvkFyIu7lgC_4core3ptr13drop_in_placeINtNtCs3gpiEk3WpjL_9hashbrown3map7HashMapNtNtCs6Po7BT7Nknu_5alloc6string6StringINtNtB1p_4sync3ArcNtNtNtCs8Hz2sPNgbCO_10datafusion9execution13session_state12PreparedPlanENtNtNtCs2pqxYH9ZEk8_3std4hash6random11RandomStateEECs2VbMhdeEr66_16delta_benchmarks.exit
end_hunk_11
begin_hunk_12_@_RINvNtCsbvkFyIu7lgC_4core3ptr13drop_in_placeINtNtNtNtCs2pqxYH9ZEk8_3std11collections4hash3map7HashMapNtNtCs8ulvy0Wg6Ot_12delta_kernel6schema18MetadataColumnSpecjEECs2VbMhdeEr66_16delta_benchmarks:bb.a
  br i1 %i.h, label %_RINvNtCsbvkFyIu7lgC_4core3ptr13drop_in_placeINtNtCs3gpiEk3WpjL_9hashbrown3map7HashMapNtNtCs8ulvy0Wg6Ot_12delta_kernel6schema18MetadataColumnSpecjNtNtNtCs2pqxYH9ZEk8_3std4hash6random11RandomStateEECs2VbMhdeEr66_16delta_benchmarks.exit, label %bb.b

bb.b:                                             ; preds = %_RNvMs1_NtCs3gpiEk3WpjL_9hashbrown3rawNtB5_11TableLayout20calculate_layout_for.exit.i.i.i.i
  %0 = sub nuw nsw i64 -16, %i.b
  %i.i = getelementptr inbounds i8, ptr %.0.val, i64 %0
  tail call void @_RNvCs8mYq7K4qqSA_7___rustc14___rust_dealloc(ptr noundef nonnull %i.i, i64 noundef %i.e, i64 noundef range(i64 1, -9223372036854775807) 16) #39, !noalias !1647
  br label %_RINvNtCsbvkFyIu7lgC_4core3ptr13drop_in_placeINtNtCs3gpiEk3WpjL_9hashbrown3map7HashMapNtNtCs8ulvy0Wg6Ot_12delta_kernel6schema18MetadataColumnSpecjNtNtNtCs2pqxYH9ZEk8_3std4hash6random11RandomStateEECs2VbMhdeEr66_16delta_benchmarks.exit
end_hunk_12
begin_hunk_13_@_RINvNtCsbvkFyIu7lgC_4core3ptr13drop_in_placeNtNtCs4m0Tg8nAduX_20datafusion_execution6config13SessionConfigECs2VbMhdeEr66_16delta_benchmarks:bb.a

bb.h:                                             ; preds = %_RINvMsa_NtCs3gpiEk3WpjL_9hashbrown3rawNtB6_13RawTableInner13drop_elementsTNtNtCsbvkFyIu7lgC_4core3any6TypeIdINtNtCs6Po7BT7Nknu_5alloc4sync3ArcDNtB1c_3AnyNtNtB1e_6marker4SyncNtB2t_4SendEL_EEECs2VbMhdeEr66_16delta_benchmarks.exit.i.i.i.i.i
  %i.aq = load ptr, ptr %i.f, align 8, !alias.scope !2499, !nonnull !8, !noundef !8
  %1 = sub nuw nsw i64 -32, %i.aj
  %i.ar = getelementptr inbounds i8, ptr %i.aq, i64 %1
  tail call void @_RNvCs8mYq7K4qqSA_7___rustc14___rust_dealloc(ptr noundef nonnull %i.ar, i64 noundef %i.am, i64 noundef range(i64 1, -9223372036854775807) 16) #39, !noalias !2499
  br label %_RINvNtCsbvkFyIu7lgC_4core3ptr13drop_in_placeINtNtNtNtCs2pqxYH9ZEk8_3std11collections4hash3map7HashMapNtNtB4_3any6TypeIdINtNtCs6Po7BT7Nknu_5alloc4sync3ArcDNtB1D_3AnyNtNtB4_6marker4SyncNtB2E_4SendEL_EINtNtB4_4hash18BuildHasherDefaultNtNtCs4m0Tg8nAduX_20datafusion_execution6config8IdHasherEEECs2VbMhdeEr66_16delta_benchmarks.exit
end_hunk_13
begin_hunk_14_@_RINvNtCsbvkFyIu7lgC_4core3ptr13drop_in_placeNtNtCs8ulvy0Wg6Ot_12delta_kernel6schema10StructTypeECs2VbMhdeEr66_16delta_benchmarks:bb.a
  br i1 %i.ai, label %_RINvNtCsbvkFyIu7lgC_4core3ptr13drop_in_placeINtNtNtNtCs2pqxYH9ZEk8_3std11collections4hash3map7HashMapNtNtCs8ulvy0Wg6Ot_12delta_kernel6schema18MetadataColumnSpecjEECs2VbMhdeEr66_16delta_benchmarks.exit, label %bb.i

bb.i:                                             ; preds = %_RNvMs1_NtCs3gpiEk3WpjL_9hashbrown3rawNtB5_11TableLayout20calculate_layout_for.exit.i.i.i.i.i
  %1 = sub nuw nsw i64 -16, %i.ac
  %i.aj = getelementptr inbounds i8, ptr %.val, i64 %1
  tail call void @_RNvCs8mYq7K4qqSA_7___rustc14___rust_dealloc(ptr noundef nonnull %i.aj, i64 noundef %i.af, i64 noundef range(i64 1, -9223372036854775807) 16) #39, !noalias !2899
  br label %_RINvNtCsbvkFyIu7lgC_4core3ptr13drop_in_placeINtNtNtNtCs2pqxYH9ZEk8_3std11collections4hash3map7HashMapNtNtCs8ulvy0Wg6Ot_12delta_kernel6schema18MetadataColumnSpecjEECs2VbMhdeEr66_16delta_benchmarks.exit
end_hunk_14
begin_hunk_15_@_RINvNtCsbvkFyIu7lgC_4core3ptr13drop_in_placeNtNtNtCs8Hz2sPNgbCO_10datafusion9execution13session_state12SessionStateECs2VbMhdeEr66_16delta_benchmarks:bb.a

bb.aj:                                            ; preds = %_RINvMsa_NtCs3gpiEk3WpjL_9hashbrown3rawNtB6_13RawTableInner13drop_elementsTNtNtCs6Po7BT7Nknu_5alloc6string6StringINtNtB1e_4sync3ArcNtNtCsanCXJAiNsO_18datafusion_catalog5table13TableFunctionEEECs2VbMhdeEr66_16delta_benchmarks.exit.i.i.i.i.i
  %i.cn = load ptr, ptr %i.bf, align 8, !alias.scope !4089, !nonnull !8, !noundef !8
  %1 = sub nuw nsw i64 -32, %i.cg
  %i.co = getelementptr inbounds i8, ptr %i.cn, i64 %1
  tail call void @_RNvCs8mYq7K4qqSA_7___rustc14___rust_dealloc(ptr noundef nonnull %i.co, i64 noundef %i.cj, i64 noundef range(i64 1, -9223372036854775807) 16) #39, !noalias !4089
  br label %_RINvNtCsbvkFyIu7lgC_4core3ptr13drop_in_placeINtNtNtNtCs2pqxYH9ZEk8_3std11collections4hash3map7HashMapNtNtCs6Po7BT7Nknu_5alloc6string6StringINtNtB1F_4sync3ArcNtNtCsanCXJAiNsO_18datafusion_catalog5table13TableFunctionEEECs2VbMhdeEr66_16delta_benchmarks.exit
end_hunk_15
begin_hunk_16_@_RINvNtCsbvkFyIu7lgC_4core3ptr13drop_in_placeNtNtNtCs8Hz2sPNgbCO_10datafusion9execution13session_state12SessionStateECs2VbMhdeEr66_16delta_benchmarks:bb.a

bb.ap:                                            ; preds = %_RINvMsa_NtCs3gpiEk3WpjL_9hashbrown3rawNtB6_13RawTableInner13drop_elementsTNtNtCs6Po7BT7Nknu_5alloc6string6StringINtNtB1e_4sync3ArcNtNtCs8VI8w5SIoU4_15datafusion_expr3udf9ScalarUDFEEECs2VbMhdeEr66_16delta_benchmarks.exit.i.i.i.i.i
  %i.dz = load ptr, ptr %i.cr, align 8, !alias.scope !4119, !nonnull !8, !noundef !8
  %2 = sub nuw nsw i64 -32, %i.ds
  %i.ea = getelementptr inbounds i8, ptr %i.dz, i64 %2
  tail call void @_RNvCs8mYq7K4qqSA_7___rustc14___rust_dealloc(ptr noundef nonnull %i.ea, i64 noundef %i.dv, i64 noundef range(i64 1, -9223372036854775807) 16) #39, !noalias !4119
  br label %_RINvNtCsbvkFyIu7lgC_4core3ptr13drop_in_placeINtNtNtNtCs2pqxYH9ZEk8_3std11collections4hash3map7HashMapNtNtCs6Po7BT7Nknu_5alloc6string6StringINtNtB1F_4sync3ArcNtNtCs8VI8w5SIoU4_15datafusion_expr3udf9ScalarUDFEEECs2VbMhdeEr66_16delta_benchmarks.exit
end_hunk_16
begin_hunk_17_@_RINvNtCsbvkFyIu7lgC_4core3ptr13drop_in_placeNtNtNtCs8Hz2sPNgbCO_10datafusion9execution13session_state12SessionStateECs2VbMhdeEr66_16delta_benchmarks:bb.a

bb.av:                                            ; preds = %_RINvMsa_NtCs3gpiEk3WpjL_9hashbrown3rawNtB6_13RawTableInner13drop_elementsTNtNtCs6Po7BT7Nknu_5alloc6string6StringINtNtB1e_4sync3ArcNtNtCs8VI8w5SIoU4_15datafusion_expr4udaf12AggregateUDFEEECs2VbMhdeEr66_16delta_benchmarks.exit.i.i.i.i.i
  %i.fl = load ptr, ptr %i.ed, align 8, !alias.scope !4149, !nonnull !8, !noundef !8
  %3 = sub nuw nsw i64 -32, %i.fe
  %i.fm = getelementptr inbounds i8, ptr %i.fl, i64 %3
  tail call void @_RNvCs8mYq7K4qqSA_7___rustc14___rust_dealloc(ptr noundef nonnull %i.fm, i64 noundef %i.fh, i64 noundef range(i64 1, -9223372036854775807) 16) #39, !noalias !4149
  br label %_RINvNtCsbvkFyIu7lgC_4core3ptr13drop_in_placeINtNtNtNtCs2pqxYH9ZEk8_3std11collections4hash3map7HashMapNtNtCs6Po7BT7Nknu_5alloc6string6StringINtNtB1F_4sync3ArcNtNtCs8VI8w5SIoU4_15datafusion_expr4udaf12AggregateUDFEEECs2VbMhdeEr66_16delta_benchmarks.exit
end_hunk_17
begin_hunk_18_@_RINvNtCsbvkFyIu7lgC_4core3ptr13drop_in_placeNtNtNtCs8Hz2sPNgbCO_10datafusion9execution13session_state12SessionStateECs2VbMhdeEr66_16delta_benchmarks:bb.a

bb.bb:                                            ; preds = %_RINvMsa_NtCs3gpiEk3WpjL_9hashbrown3rawNtB6_13RawTableInner13drop_elementsTNtNtCs6Po7BT7Nknu_5alloc6string6StringINtNtB1e_4sync3ArcNtNtCs8VI8w5SIoU4_15datafusion_expr4udwf9WindowUDFEEECs2VbMhdeEr66_16delta_benchmarks.exit.i.i.i.i.i
  %i.gx = load ptr, ptr %i.fp, align 8, !alias.scope !4179, !nonnull !8, !noundef !8
  %4 = sub nuw nsw i64 -32, %i.gq
  %i.gy = getelementptr inbounds i8, ptr %i.gx, i64 %4
  tail call void @_RNvCs8mYq7K4qqSA_7___rustc14___rust_dealloc(ptr noundef nonnull %i.gy, i64 noundef %i.gt, i64 noundef range(i64 1, -9223372036854775807) 16) #39, !noalias !4179
  br label %_RINvNtCsbvkFyIu7lgC_4core3ptr13drop_in_placeINtNtNtNtCs2pqxYH9ZEk8_3std11collections4hash3map7HashMapNtNtCs6Po7BT7Nknu_5alloc6string6StringINtNtB1F_4sync3ArcNtNtCs8VI8w5SIoU4_15datafusion_expr4udwf9WindowUDFEEECs2VbMhdeEr66_16delta_benchmarks.exit
end_hunk_18
begin_hunk_19_@_RINvNtCsbvkFyIu7lgC_4core3ptr13drop_in_placeNtNtNtCs8Hz2sPNgbCO_10datafusion9execution13session_state12SessionStateECs2VbMhdeEr66_16delta_benchmarks:bb.a

bb.cs:                                            ; preds = %_RINvMsa_NtCs3gpiEk3WpjL_9hashbrown3rawNtB6_13RawTableInner13drop_elementsTNtNtCs6Po7BT7Nknu_5alloc6string6StringINtNtB1e_4sync3ArcNtNtNtCs8Hz2sPNgbCO_10datafusion9execution13session_state12PreparedPlanEEECs2VbMhdeEr66_16delta_benchmarks.exit.i.i.i.i.i
  %i.ni = load ptr, ptr %i.ma, align 8, !alias.scope !4329, !nonnull !8, !noundef !8
  %5 = sub nuw nsw i64 -32, %i.nb
  %i.nj = getelementptr inbounds i8, ptr %i.ni, i64 %5
  tail call void @_RNvCs8mYq7K4qqSA_7___rustc14___rust_dealloc(ptr noundef nonnull %i.nj, i64 noundef %i.ne, i64 noundef range(i64 1, -9223372036854775807) 16) #39, !noalias !4329
  br label %_RINvNtCsbvkFyIu7lgC_4core3ptr13drop_in_placeINtNtNtNtCs2pqxYH9ZEk8_3std11collections4hash3map7HashMapNtNtCs6Po7BT7Nknu_5alloc6string6StringINtNtB1F_4sync3ArcNtNtNtCs8Hz2sPNgbCO_10datafusion9execution13session_state12PreparedPlanEEECs2VbMhdeEr66_16delta_benchmarks.exit
end_hunk_19
begin_hunk_20_@_RNvXsE_NtCs3gpiEk3WpjL_9hashbrown3mapINtB5_7HashMapRNtNtCsjhHCjzi9uUI_17datafusion_common6column6ColumnuNtNtNtCs2pqxYH9ZEk8_3std4hash6random11RandomStateENtNtNtNtCsbvkFyIu7lgC_4core4iter6traits7collect12IntoIterator9into_iterCs2VbMhdeEr66_16delta_benchmarks:bb.a
  tail call void @llvm.assume(i1 %i.h)
  %i.i = icmp ult i64 %i.g, 9223372036854775793
  tail call void @llvm.assume(i1 %i.i)
  %2 = sub nuw nsw i64 -16, %i.d
  %i.j = getelementptr inbounds i8, ptr %.sroa.02.0.copyload, i64 %2
  br label %_RNvXsh_NtCs3gpiEk3WpjL_9hashbrown3rawINtB5_8RawTableTRNtNtCsjhHCjzi9uUI_17datafusion_common6column6ColumnuEENtNtNtNtCsbvkFyIu7lgC_4core4iter6traits7collect12IntoIterator9into_iterCs2VbMhdeEr66_16delta_benchmarks.exit

end_hunk_20
begin_hunk_21_@_RNvXsg_NtCs3gpiEk3WpjL_9hashbrown3rawINtB5_8RawTableTNtNtCs6Po7BT7Nknu_5alloc6string6StringINtNtBT_4sync3ArcNtNtCs8VI8w5SIoU4_15datafusion_expr3udf9ScalarUDFEEENtNtNtCsbvkFyIu7lgC_4core3ops4drop4Drop4dropCs2VbMhdeEr66_16delta_benchmarks:bb.a

bb.e:                                             ; preds = %_RINvMsa_NtCs3gpiEk3WpjL_9hashbrown3rawNtB6_13RawTableInner13drop_elementsTNtNtCs6Po7BT7Nknu_5alloc6string6StringINtNtB1e_4sync3ArcNtNtCs8VI8w5SIoU4_15datafusion_expr3udf9ScalarUDFEEECs2VbMhdeEr66_16delta_benchmarks.exit.i
  %i.ah = load ptr, ptr %0, align 8, !alias.scope !8828, !nonnull !8, !noundef !8
  %1 = sub nuw nsw i64 -32, %i.aa
  %i.ai = getelementptr inbounds i8, ptr %i.ah, i64 %1
  tail call void @_RNvCs8mYq7K4qqSA_7___rustc14___rust_dealloc(ptr noundef nonnull %i.ai, i64 noundef %i.ad, i64 noundef range(i64 1, -9223372036854775807) 16) #39, !noalias !8828
  br label %_RINvMsa_NtCs3gpiEk3WpjL_9hashbrown3rawNtB6_13RawTableInner16drop_inner_tableTNtNtCs6Po7BT7Nknu_5alloc6string6StringINtNtB1h_4sync3ArcNtNtCs8VI8w5SIoU4_15datafusion_expr3udf9ScalarUDFEENtNtB1h_5alloc6GlobalECs2VbMhdeEr66_16delta_benchmarks.exit
end_hunk_21
begin_hunk_22_@_RNvXsg_NtCs3gpiEk3WpjL_9hashbrown3rawINtB5_8RawTableTNtNtCs6Po7BT7Nknu_5alloc6string6StringINtNtBT_4sync3ArcNtNtCs8VI8w5SIoU4_15datafusion_expr4udaf12AggregateUDFEEENtNtNtCsbvkFyIu7lgC_4core3ops4drop4Drop4dropCs2VbMhdeEr66_16delta_benchmarks:bb.a

bb.e:                                             ; preds = %_RINvMsa_NtCs3gpiEk3WpjL_9hashbrown3rawNtB6_13RawTableInner13drop_elementsTNtNtCs6Po7BT7Nknu_5alloc6string6StringINtNtB1e_4sync3ArcNtNtCs8VI8w5SIoU4_15datafusion_expr4udaf12AggregateUDFEEECs2VbMhdeEr66_16delta_benchmarks.exit.i
  %i.ah = load ptr, ptr %0, align 8, !alias.scope !8845, !nonnull !8, !noundef !8
  %1 = sub nuw nsw i64 -32, %i.aa
  %i.ai = getelementptr inbounds i8, ptr %i.ah, i64 %1
  tail call void @_RNvCs8mYq7K4qqSA_7___rustc14___rust_dealloc(ptr noundef nonnull %i.ai, i64 noundef %i.ad, i64 noundef range(i64 1, -9223372036854775807) 16) #39, !noalias !8845
  br label %_RINvMsa_NtCs3gpiEk3WpjL_9hashbrown3rawNtB6_13RawTableInner16drop_inner_tableTNtNtCs6Po7BT7Nknu_5alloc6string6StringINtNtB1h_4sync3ArcNtNtCs8VI8w5SIoU4_15datafusion_expr4udaf12AggregateUDFEENtNtB1h_5alloc6GlobalECs2VbMhdeEr66_16delta_benchmarks.exit
end_hunk_22
begin_hunk_23_@_RNvXsg_NtCs3gpiEk3WpjL_9hashbrown3rawINtB5_8RawTableTNtNtCs6Po7BT7Nknu_5alloc6string6StringINtNtBT_4sync3ArcNtNtCs8VI8w5SIoU4_15datafusion_expr4udwf9WindowUDFEEENtNtNtCsbvkFyIu7lgC_4core3ops4drop4Drop4dropCs2VbMhdeEr66_16delta_benchmarks:bb.a

bb.e:                                             ; preds = %_RINvMsa_NtCs3gpiEk3WpjL_9hashbrown3rawNtB6_13RawTableInner13drop_elementsTNtNtCs6Po7BT7Nknu_5alloc6string6StringINtNtB1e_4sync3ArcNtNtCs8VI8w5SIoU4_15datafusion_expr4udwf9WindowUDFEEECs2VbMhdeEr66_16delta_benchmarks.exit.i
  %i.ah = load ptr, ptr %0, align 8, !alias.scope !8862, !nonnull !8, !noundef !8
  %1 = sub nuw nsw i64 -32, %i.aa
  %i.ai = getelementptr inbounds i8, ptr %i.ah, i64 %1
  tail call void @_RNvCs8mYq7K4qqSA_7___rustc14___rust_dealloc(ptr noundef nonnull %i.ai, i64 noundef %i.ad, i64 noundef range(i64 1, -9223372036854775807) 16) #39, !noalias !8862
  br label %_RINvMsa_NtCs3gpiEk3WpjL_9hashbrown3rawNtB6_13RawTableInner16drop_inner_tableTNtNtCs6Po7BT7Nknu_5alloc6string6StringINtNtB1h_4sync3ArcNtNtCs8VI8w5SIoU4_15datafusion_expr4udwf9WindowUDFEENtNtB1h_5alloc6GlobalECs2VbMhdeEr66_16delta_benchmarks.exit
end_hunk_23
begin_hunk_24_@_RNvXsg_NtCs3gpiEk3WpjL_9hashbrown3rawINtB5_8RawTableTNtNtCs6Po7BT7Nknu_5alloc6string6StringINtNtBT_4sync3ArcNtNtCsanCXJAiNsO_18datafusion_catalog5table13TableFunctionEEENtNtNtCsbvkFyIu7lgC_4core3ops4drop4Drop4dropCs2VbMhdeEr66_16delta_benchmarks:bb.a

bb.e:                                             ; preds = %_RINvMsa_NtCs3gpiEk3WpjL_9hashbrown3rawNtB6_13RawTableInner13drop_elementsTNtNtCs6Po7BT7Nknu_5alloc6string6StringINtNtB1e_4sync3ArcNtNtCsanCXJAiNsO_18datafusion_catalog5table13TableFunctionEEECs2VbMhdeEr66_16delta_benchmarks.exit.i
  %i.ah = load ptr, ptr %0, align 8, !alias.scope !8879, !nonnull !8, !noundef !8
  %1 = sub nuw nsw i64 -32, %i.aa
  %i.ai = getelementptr inbounds i8, ptr %i.ah, i64 %1
  tail call void @_RNvCs8mYq7K4qqSA_7___rustc14___rust_dealloc(ptr noundef nonnull %i.ai, i64 noundef %i.ad, i64 noundef range(i64 1, -9223372036854775807) 16) #39, !noalias !8879
  br label %_RINvMsa_NtCs3gpiEk3WpjL_9hashbrown3rawNtB6_13RawTableInner16drop_inner_tableTNtNtCs6Po7BT7Nknu_5alloc6string6StringINtNtB1h_4sync3ArcNtNtCsanCXJAiNsO_18datafusion_catalog5table13TableFunctionEENtNtB1h_5alloc6GlobalECs2VbMhdeEr66_16delta_benchmarks.exit
end_hunk_24
begin_hunk_25_@_RNvXsg_NtCs3gpiEk3WpjL_9hashbrown3rawINtB5_8RawTableTNtNtCs6Po7BT7Nknu_5alloc6string6StringINtNtBT_4sync3ArcNtNtNtCs8Hz2sPNgbCO_10datafusion9execution13session_state12PreparedPlanEEENtNtNtCsbvkFyIu7lgC_4core3ops4drop4Drop4dropCs2VbMhdeEr66_16delta_benchmarks:bb.a

bb.e:                                             ; preds = %_RINvMsa_NtCs3gpiEk3WpjL_9hashbrown3rawNtB6_13RawTableInner13drop_elementsTNtNtCs6Po7BT7Nknu_5alloc6string6StringINtNtB1e_4sync3ArcNtNtNtCs8Hz2sPNgbCO_10datafusion9execution13session_state12PreparedPlanEEECs2VbMhdeEr66_16delta_benchmarks.exit.i
  %i.ah = load ptr, ptr %0, align 8, !alias.scope !8896, !nonnull !8, !noundef !8
  %1 = sub nuw nsw i64 -32, %i.aa
  %i.ai = getelementptr inbounds i8, ptr %i.ah, i64 %1
  tail call void @_RNvCs8mYq7K4qqSA_7___rustc14___rust_dealloc(ptr noundef nonnull %i.ai, i64 noundef %i.ad, i64 noundef range(i64 1, -9223372036854775807) 16) #39, !noalias !8896
  br label %_RINvMsa_NtCs3gpiEk3WpjL_9hashbrown3rawNtB6_13RawTableInner16drop_inner_tableTNtNtCs6Po7BT7Nknu_5alloc6string6StringINtNtB1h_4sync3ArcNtNtNtCs8Hz2sPNgbCO_10datafusion9execution13session_state12PreparedPlanEENtNtB1h_5alloc6GlobalECs2VbMhdeEr66_16delta_benchmarks.exit
end_hunk_25
begin_hunk_26_@_RNvXsg_NtCs3gpiEk3WpjL_9hashbrown3rawINtB5_8RawTableTNtNtCs6Po7BT7Nknu_5alloc6string6StringINtNtBT_4sync3ArcNtNtNtCs8VI8w5SIoU4_15datafusion_expr12logical_plan4plan11LogicalPlanEEENtNtNtCsbvkFyIu7lgC_4core3ops4drop4Drop4dropCs2VbMhdeEr66_16delta_benchmarks:bb.a

bb.e:                                             ; preds = %_RINvMsa_NtCs3gpiEk3WpjL_9hashbrown3rawNtB6_13RawTableInner13drop_elementsTNtNtCs6Po7BT7Nknu_5alloc6string6StringINtNtB1e_4sync3ArcNtNtNtCs8VI8w5SIoU4_15datafusion_expr12logical_plan4plan11LogicalPlanEEECs2VbMhdeEr66_16delta_benchmarks.exit.i
  %i.ah = load ptr, ptr %0, align 8, !alias.scope !8913, !nonnull !8, !noundef !8
  %1 = sub nuw nsw i64 -32, %i.aa
  %i.ai = getelementptr inbounds i8, ptr %i.ah, i64 %1
  tail call void @_RNvCs8mYq7K4qqSA_7___rustc14___rust_dealloc(ptr noundef nonnull %i.ai, i64 noundef %i.ad, i64 noundef range(i64 1, -9223372036854775807) 16) #39, !noalias !8913
  br label %_RINvMsa_NtCs3gpiEk3WpjL_9hashbrown3rawNtB6_13RawTableInner16drop_inner_tableTNtNtCs6Po7BT7Nknu_5alloc6string6StringINtNtB1h_4sync3ArcNtNtNtCs8VI8w5SIoU4_15datafusion_expr12logical_plan4plan11LogicalPlanEENtNtB1h_5alloc6GlobalECs2VbMhdeEr66_16delta_benchmarks.exit
end_hunk_26
begin_hunk_27_@_RNvXsg_NtCs3gpiEk3WpjL_9hashbrown3rawINtB5_8RawTableTNtNtCs6Po7BT7Nknu_5alloc6string6StringINtNtCsbvkFyIu7lgC_4core6option6OptionINtNtBT_4sync3ArcNtNtCsfYVtenZkBsn_12arrow_schema5field5FieldEEEENtNtNtB1w_3ops4drop4Drop4dropCs2VbMhdeEr66_16delta_benchmarks:bb.a

bb.m:                                             ; preds = %_RINvMsa_NtCs3gpiEk3WpjL_9hashbrown3rawNtB6_13RawTableInner13drop_elementsTNtNtCs6Po7BT7Nknu_5alloc6string6StringINtNtCsbvkFyIu7lgC_4core6option6OptionINtNtB1e_4sync3ArcNtNtCsfYVtenZkBsn_12arrow_schema5field5FieldEEEECs2VbMhdeEr66_16delta_benchmarks.exit.i
  %i.av = load ptr, ptr %0, align 8, !alias.scope !8947, !nonnull !8, !noundef !8
  %1 = sub nuw nsw i64 -32, %i.ao
  %i.aw = getelementptr inbounds i8, ptr %i.av, i64 %1
  tail call void @_RNvCs8mYq7K4qqSA_7___rustc14___rust_dealloc(ptr noundef nonnull %i.aw, i64 noundef %i.ar, i64 noundef range(i64 1, -9223372036854775807) 16) #39, !noalias !8947
  br label %_RINvMsa_NtCs3gpiEk3WpjL_9hashbrown3rawNtB6_13RawTableInner16drop_inner_tableTNtNtCs6Po7BT7Nknu_5alloc6string6StringINtNtCsbvkFyIu7lgC_4core6option6OptionINtNtB1h_4sync3ArcNtNtCsfYVtenZkBsn_12arrow_schema5field5FieldEEENtNtB1h_5alloc6GlobalECs2VbMhdeEr66_16delta_benchmarks.exit
end_hunk_27
begin_hunk_28_@_RNvXsg_NtCs3gpiEk3WpjL_9hashbrown3rawINtB5_8RawTableTNtNtCs8ulvy0Wg6Ot_12delta_kernel6schema18MetadataColumnSpecjEENtNtNtCsbvkFyIu7lgC_4core3ops4drop4Drop4dropCs2VbMhdeEr66_16delta_benchmarks:bb.a
  br i1 %i.i, label %_RINvMsa_NtCs3gpiEk3WpjL_9hashbrown3rawNtB6_13RawTableInner16drop_inner_tableTNtNtCs8ulvy0Wg6Ot_12delta_kernel6schema18MetadataColumnSpecjENtNtCs6Po7BT7Nknu_5alloc5alloc6GlobalECs2VbMhdeEr66_16delta_benchmarks.exit, label %bb.b

bb.b:                                             ; preds = %_RNvMs1_NtCs3gpiEk3WpjL_9hashbrown3rawNtB5_11TableLayout20calculate_layout_for.exit.i
  %1 = sub nuw nsw i64 -16, %i.c
  %i.j = getelementptr inbounds i8, ptr %.val, i64 %1
  tail call void @_RNvCs8mYq7K4qqSA_7___rustc14___rust_dealloc(ptr noundef nonnull %i.j, i64 noundef %i.f, i64 noundef range(i64 1, -9223372036854775807) 16) #39
  br label %_RINvMsa_NtCs3gpiEk3WpjL_9hashbrown3rawNtB6_13RawTableInner16drop_inner_tableTNtNtCs8ulvy0Wg6Ot_12delta_kernel6schema18MetadataColumnSpecjENtNtCs6Po7BT7Nknu_5alloc5alloc6GlobalECs2VbMhdeEr66_16delta_benchmarks.exit
end_hunk_28
begin_hunk_29_@_RNvXsg_NtCs3gpiEk3WpjL_9hashbrown3rawINtB5_8RawTableTNtNtCsbvkFyIu7lgC_4core3any6TypeIdINtNtCs6Po7BT7Nknu_5alloc4sync3ArcDNtBR_3AnyNtNtBT_6marker4SyncNtB27_4SendEL_EEENtNtNtBT_3ops4drop4Drop4dropCs2VbMhdeEr66_16delta_benchmarks:bb.a

bb.f:                                             ; preds = %_RINvMsa_NtCs3gpiEk3WpjL_9hashbrown3rawNtB6_13RawTableInner13drop_elementsTNtNtCsbvkFyIu7lgC_4core3any6TypeIdINtNtCs6Po7BT7Nknu_5alloc4sync3ArcDNtB1c_3AnyNtNtB1e_6marker4SyncNtB2t_4SendEL_EEECs2VbMhdeEr66_16delta_benchmarks.exit.i
  %i.ak = load ptr, ptr %0, align 8, !alias.scope !9154, !nonnull !8, !noundef !8
  %1 = sub nuw nsw i64 -32, %i.ad
  %i.al = getelementptr inbounds i8, ptr %i.ak, i64 %1
  tail call void @_RNvCs8mYq7K4qqSA_7___rustc14___rust_dealloc(ptr noundef nonnull %i.al, i64 noundef %i.ag, i64 noundef range(i64 1, -9223372036854775807) 16) #39, !noalias !9154
  br label %_RINvMsa_NtCs3gpiEk3WpjL_9hashbrown3rawNtB6_13RawTableInner16drop_inner_tableTNtNtCsbvkFyIu7lgC_4core3any6TypeIdINtNtCs6Po7BT7Nknu_5alloc4sync3ArcDNtB1f_3AnyNtNtB1h_6marker4SyncNtB2w_4SendEL_EENtNtB1Q_5alloc6GlobalECs2VbMhdeEr66_16delta_benchmarks.exit
end_hunk_29
begin_hunk_30_@_RNvXsg_NtCs3gpiEk3WpjL_9hashbrown3rawINtB5_8RawTableTNtNtCsjhHCjzi9uUI_17datafusion_common15table_reference22ResolvedTableReferenceINtNtCs6Po7BT7Nknu_5alloc4sync3ArcDNtNtCs8VI8w5SIoU4_15datafusion_expr12table_source11TableSourceEL_EEENtNtNtCsbvkFyIu7lgC_4core3ops4drop4Drop4dropCs2VbMhdeEr66_16delta_benchmarks:bb.a

bb.j:                                             ; preds = %_RINvMsa_NtCs3gpiEk3WpjL_9hashbrown3rawNtB6_13RawTableInner13drop_elementsTNtNtCsjhHCjzi9uUI_17datafusion_common15table_reference22ResolvedTableReferenceINtNtCs6Po7BT7Nknu_5alloc4sync3ArcDNtNtCs8VI8w5SIoU4_15datafusion_expr12table_source11TableSourceEL_EEECs2VbMhdeEr66_16delta_benchmarks.exit.i
  %i.ar = load ptr, ptr %0, align 8, !alias.scope !9182, !nonnull !8, !noundef !8
  %1 = sub nuw nsw i64 -64, %i.ak
  %i.as = getelementptr inbounds i8, ptr %i.ar, i64 %1
  tail call void @_RNvCs8mYq7K4qqSA_7___rustc14___rust_dealloc(ptr noundef nonnull %i.as, i64 noundef %i.an, i64 noundef range(i64 1, -9223372036854775807) 16) #39, !noalias !9182
  br label %_RINvMsa_NtCs3gpiEk3WpjL_9hashbrown3rawNtB6_13RawTableInner16drop_inner_tableTNtNtCsjhHCjzi9uUI_17datafusion_common15table_reference22ResolvedTableReferenceINtNtCs6Po7BT7Nknu_5alloc4sync3ArcDNtNtCs8VI8w5SIoU4_15datafusion_expr12table_source11TableSourceEL_EENtNtB2y_5alloc6GlobalECs2VbMhdeEr66_16delta_benchmarks.exit
end_hunk_30
begin_hunk_31_@_RNvXsg_NtCs3gpiEk3WpjL_9hashbrown3rawINtB5_8RawTableTRNtNtCs6Po7BT7Nknu_5alloc6string6StringuEENtNtNtCsbvkFyIu7lgC_4core3ops4drop4Drop4dropCs2VbMhdeEr66_16delta_benchmarks:bb.a
  br i1 %i.k, label %_RINvMsa_NtCs3gpiEk3WpjL_9hashbrown3rawNtB6_13RawTableInner16drop_inner_tableTRNtNtCs6Po7BT7Nknu_5alloc6string6StringuENtNtB1i_5alloc6GlobalECs2VbMhdeEr66_16delta_benchmarks.exit, label %bb.b

bb.b:                                             ; preds = %_RNvMs1_NtCs3gpiEk3WpjL_9hashbrown3rawNtB5_11TableLayout20calculate_layout_for.exit.i
  %1 = sub nuw nsw i64 -16, %i.e
  %i.l = getelementptr inbounds i8, ptr %.val, i64 %1
  tail call void @_RNvCs8mYq7K4qqSA_7___rustc14___rust_dealloc(ptr noundef nonnull %i.l, i64 noundef %i.h, i64 noundef range(i64 1, -9223372036854775807) 16) #39
  br label %_RINvMsa_NtCs3gpiEk3WpjL_9hashbrown3rawNtB6_13RawTableInner16drop_inner_tableTRNtNtCs6Po7BT7Nknu_5alloc6string6StringuENtNtB1i_5alloc6GlobalECs2VbMhdeEr66_16delta_benchmarks.exit
end_hunk_31
begin_hunk_32_@_RNvXsg_NtCs3gpiEk3WpjL_9hashbrown3rawINtB5_8RawTableTRNtNtCsjhHCjzi9uUI_17datafusion_common6column6ColumnuEENtNtNtCsbvkFyIu7lgC_4core3ops4drop4Drop4dropCs2VbMhdeEr66_16delta_benchmarks:bb.a
  br i1 %i.k, label %_RINvMsa_NtCs3gpiEk3WpjL_9hashbrown3rawNtB6_13RawTableInner16drop_inner_tableTRNtNtCsjhHCjzi9uUI_17datafusion_common6column6ColumnuENtNtCs6Po7BT7Nknu_5alloc5alloc6GlobalECs2VbMhdeEr66_16delta_benchmarks.exit, label %bb.b

bb.b:                                             ; preds = %_RNvMs1_NtCs3gpiEk3WpjL_9hashbrown3rawNtB5_11TableLayout20calculate_layout_for.exit.i
  %1 = sub nuw nsw i64 -16, %i.e
  %i.l = getelementptr inbounds i8, ptr %.val, i64 %1
  tail call void @_RNvCs8mYq7K4qqSA_7___rustc14___rust_dealloc(ptr noundef nonnull %i.l, i64 noundef %i.h, i64 noundef range(i64 1, -9223372036854775807) 16) #39
  br label %_RINvMsa_NtCs3gpiEk3WpjL_9hashbrown3rawNtB6_13RawTableInner16drop_inner_tableTRNtNtCsjhHCjzi9uUI_17datafusion_common6column6ColumnuENtNtCs6Po7BT7Nknu_5alloc5alloc6GlobalECs2VbMhdeEr66_16delta_benchmarks.exit
end_hunk_32
