inline.NumInlined: 2950
inline.NumDeleted: 1029
begin_hunk_0_@_RINvNtCsbvkFyIu7lgC_4core3ptr13drop_in_placeINtNtCs3gpiEk3WpjL_9hashbrown3raw8RawTableTNtNtCs6Po7BT7Nknu_5alloc6string6StringINtNtB1r_4sync3ArcNtNtCs8VI8w5SIoU4_15datafusion_expr3udf9ScalarUDFEEEECsdJxlLsGgtXr_16delta_benchmarks:bb.a

bb.e:                                             ; preds = %_RINvMsa_NtCs3gpiEk3WpjL_9hashbrown3rawNtB6_13RawTableInner13drop_elementsTNtNtCs6Po7BT7Nknu_5alloc6string6StringINtNtB1e_4sync3ArcNtNtCs8VI8w5SIoU4_15datafusion_expr3udf9ScalarUDFEEECsdJxlLsGgtXr_16delta_benchmarks.exit.i.i
  %i.ah = load ptr, ptr %0, align 8, !alias.scope !428, !nonnull !3, !noundef !3
  %1 = xor i64 %i.aa, -32
  %i.ai = getelementptr inbounds i8, ptr %i.ah, i64 %1
  tail call void @_RNvCs8mYq7K4qqSA_7___rustc14___rust_dealloc(ptr noundef nonnull %i.ai, i64 noundef %i.ad, i64 noundef range(i64 1, -9223372036854775807) 16) #41, !noalias !428
  br label %_RNvXsg_NtCs3gpiEk3WpjL_9hashbrown3rawINtB5_8RawTableTNtNtCs6Po7BT7Nknu_5alloc6string6StringINtNtBT_4sync3ArcNtNtCs8VI8w5SIoU4_15datafusion_expr3udf9ScalarUDFEEENtNtNtCsbvkFyIu7lgC_4core3ops4drop4Drop4dropCsdJxlLsGgtXr_16delta_benchmarks.exit
end_hunk_0
begin_hunk_1_@_RINvNtCsbvkFyIu7lgC_4core3ptr13drop_in_placeINtNtCs3gpiEk3WpjL_9hashbrown3raw8RawTableTNtNtCs6Po7BT7Nknu_5alloc6string6StringINtNtB1r_4sync3ArcNtNtCs8VI8w5SIoU4_15datafusion_expr4udaf12AggregateUDFEEEECsdJxlLsGgtXr_16delta_benchmarks:bb.a

bb.e:                                             ; preds = %_RINvMsa_NtCs3gpiEk3WpjL_9hashbrown3rawNtB6_13RawTableInner13drop_elementsTNtNtCs6Po7BT7Nknu_5alloc6string6StringINtNtB1e_4sync3ArcNtNtCs8VI8w5SIoU4_15datafusion_expr4udaf12AggregateUDFEEECsdJxlLsGgtXr_16delta_benchmarks.exit.i.i
  %i.ah = load ptr, ptr %0, align 8, !alias.scope !449, !nonnull !3, !noundef !3
  %1 = xor i64 %i.aa, -32
  %i.ai = getelementptr inbounds i8, ptr %i.ah, i64 %1
  tail call void @_RNvCs8mYq7K4qqSA_7___rustc14___rust_dealloc(ptr noundef nonnull %i.ai, i64 noundef %i.ad, i64 noundef range(i64 1, -9223372036854775807) 16) #41, !noalias !449
  br label %_RNvXsg_NtCs3gpiEk3WpjL_9hashbrown3rawINtB5_8RawTableTNtNtCs6Po7BT7Nknu_5alloc6string6StringINtNtBT_4sync3ArcNtNtCs8VI8w5SIoU4_15datafusion_expr4udaf12AggregateUDFEEENtNtNtCsbvkFyIu7lgC_4core3ops4drop4Drop4dropCsdJxlLsGgtXr_16delta_benchmarks.exit
end_hunk_1
begin_hunk_2_@_RINvNtCsbvkFyIu7lgC_4core3ptr13drop_in_placeINtNtCs3gpiEk3WpjL_9hashbrown3raw8RawTableTNtNtCs6Po7BT7Nknu_5alloc6string6StringINtNtB1r_4sync3ArcNtNtCs8VI8w5SIoU4_15datafusion_expr4udwf9WindowUDFEEEECsdJxlLsGgtXr_16delta_benchmarks:bb.a

bb.e:                                             ; preds = %_RINvMsa_NtCs3gpiEk3WpjL_9hashbrown3rawNtB6_13RawTableInner13drop_elementsTNtNtCs6Po7BT7Nknu_5alloc6string6StringINtNtB1e_4sync3ArcNtNtCs8VI8w5SIoU4_15datafusion_expr4udwf9WindowUDFEEECsdJxlLsGgtXr_16delta_benchmarks.exit.i.i
  %i.ah = load ptr, ptr %0, align 8, !alias.scope !470, !nonnull !3, !noundef !3
  %1 = xor i64 %i.aa, -32
  %i.ai = getelementptr inbounds i8, ptr %i.ah, i64 %1
  tail call void @_RNvCs8mYq7K4qqSA_7___rustc14___rust_dealloc(ptr noundef nonnull %i.ai, i64 noundef %i.ad, i64 noundef range(i64 1, -9223372036854775807) 16) #41, !noalias !470
  br label %_RNvXsg_NtCs3gpiEk3WpjL_9hashbrown3rawINtB5_8RawTableTNtNtCs6Po7BT7Nknu_5alloc6string6StringINtNtBT_4sync3ArcNtNtCs8VI8w5SIoU4_15datafusion_expr4udwf9WindowUDFEEENtNtNtCsbvkFyIu7lgC_4core3ops4drop4Drop4dropCsdJxlLsGgtXr_16delta_benchmarks.exit
end_hunk_2
begin_hunk_3_@_RINvNtCsbvkFyIu7lgC_4core3ptr13drop_in_placeINtNtCs3gpiEk3WpjL_9hashbrown3raw8RawTableTNtNtCs6Po7BT7Nknu_5alloc6string6StringINtNtB1r_4sync3ArcNtNtCsanCXJAiNsO_18datafusion_catalog5table13TableFunctionEEEECsdJxlLsGgtXr_16delta_benchmarks:bb.a

bb.e:                                             ; preds = %_RINvMsa_NtCs3gpiEk3WpjL_9hashbrown3rawNtB6_13RawTableInner13drop_elementsTNtNtCs6Po7BT7Nknu_5alloc6string6StringINtNtB1e_4sync3ArcNtNtCsanCXJAiNsO_18datafusion_catalog5table13TableFunctionEEECsdJxlLsGgtXr_16delta_benchmarks.exit.i.i
  %i.ah = load ptr, ptr %0, align 8, !alias.scope !491, !nonnull !3, !noundef !3
  %1 = xor i64 %i.aa, -32
  %i.ai = getelementptr inbounds i8, ptr %i.ah, i64 %1
  tail call void @_RNvCs8mYq7K4qqSA_7___rustc14___rust_dealloc(ptr noundef nonnull %i.ai, i64 noundef %i.ad, i64 noundef range(i64 1, -9223372036854775807) 16) #41, !noalias !491
  br label %_RNvXsg_NtCs3gpiEk3WpjL_9hashbrown3rawINtB5_8RawTableTNtNtCs6Po7BT7Nknu_5alloc6string6StringINtNtBT_4sync3ArcNtNtCsanCXJAiNsO_18datafusion_catalog5table13TableFunctionEEENtNtNtCsbvkFyIu7lgC_4core3ops4drop4Drop4dropCsdJxlLsGgtXr_16delta_benchmarks.exit
end_hunk_3
begin_hunk_4_@_RINvNtCsbvkFyIu7lgC_4core3ptr13drop_in_placeINtNtCs3gpiEk3WpjL_9hashbrown3raw8RawTableTNtNtCs6Po7BT7Nknu_5alloc6string6StringINtNtB1r_4sync3ArcNtNtNtCs8Hz2sPNgbCO_10datafusion9execution13session_state12PreparedPlanEEEECsdJxlLsGgtXr_16delta_benchmarks:bb.a

bb.e:                                             ; preds = %_RINvMsa_NtCs3gpiEk3WpjL_9hashbrown3rawNtB6_13RawTableInner13drop_elementsTNtNtCs6Po7BT7Nknu_5alloc6string6StringINtNtB1e_4sync3ArcNtNtNtCs8Hz2sPNgbCO_10datafusion9execution13session_state12PreparedPlanEEECsdJxlLsGgtXr_16delta_benchmarks.exit.i.i
  %i.ah = load ptr, ptr %0, align 8, !alias.scope !512, !nonnull !3, !noundef !3
  %1 = xor i64 %i.aa, -32
  %i.ai = getelementptr inbounds i8, ptr %i.ah, i64 %1
  tail call void @_RNvCs8mYq7K4qqSA_7___rustc14___rust_dealloc(ptr noundef nonnull %i.ai, i64 noundef %i.ad, i64 noundef range(i64 1, -9223372036854775807) 16) #41, !noalias !512
  br label %_RNvXsg_NtCs3gpiEk3WpjL_9hashbrown3rawINtB5_8RawTableTNtNtCs6Po7BT7Nknu_5alloc6string6StringINtNtBT_4sync3ArcNtNtNtCs8Hz2sPNgbCO_10datafusion9execution13session_state12PreparedPlanEEENtNtNtCsbvkFyIu7lgC_4core3ops4drop4Drop4dropCsdJxlLsGgtXr_16delta_benchmarks.exit
end_hunk_4
begin_hunk_5_@_RINvNtCsbvkFyIu7lgC_4core3ptr13drop_in_placeINtNtCs3gpiEk3WpjL_9hashbrown3raw8RawTableTNtNtCs6Po7BT7Nknu_5alloc6string6StringINtNtB1r_4sync3ArcNtNtNtCs8VI8w5SIoU4_15datafusion_expr12logical_plan4plan11LogicalPlanEEEECsdJxlLsGgtXr_16delta_benchmarks:bb.a

bb.e:                                             ; preds = %_RINvMsa_NtCs3gpiEk3WpjL_9hashbrown3rawNtB6_13RawTableInner13drop_elementsTNtNtCs6Po7BT7Nknu_5alloc6string6StringINtNtB1e_4sync3ArcNtNtNtCs8VI8w5SIoU4_15datafusion_expr12logical_plan4plan11LogicalPlanEEECsdJxlLsGgtXr_16delta_benchmarks.exit.i.i
  %i.ah = load ptr, ptr %0, align 8, !alias.scope !533, !nonnull !3, !noundef !3
  %1 = xor i64 %i.aa, -32
  %i.ai = getelementptr inbounds i8, ptr %i.ah, i64 %1
  tail call void @_RNvCs8mYq7K4qqSA_7___rustc14___rust_dealloc(ptr noundef nonnull %i.ai, i64 noundef %i.ad, i64 noundef range(i64 1, -9223372036854775807) 16) #41, !noalias !533
  br label %_RNvXsg_NtCs3gpiEk3WpjL_9hashbrown3rawINtB5_8RawTableTNtNtCs6Po7BT7Nknu_5alloc6string6StringINtNtBT_4sync3ArcNtNtNtCs8VI8w5SIoU4_15datafusion_expr12logical_plan4plan11LogicalPlanEEENtNtNtCsbvkFyIu7lgC_4core3ops4drop4Drop4dropCsdJxlLsGgtXr_16delta_benchmarks.exit
end_hunk_5
begin_hunk_6_@_RINvNtCsbvkFyIu7lgC_4core3ptr13drop_in_placeINtNtNtNtCs2pqxYH9ZEk8_3std11collections4hash3map7HashMapReB1B_EECsdJxlLsGgtXr_16delta_benchmarks:bb.a
  br i1 %i.h, label %_RINvNtCsbvkFyIu7lgC_4core3ptr13drop_in_placeINtNtCs3gpiEk3WpjL_9hashbrown3map7HashMapReB1l_NtNtNtCs2pqxYH9ZEk8_3std4hash6random11RandomStateEECsdJxlLsGgtXr_16delta_benchmarks.exit, label %bb.b

bb.b:                                             ; preds = %_RNvMs1_NtCs3gpiEk3WpjL_9hashbrown3rawNtB5_11TableLayout20calculate_layout_for.exit.i.i.i.i
  %0 = xor i64 %i.b, -32
  %i.i = getelementptr inbounds i8, ptr %.0.val, i64 %0
  tail call void @_RNvCs8mYq7K4qqSA_7___rustc14___rust_dealloc(ptr noundef nonnull %i.i, i64 noundef %i.e, i64 noundef range(i64 1, -9223372036854775807) 16) #41
  br label %_RINvNtCsbvkFyIu7lgC_4core3ptr13drop_in_placeINtNtCs3gpiEk3WpjL_9hashbrown3map7HashMapReB1l_NtNtNtCs2pqxYH9ZEk8_3std4hash6random11RandomStateEECsdJxlLsGgtXr_16delta_benchmarks.exit
end_hunk_6
begin_hunk_7_@_RNvXsg_NtCs3gpiEk3WpjL_9hashbrown3rawINtB5_8RawTableTNtNtCs6Po7BT7Nknu_5alloc6string6StringINtNtBT_4sync3ArcNtNtCs8VI8w5SIoU4_15datafusion_expr3udf9ScalarUDFEEENtNtNtCsbvkFyIu7lgC_4core3ops4drop4Drop4dropCsdJxlLsGgtXr_16delta_benchmarks:bb.a

bb.e:                                             ; preds = %_RINvMsa_NtCs3gpiEk3WpjL_9hashbrown3rawNtB6_13RawTableInner13drop_elementsTNtNtCs6Po7BT7Nknu_5alloc6string6StringINtNtB1e_4sync3ArcNtNtCs8VI8w5SIoU4_15datafusion_expr3udf9ScalarUDFEEECsdJxlLsGgtXr_16delta_benchmarks.exit.i
  %i.ah = load ptr, ptr %0, align 8, !alias.scope !6292, !nonnull !3, !noundef !3
  %1 = xor i64 %i.aa, -32
  %i.ai = getelementptr inbounds i8, ptr %i.ah, i64 %1
  tail call void @_RNvCs8mYq7K4qqSA_7___rustc14___rust_dealloc(ptr noundef nonnull %i.ai, i64 noundef %i.ad, i64 noundef range(i64 1, -9223372036854775807) 16) #41, !noalias !6292
  br label %_RINvMsa_NtCs3gpiEk3WpjL_9hashbrown3rawNtB6_13RawTableInner16drop_inner_tableTNtNtCs6Po7BT7Nknu_5alloc6string6StringINtNtB1h_4sync3ArcNtNtCs8VI8w5SIoU4_15datafusion_expr3udf9ScalarUDFEENtNtB1h_5alloc6GlobalECsdJxlLsGgtXr_16delta_benchmarks.exit
end_hunk_7
begin_hunk_8_@_RNvXsg_NtCs3gpiEk3WpjL_9hashbrown3rawINtB5_8RawTableTNtNtCs6Po7BT7Nknu_5alloc6string6StringINtNtBT_4sync3ArcNtNtCs8VI8w5SIoU4_15datafusion_expr4udaf12AggregateUDFEEENtNtNtCsbvkFyIu7lgC_4core3ops4drop4Drop4dropCsdJxlLsGgtXr_16delta_benchmarks:bb.a

bb.e:                                             ; preds = %_RINvMsa_NtCs3gpiEk3WpjL_9hashbrown3rawNtB6_13RawTableInner13drop_elementsTNtNtCs6Po7BT7Nknu_5alloc6string6StringINtNtB1e_4sync3ArcNtNtCs8VI8w5SIoU4_15datafusion_expr4udaf12AggregateUDFEEECsdJxlLsGgtXr_16delta_benchmarks.exit.i
  %i.ah = load ptr, ptr %0, align 8, !alias.scope !6309, !nonnull !3, !noundef !3
  %1 = xor i64 %i.aa, -32
  %i.ai = getelementptr inbounds i8, ptr %i.ah, i64 %1
  tail call void @_RNvCs8mYq7K4qqSA_7___rustc14___rust_dealloc(ptr noundef nonnull %i.ai, i64 noundef %i.ad, i64 noundef range(i64 1, -9223372036854775807) 16) #41, !noalias !6309
  br label %_RINvMsa_NtCs3gpiEk3WpjL_9hashbrown3rawNtB6_13RawTableInner16drop_inner_tableTNtNtCs6Po7BT7Nknu_5alloc6string6StringINtNtB1h_4sync3ArcNtNtCs8VI8w5SIoU4_15datafusion_expr4udaf12AggregateUDFEENtNtB1h_5alloc6GlobalECsdJxlLsGgtXr_16delta_benchmarks.exit
end_hunk_8
begin_hunk_9_@_RNvXsg_NtCs3gpiEk3WpjL_9hashbrown3rawINtB5_8RawTableTNtNtCs6Po7BT7Nknu_5alloc6string6StringINtNtBT_4sync3ArcNtNtCs8VI8w5SIoU4_15datafusion_expr4udwf9WindowUDFEEENtNtNtCsbvkFyIu7lgC_4core3ops4drop4Drop4dropCsdJxlLsGgtXr_16delta_benchmarks:bb.a

bb.e:                                             ; preds = %_RINvMsa_NtCs3gpiEk3WpjL_9hashbrown3rawNtB6_13RawTableInner13drop_elementsTNtNtCs6Po7BT7Nknu_5alloc6string6StringINtNtB1e_4sync3ArcNtNtCs8VI8w5SIoU4_15datafusion_expr4udwf9WindowUDFEEECsdJxlLsGgtXr_16delta_benchmarks.exit.i
  %i.ah = load ptr, ptr %0, align 8, !alias.scope !6326, !nonnull !3, !noundef !3
  %1 = xor i64 %i.aa, -32
  %i.ai = getelementptr inbounds i8, ptr %i.ah, i64 %1
  tail call void @_RNvCs8mYq7K4qqSA_7___rustc14___rust_dealloc(ptr noundef nonnull %i.ai, i64 noundef %i.ad, i64 noundef range(i64 1, -9223372036854775807) 16) #41, !noalias !6326
  br label %_RINvMsa_NtCs3gpiEk3WpjL_9hashbrown3rawNtB6_13RawTableInner16drop_inner_tableTNtNtCs6Po7BT7Nknu_5alloc6string6StringINtNtB1h_4sync3ArcNtNtCs8VI8w5SIoU4_15datafusion_expr4udwf9WindowUDFEENtNtB1h_5alloc6GlobalECsdJxlLsGgtXr_16delta_benchmarks.exit
end_hunk_9
begin_hunk_10_@_RNvXsg_NtCs3gpiEk3WpjL_9hashbrown3rawINtB5_8RawTableTNtNtCs6Po7BT7Nknu_5alloc6string6StringINtNtBT_4sync3ArcNtNtCsanCXJAiNsO_18datafusion_catalog5table13TableFunctionEEENtNtNtCsbvkFyIu7lgC_4core3ops4drop4Drop4dropCsdJxlLsGgtXr_16delta_benchmarks:bb.a

bb.e:                                             ; preds = %_RINvMsa_NtCs3gpiEk3WpjL_9hashbrown3rawNtB6_13RawTableInner13drop_elementsTNtNtCs6Po7BT7Nknu_5alloc6string6StringINtNtB1e_4sync3ArcNtNtCsanCXJAiNsO_18datafusion_catalog5table13TableFunctionEEECsdJxlLsGgtXr_16delta_benchmarks.exit.i
  %i.ah = load ptr, ptr %0, align 8, !alias.scope !6343, !nonnull !3, !noundef !3
  %1 = xor i64 %i.aa, -32
  %i.ai = getelementptr inbounds i8, ptr %i.ah, i64 %1
  tail call void @_RNvCs8mYq7K4qqSA_7___rustc14___rust_dealloc(ptr noundef nonnull %i.ai, i64 noundef %i.ad, i64 noundef range(i64 1, -9223372036854775807) 16) #41, !noalias !6343
  br label %_RINvMsa_NtCs3gpiEk3WpjL_9hashbrown3rawNtB6_13RawTableInner16drop_inner_tableTNtNtCs6Po7BT7Nknu_5alloc6string6StringINtNtB1h_4sync3ArcNtNtCsanCXJAiNsO_18datafusion_catalog5table13TableFunctionEENtNtB1h_5alloc6GlobalECsdJxlLsGgtXr_16delta_benchmarks.exit
end_hunk_10
begin_hunk_11_@_RNvXsg_NtCs3gpiEk3WpjL_9hashbrown3rawINtB5_8RawTableTNtNtCs6Po7BT7Nknu_5alloc6string6StringINtNtBT_4sync3ArcNtNtNtCs8Hz2sPNgbCO_10datafusion9execution13session_state12PreparedPlanEEENtNtNtCsbvkFyIu7lgC_4core3ops4drop4Drop4dropCsdJxlLsGgtXr_16delta_benchmarks:bb.a

bb.e:                                             ; preds = %_RINvMsa_NtCs3gpiEk3WpjL_9hashbrown3rawNtB6_13RawTableInner13drop_elementsTNtNtCs6Po7BT7Nknu_5alloc6string6StringINtNtB1e_4sync3ArcNtNtNtCs8Hz2sPNgbCO_10datafusion9execution13session_state12PreparedPlanEEECsdJxlLsGgtXr_16delta_benchmarks.exit.i
  %i.ah = load ptr, ptr %0, align 8, !alias.scope !6360, !nonnull !3, !noundef !3
  %1 = xor i64 %i.aa, -32
  %i.ai = getelementptr inbounds i8, ptr %i.ah, i64 %1
  tail call void @_RNvCs8mYq7K4qqSA_7___rustc14___rust_dealloc(ptr noundef nonnull %i.ai, i64 noundef %i.ad, i64 noundef range(i64 1, -9223372036854775807) 16) #41, !noalias !6360
  br label %_RINvMsa_NtCs3gpiEk3WpjL_9hashbrown3rawNtB6_13RawTableInner16drop_inner_tableTNtNtCs6Po7BT7Nknu_5alloc6string6StringINtNtB1h_4sync3ArcNtNtNtCs8Hz2sPNgbCO_10datafusion9execution13session_state12PreparedPlanEENtNtB1h_5alloc6GlobalECsdJxlLsGgtXr_16delta_benchmarks.exit
end_hunk_11
begin_hunk_12_@_RNvXsg_NtCs3gpiEk3WpjL_9hashbrown3rawINtB5_8RawTableTNtNtCs6Po7BT7Nknu_5alloc6string6StringINtNtBT_4sync3ArcNtNtNtCs8VI8w5SIoU4_15datafusion_expr12logical_plan4plan11LogicalPlanEEENtNtNtCsbvkFyIu7lgC_4core3ops4drop4Drop4dropCsdJxlLsGgtXr_16delta_benchmarks:bb.a

bb.e:                                             ; preds = %_RINvMsa_NtCs3gpiEk3WpjL_9hashbrown3rawNtB6_13RawTableInner13drop_elementsTNtNtCs6Po7BT7Nknu_5alloc6string6StringINtNtB1e_4sync3ArcNtNtNtCs8VI8w5SIoU4_15datafusion_expr12logical_plan4plan11LogicalPlanEEECsdJxlLsGgtXr_16delta_benchmarks.exit.i
  %i.ah = load ptr, ptr %0, align 8, !alias.scope !6377, !nonnull !3, !noundef !3
  %1 = xor i64 %i.aa, -32
  %i.ai = getelementptr inbounds i8, ptr %i.ah, i64 %1
  tail call void @_RNvCs8mYq7K4qqSA_7___rustc14___rust_dealloc(ptr noundef nonnull %i.ai, i64 noundef %i.ad, i64 noundef range(i64 1, -9223372036854775807) 16) #41, !noalias !6377
  br label %_RINvMsa_NtCs3gpiEk3WpjL_9hashbrown3rawNtB6_13RawTableInner16drop_inner_tableTNtNtCs6Po7BT7Nknu_5alloc6string6StringINtNtB1h_4sync3ArcNtNtNtCs8VI8w5SIoU4_15datafusion_expr12logical_plan4plan11LogicalPlanEENtNtB1h_5alloc6GlobalECsdJxlLsGgtXr_16delta_benchmarks.exit
end_hunk_12
begin_hunk_13_@_RNvXsg_NtCs3gpiEk3WpjL_9hashbrown3rawINtB5_8RawTableTNtNtCs6Po7BT7Nknu_5alloc6string6StringINtNtCsbvkFyIu7lgC_4core6option6OptionINtNtBT_4sync3ArcNtNtCsfYVtenZkBsn_12arrow_schema5field5FieldEEEENtNtNtB1w_3ops4drop4Drop4dropCsdJxlLsGgtXr_16delta_benchmarks:bb.a

bb.m:                                             ; preds = %_RINvMsa_NtCs3gpiEk3WpjL_9hashbrown3rawNtB6_13RawTableInner13drop_elementsTNtNtCs6Po7BT7Nknu_5alloc6string6StringINtNtCsbvkFyIu7lgC_4core6option6OptionINtNtB1e_4sync3ArcNtNtCsfYVtenZkBsn_12arrow_schema5field5FieldEEEECsdJxlLsGgtXr_16delta_benchmarks.exit.i
  %i.av = load ptr, ptr %0, align 8, !alias.scope !6411, !nonnull !3, !noundef !3
  %1 = xor i64 %i.ao, -32
  %i.aw = getelementptr inbounds i8, ptr %i.av, i64 %1
  tail call void @_RNvCs8mYq7K4qqSA_7___rustc14___rust_dealloc(ptr noundef nonnull %i.aw, i64 noundef %i.ar, i64 noundef range(i64 1, -9223372036854775807) 16) #41, !noalias !6411
  br label %_RINvMsa_NtCs3gpiEk3WpjL_9hashbrown3rawNtB6_13RawTableInner16drop_inner_tableTNtNtCs6Po7BT7Nknu_5alloc6string6StringINtNtCsbvkFyIu7lgC_4core6option6OptionINtNtB1h_4sync3ArcNtNtCsfYVtenZkBsn_12arrow_schema5field5FieldEEENtNtB1h_5alloc6GlobalECsdJxlLsGgtXr_16delta_benchmarks.exit
end_hunk_13
begin_hunk_14_@_RNvXsg_NtCs3gpiEk3WpjL_9hashbrown3rawINtB5_8RawTableTNtNtCs8ulvy0Wg6Ot_12delta_kernel6schema18MetadataColumnSpecjEENtNtNtCsbvkFyIu7lgC_4core3ops4drop4Drop4dropCsdJxlLsGgtXr_16delta_benchmarks:bb.a
  br i1 %i.i, label %_RINvMsa_NtCs3gpiEk3WpjL_9hashbrown3rawNtB6_13RawTableInner16drop_inner_tableTNtNtCs8ulvy0Wg6Ot_12delta_kernel6schema18MetadataColumnSpecjENtNtCs6Po7BT7Nknu_5alloc5alloc6GlobalECsdJxlLsGgtXr_16delta_benchmarks.exit, label %bb.b

bb.b:                                             ; preds = %_RNvMs1_NtCs3gpiEk3WpjL_9hashbrown3rawNtB5_11TableLayout20calculate_layout_for.exit.i
  %1 = xor i64 %i.c, -16
  %i.j = getelementptr inbounds i8, ptr %.val, i64 %1
  tail call void @_RNvCs8mYq7K4qqSA_7___rustc14___rust_dealloc(ptr noundef nonnull %i.j, i64 noundef %i.f, i64 noundef range(i64 1, -9223372036854775807) 16) #41
  br label %_RINvMsa_NtCs3gpiEk3WpjL_9hashbrown3rawNtB6_13RawTableInner16drop_inner_tableTNtNtCs8ulvy0Wg6Ot_12delta_kernel6schema18MetadataColumnSpecjENtNtCs6Po7BT7Nknu_5alloc5alloc6GlobalECsdJxlLsGgtXr_16delta_benchmarks.exit
end_hunk_14
begin_hunk_15_@_RNvXsg_NtCs3gpiEk3WpjL_9hashbrown3rawINtB5_8RawTableTNtNtCsbvkFyIu7lgC_4core3any6TypeIdINtNtCs6Po7BT7Nknu_5alloc4sync3ArcDNtBR_3AnyNtNtBT_6marker4SyncNtB27_4SendEL_EEENtNtNtBT_3ops4drop4Drop4dropCsdJxlLsGgtXr_16delta_benchmarks:bb.a

bb.f:                                             ; preds = %_RINvMsa_NtCs3gpiEk3WpjL_9hashbrown3rawNtB6_13RawTableInner13drop_elementsTNtNtCsbvkFyIu7lgC_4core3any6TypeIdINtNtCs6Po7BT7Nknu_5alloc4sync3ArcDNtB1c_3AnyNtNtB1e_6marker4SyncNtB2t_4SendEL_EEECsdJxlLsGgtXr_16delta_benchmarks.exit.i
  %i.ak = load ptr, ptr %0, align 8, !alias.scope !6601, !nonnull !3, !noundef !3
  %1 = xor i64 %i.ad, -32
  %i.al = getelementptr inbounds i8, ptr %i.ak, i64 %1
  tail call void @_RNvCs8mYq7K4qqSA_7___rustc14___rust_dealloc(ptr noundef nonnull %i.al, i64 noundef %i.ag, i64 noundef range(i64 1, -9223372036854775807) 16) #41, !noalias !6601
  br label %_RINvMsa_NtCs3gpiEk3WpjL_9hashbrown3rawNtB6_13RawTableInner16drop_inner_tableTNtNtCsbvkFyIu7lgC_4core3any6TypeIdINtNtCs6Po7BT7Nknu_5alloc4sync3ArcDNtB1f_3AnyNtNtB1h_6marker4SyncNtB2w_4SendEL_EENtNtB1Q_5alloc6GlobalECsdJxlLsGgtXr_16delta_benchmarks.exit
end_hunk_15
begin_hunk_16_@_RNvXsg_NtCs3gpiEk3WpjL_9hashbrown3rawINtB5_8RawTableTNtNtCsjhHCjzi9uUI_17datafusion_common15table_reference22ResolvedTableReferenceINtNtCs6Po7BT7Nknu_5alloc4sync3ArcDNtNtCs8VI8w5SIoU4_15datafusion_expr12table_source11TableSourceEL_EEENtNtNtCsbvkFyIu7lgC_4core3ops4drop4Drop4dropCsdJxlLsGgtXr_16delta_benchmarks:bb.a

bb.q:                                             ; preds = %_RINvMsa_NtCs3gpiEk3WpjL_9hashbrown3rawNtB6_13RawTableInner13drop_elementsTNtNtCsjhHCjzi9uUI_17datafusion_common15table_reference22ResolvedTableReferenceINtNtCs6Po7BT7Nknu_5alloc4sync3ArcDNtNtCs8VI8w5SIoU4_15datafusion_expr12table_source11TableSourceEL_EEECsdJxlLsGgtXr_16delta_benchmarks.exit.i
  %i.bn = load ptr, ptr %0, align 8, !alias.scope !6629, !nonnull !3, !noundef !3
  %1 = xor i64 %i.bg, -64
  %i.bo = getelementptr inbounds i8, ptr %i.bn, i64 %1
  tail call void @_RNvCs8mYq7K4qqSA_7___rustc14___rust_dealloc(ptr noundef nonnull %i.bo, i64 noundef %i.bj, i64 noundef range(i64 1, -9223372036854775807) 16) #41, !noalias !6629
  br label %_RINvMsa_NtCs3gpiEk3WpjL_9hashbrown3rawNtB6_13RawTableInner16drop_inner_tableTNtNtCsjhHCjzi9uUI_17datafusion_common15table_reference22ResolvedTableReferenceINtNtCs6Po7BT7Nknu_5alloc4sync3ArcDNtNtCs8VI8w5SIoU4_15datafusion_expr12table_source11TableSourceEL_EENtNtB2y_5alloc6GlobalECsdJxlLsGgtXr_16delta_benchmarks.exit
end_hunk_16
begin_hunk_17_@_RNvXsg_NtCs3gpiEk3WpjL_9hashbrown3rawINtB5_8RawTableTRNtNtCs6Po7BT7Nknu_5alloc6string6StringuEENtNtNtCsbvkFyIu7lgC_4core3ops4drop4Drop4dropCsdJxlLsGgtXr_16delta_benchmarks:bb.a
  br i1 %i.k, label %_RINvMsa_NtCs3gpiEk3WpjL_9hashbrown3rawNtB6_13RawTableInner16drop_inner_tableTRNtNtCs6Po7BT7Nknu_5alloc6string6StringuENtNtB1i_5alloc6GlobalECsdJxlLsGgtXr_16delta_benchmarks.exit, label %bb.b

bb.b:                                             ; preds = %_RNvMs1_NtCs3gpiEk3WpjL_9hashbrown3rawNtB5_11TableLayout20calculate_layout_for.exit.i
  %1 = xor i64 %i.e, -16
  %i.l = getelementptr inbounds i8, ptr %.val, i64 %1
  tail call void @_RNvCs8mYq7K4qqSA_7___rustc14___rust_dealloc(ptr noundef nonnull %i.l, i64 noundef %i.h, i64 noundef range(i64 1, -9223372036854775807) 16) #41
  br label %_RINvMsa_NtCs3gpiEk3WpjL_9hashbrown3rawNtB6_13RawTableInner16drop_inner_tableTRNtNtCs6Po7BT7Nknu_5alloc6string6StringuENtNtB1i_5alloc6GlobalECsdJxlLsGgtXr_16delta_benchmarks.exit
end_hunk_17
begin_hunk_18_@_RNvXsg_NtCs3gpiEk3WpjL_9hashbrown3rawINtB5_8RawTableTRNtNtCsjhHCjzi9uUI_17datafusion_common6column6ColumnuEENtNtNtCsbvkFyIu7lgC_4core3ops4drop4Drop4dropCsdJxlLsGgtXr_16delta_benchmarks:bb.a
  br i1 %i.k, label %_RINvMsa_NtCs3gpiEk3WpjL_9hashbrown3rawNtB6_13RawTableInner16drop_inner_tableTRNtNtCsjhHCjzi9uUI_17datafusion_common6column6ColumnuENtNtCs6Po7BT7Nknu_5alloc5alloc6GlobalECsdJxlLsGgtXr_16delta_benchmarks.exit, label %bb.b

bb.b:                                             ; preds = %_RNvMs1_NtCs3gpiEk3WpjL_9hashbrown3rawNtB5_11TableLayout20calculate_layout_for.exit.i
  %1 = xor i64 %i.e, -16
  %i.l = getelementptr inbounds i8, ptr %.val, i64 %1
  tail call void @_RNvCs8mYq7K4qqSA_7___rustc14___rust_dealloc(ptr noundef nonnull %i.l, i64 noundef %i.h, i64 noundef range(i64 1, -9223372036854775807) 16) #41
  br label %_RINvMsa_NtCs3gpiEk3WpjL_9hashbrown3rawNtB6_13RawTableInner16drop_inner_tableTRNtNtCsjhHCjzi9uUI_17datafusion_common6column6ColumnuENtNtCs6Po7BT7Nknu_5alloc5alloc6GlobalECsdJxlLsGgtXr_16delta_benchmarks.exit
end_hunk_18
begin_hunk_19_@_RNvXsh_NtCs3gpiEk3WpjL_9hashbrown3rawINtB5_8RawTableTRNtNtCsjhHCjzi9uUI_17datafusion_common6column6ColumnuEENtNtNtNtCsbvkFyIu7lgC_4core4iter6traits7collect12IntoIterator9into_iterCsdJxlLsGgtXr_16delta_benchmarks:bb.a
  tail call void @llvm.assume(i1 %i.m)
  %i.n = icmp ult i64 %i.l, 9223372036854775793
  tail call void @llvm.assume(i1 %i.n)
  %2 = xor i64 %i.i, -16
  %i.o = getelementptr inbounds i8, ptr %i.a, i64 %2
  br label %_RNvMs6_NtCs3gpiEk3WpjL_9hashbrown3rawINtB5_8RawTableTRNtNtCsjhHCjzi9uUI_17datafusion_common6column6ColumnuEE15into_allocationCsdJxlLsGgtXr_16delta_benchmarks.exit

end_hunk_19
