begin_hunk_0
@10 = private unnamed_addr constant <{ ptr, [16 x i8] }> <{ ptr @1, [16 x i8] c"}\00\00\00\00\00\00\00U\03\00\00!\00\00\00" }>, align 8
@11 = private unnamed_addr constant [85 x i8] c"a spawned task panicked and the runtime is configured to shut down on unhandled panic", align 1
@12 = private unnamed_addr constant [7 x i8] c"file://", align 1
@13 = private unnamed_addr constant <{ ptr, [16 x i8], ptr, ptr, ptr }> <{ ptr @_RINvNtCsbvkFyIu7lgC_4core3ptr13drop_in_placeINtNvNtCs2pqxYH9ZEk8_3std2io17default_write_fmt7AdapterNtNtNtNtBN_3sys5stdio4unix6StderrEECsgO8S5jLFugx_23deltalake_catalog_unity, [16 x i8] c"\10\00\00\00\00\00\00\00\08\00\00\00\00\00\00\00", ptr @_RNvXNvNtCs2pqxYH9ZEk8_3std2io17default_write_fmtINtB2_7AdapterNtNtNtNtB6_3sys5stdio4unix6StderrENtNtCsbvkFyIu7lgC_4core3fmt5Write9write_strCsgO8S5jLFugx_23deltalake_catalog_unity, ptr @_RNvYINtNvNtCs2pqxYH9ZEk8_3std2io17default_write_fmt7AdapterNtNtNtNtB9_3sys5stdio4unix6StderrENtNtCsbvkFyIu7lgC_4core3fmt5Write10write_charCsgO8S5jLFugx_23deltalake_catalog_unity, ptr @_RNvYINtNvNtCs2pqxYH9ZEk8_3std2io17default_write_fmt7AdapterNtNtNtNtB9_3sys5stdio4unix6StderrENtNtCsbvkFyIu7lgC_4core3fmt5Write9write_fmtCsgO8S5jLFugx_23deltalake_catalog_unity }>, align 8
@14 = private unnamed_addr constant [86 x i8] c"a formatting trait implementation returned an error when the underlying stream did not", align 1
@15 = private unnamed_addr constant [74 x i8] c"/rustc/1d8897a4e88051480b36c501e66809425c6e08ad/library/std/src/io/mod.rs\00", align 1
@16 = private unnamed_addr constant <{ ptr, [16 x i8] }> <{ ptr @15, [16 x i8] c"I\00\00\00\00\00\00\00\88\02\00\00\11\00\00\00" }>, align 8
@17 = private unnamed_addr constant [73 x i8] c"/rustc/1d8897a4e88051480b36c501e66809425c6e08ad/library/alloc/src/str.rs\00", align 1
@18 = private unnamed_addr constant <{ ptr, [16 x i8] }> <{ ptr @17, [16 x i8] c"H\00\00\00\00\00\00\00\B1\00\00\00\16\00\00\00" }>, align 8
@19 = private unnamed_addr constant [53 x i8] c"attempt to join into collection with len > usize::MAX", align 1
@20 = private unnamed_addr constant <{ ptr, [16 x i8] }> <{ ptr @17, [16 x i8] c"H\00\00\00\00\00\00\00\9A\00\00\00\0A\00\00\00" }>, align 8
@21 = private unnamed_addr constant [1 x i8] c",", align 1
@22 = private unnamed_addr constant [38 x i8] c"\10Unknown scheme: \C0\11. Known schemes: \C0\00", align 1
@23 = private unnamed_addr constant [32 x i8] c"\10Could not parse \C0\0B as a URL: \C0\00", align 1
@24 = private unnamed_addr constant [40 x i8] c"internal error: entered unreachable code", align 1
@25 = private unnamed_addr constant [112 x i8] c"/home/opt-bench/.cargo/registry/src/index.crates.io-1949cf8c6b5b557f/reqwest-0.12.28/src/async_impl/response.rs\00", align 1
@26 = private unnamed_addr constant <{ ptr, [16 x i8] }> <{ ptr @25, [16 x i8] c"o\00\00\00\00\00\00\00\0D\01\00\00F\00\00\00" }>, align 8
@27 = private unnamed_addr constant [4 x i8] c"READ", align 1
@28 = private unnamed_addr constant [32 x i8] c"crates/catalog-unity/src/lib.rs\00", align 1
@29 = private unnamed_addr constant <{ ptr, [16 x i8] }> <{ ptr @28, [16 x i8] c"\1F\00\00\00\00\00\00\004\03\00\00B\00\00\00" }>, align 8
@30 = private unnamed_addr constant <{ ptr, [16 x i8] }> <{ ptr @28, [16 x i8] c"\1F\00\00\00\00\00\00\00D\03\00\00B\00\00\00" }>, align 8
@31 = private unnamed_addr constant [31 x i8] c"\C0\1C/temporary-table-credentials\00", align 1
@32 = private unnamed_addr constant <{ [9 x i8], [23 x i8] }> <{ [9 x i8] c"\00\00\00\00\00\00\00\00\10", [23 x i8] undef }>, align 8
@33 = private unnamed_addr constant <{ ptr, [16 x i8] }> <{ ptr @28, [16 x i8] c"\1F\00\00\00\00\00\00\00\1C\03\00\006\00\00\00" }>, align 8
@34 = private unnamed_addr constant [18 x i8] c"\C0\08/tables/\C0\01.\C0\01.\C0\00", align 1
@35 = private unnamed_addr constant [41 x i8] c"crates/catalog-unity/src/client/token.rs\00", align 1
@36 = private unnamed_addr constant <{ ptr, [16 x i8] }> <{ ptr @35, [16 x i8] c"(\00\00\00\00\00\00\00&\00\00\00\05\00\00\00" }>, align 8
@37 = private unnamed_addr constant [47 x i8] c"\22Could not create local directory: \C0\08\0AError: \C0\00", align 1
@38 = private unnamed_addr constant [106 x i8] c"3Could not construct a URL from the canonical path: \C03.\0ASomething must be very wrong with the table path.\00", align 1
@39 = private unnamed_addr constant [37 x i8] c"\18Invalid table location: \C0\08\0AError: \C0\00", align 1
@40 = private unnamed_addr constant [30 x i8] c"asked to exit when not entered", align 1
@41 = private unnamed_addr constant [116 x i8] c"/home/opt-bench/.cargo/registry/src/index.crates.io-1949cf8c6b5b557f/tokio-1.50.0/src/runtime/context/runtime_mt.rs\00", align 1
@42 = private unnamed_addr constant <{ ptr, [16 x i8] }> <{ ptr @41, [16 x i8] c"s\00\00\00\00\00\00\00\1C\00\00\00\09\00\00\00" }>, align 8
@43 = private unnamed_addr constant [100 x i8] c"/home/opt-bench/.cargo/registry/src/index.crates.io-1949cf8c6b5b557f/tokio-1.50.0/src/sync/mutex.rs\00", align 1
@44 = private unnamed_addr constant <{ ptr, [16 x i8] }> <{ ptr @43, [16 x i8] c"c\00\00\00\00\00\00\00\B3\01\00\00\1B\00\00\00" }>, align 8
@45 = private unnamed_addr constant <{ ptr, [16 x i8] }> <{ ptr @43, [16 x i8] c"c\00\00\00\00\00\00\00\95\02\00\00\0D\00\00\00" }>, align 8
@_RNvNCNKNvNtNtCskQDtHcQtBkN_5tokio7runtime7context7CONTEXT0023___RUST_STD_INTERNAL_VAL = external thread_local global { { { { { i64, { { i64, [1 x i64] } } }, i64 }, i64, ptr, i64, { { { i32, [2 x i32] } } }, { { { { i8, [1 x i8] } } } }, i8, [1 x i8] } }, i8, [7 x i8] }
@46 = private unnamed_addr constant <{ ptr, [16 x i8] }> <{ ptr @25, [16 x i8] c"o\00\00\00\00\00\00\00\22\01\00\006\00\00\00" }>, align 8
@47 = private unnamed_addr constant [108 x i8] c"/home/opt-bench/.cargo/registry/src/index.crates.io-1949cf8c6b5b557f/reqwest-middleware-0.4.2/src/client.rs\00", align 1
@48 = private unnamed_addr constant <{ ptr, [16 x i8] }> <{ ptr @47, [16 x i8] c"k\00\00\00\00\00\00\00U\02\00\005\00\00\00" }>, align 8
@49 = private unnamed_addr constant <{ ptr, [16 x i8] }> <{ ptr @28, [16 x i8] c"\1F\00\00\00\00\00\00\00\01\02\00\00-\00\00\00" }>, align 8
@50 = private unnamed_addr constant <{ ptr, [16 x i8] }> <{ ptr @28, [16 x i8] c"\1F\00\00\00\00\00\00\00\00\02\00\00G\00\00\00" }>, align 8
@51 = private unnamed_addr constant [10 x i8] c"READ_WRITE", align 1
@52 = private unnamed_addr constant [39 x i8] c"\13READ_WRITE failed: \C0\0F. READ failed: \C0\00", align 1
@53 = private unnamed_addr constant [10 x i8] c"\07Bearer \C0\00", align 1
@54 = private unnamed_addr constant <{ ptr, [16 x i8] }> <{ ptr @28, [16 x i8] c"\1F\00\00\00\00\00\00\00\8C\02\00\00N\00\00\00" }>, align 8
@55 = private unnamed_addr constant <{ ptr, [16 x i8] }> <{ ptr @43, [16 x i8] c"c\00\00\00\00\00\00\00\B2\01\00\003\00\00\00" }>, align 8
@56 = private unnamed_addr constant <{ ptr, [16 x i8] }> <{ ptr @43, [16 x i8] c"c\00\00\00\00\00\00\00\8F\02\00\00\1D\00\00\00" }>, align 8
@57 = private unnamed_addr constant <{ ptr, [16 x i8] }> <{ ptr @47, [16 x i8] c"k\00\00\00\00\00\00\00\E0\00\00\00\1B\00\00\00" }>, align 8
@58 = private unnamed_addr constant [93 x i8] c"/home/opt-bench/.cargo/registry/src/index.crates.io-1949cf8c6b5b557f/tokio-1.50.0/src/lib.rs\00", align 1
@59 = private unnamed_addr constant <{ ptr, [16 x i8] }> <{ ptr @58, [16 x i8] c"\\\00\00\00\00\00\00\00D\02\00\00,\00\00\00" }>, align 8
@60 = private unnamed_addr constant [9 x i8] c"mid > len", align 1
@61 = private unnamed_addr constant <{ [24 x i8], ptr }> <{ [24 x i8] c"\00\00\00\00\00\00\00\00\00\00\00\00\00\00\00\00\01\00\00\00\00\00\00\00", ptr @_RNvXsK_NtCsbvkFyIu7lgC_4core3fmtNtB5_5ErrorNtB5_5Debug3fmt }>, align 8
@62 = private unnamed_addr constant [7 x i8] c"socks4a", align 1
@63 = private unnamed_addr constant [6 x i8] c"socks5", align 1
@64 = private unnamed_addr constant [7 x i8] c"socks5h", align 1
@65 = private unnamed_addr constant [10 x i8] c"\07http://\C0\00", align 1
@66 = private unnamed_addr constant [117 x i8] c"/home/opt-bench/.cargo/registry/src/index.crates.io-1949cf8c6b5b557f/http-body-util-0.1.3/src/combinators/collect.rs\00", align 1
@67 = private unnamed_addr constant <{ ptr, [16 x i8] }> <{ ptr @66, [16 x i8] c"t\00\00\00\00\00\00\00)\00\00\00#\00\00\00" }>, align 8
@68 = private unnamed_addr constant [21 x i8] c"polled after complete", align 1
@69 = private unnamed_addr constant <{ ptr, [16 x i8] }> <{ ptr @66, [16 x i8] c"t\00\00\00\00\00\00\00&\00\00\00;\00\00\00" }>, align 8
@70 = private unnamed_addr constant <{ ptr, [16 x i8], ptr, ptr, ptr }> <{ ptr @_RINvNtCsbvkFyIu7lgC_4core3ptr13drop_in_placeNtNtCs6Po7BT7Nknu_5alloc6string6StringECsgO8S5jLFugx_23deltalake_catalog_unity, [16 x i8] c"\18\00\00\00\00\00\00\00\08\00\00\00\00\00\00\00", ptr @_RNvXsZ_NtCs6Po7BT7Nknu_5alloc6stringNtB5_6StringNtNtCsbvkFyIu7lgC_4core3fmt5Write9write_str, ptr @_RNvXsZ_NtCs6Po7BT7Nknu_5alloc6stringNtB5_6StringNtNtCsbvkFyIu7lgC_4core3fmt5Write10write_char, ptr @_RNvYNtNtCs6Po7BT7Nknu_5alloc6string6StringNtNtCsbvkFyIu7lgC_4core3fmt5Write9write_fmtCsgO8S5jLFugx_23deltalake_catalog_unity }>, align 8
@71 = private unnamed_addr constant [55 x i8] c"a Display implementation returned an error unexpectedly", align 1
@72 = private unnamed_addr constant [76 x i8] c"/rustc/1d8897a4e88051480b36c501e66809425c6e08ad/library/alloc/src/string.rs\00", align 1
@73 = private unnamed_addr constant <{ ptr, [16 x i8] }> <{ ptr @72, [16 x i8] c"K\00\00\00\00\00\00\00d\0B\00\00\0E\00\00\00" }>, align 8
@74 = private unnamed_addr constant [5 x i8] c"Error", align 1
@75 = private unnamed_addr constant [2 x i8] c"..", align 1
@76 = private unnamed_addr constant [90 x i8] c"/home/opt-bench/.cargo/registry/src/index.crates.io-1949cf8c6b5b557f/url-2.5.8/src/lib.rs\00", align 1
@77 = private unnamed_addr constant <{ ptr, [16 x i8] }> <{ ptr @76, [16 x i8] c"Y\00\00\00\00\00\00\00O\0B\00\00\0B\00\00\00" }>, align 8
@78 = private unnamed_addr constant [2 x i8] c"()", align 1
@79 = private unnamed_addr constant [20 x i8] c"\0Fmissing field `\C0\01`\00", align 1
@80 = private unnamed_addr constant [31 x i8] c"\0Finvalid length \C0\0B, expected \C0\00", align 1
@81 = private unnamed_addr constant [22 x i8] c"\11duplicate field `\C0\01`\00", align 1
@82 = private unnamed_addr constant [45 x i8] c"\11unknown variant `\C0\18`, there are no variants\00", align 1
@83 = private unnamed_addr constant [34 x i8] c"\11unknown variant `\C0\0C`, expected \C0\00", align 1

; Function Attrs: nonlazybind uwtable
define hidden void @_RINvMNtNtNtCskQDtHcQtBkN_5tokio7runtime9scheduler14current_threadNtB3_13CurrentThread8block_onINtNtCsbvkFyIu7lgC_4core3pin3PinINtNtCs6Po7BT7Nknu_5alloc5boxed3BoxNCNvMs4_CsgO8S5jLFugx_23deltalake_catalog_unityNtB2H_19UnityCatalogBuilder25get_uc_location_and_token0EEEB2H_(ptr dead_on_unwind noalias noundef writable sret([80 x i8]) align 8 captures(address) dereferenceable(80) %0, ptr noundef nonnull align 8 %1, ptr noalias noundef readonly align 8 captures(address, read_provenance) dereferenceable(16) %2, ptr noundef nonnull align 8 %3, ptr noalias noundef readonly align 8 captures(address, read_provenance) dereferenceable(24) %4) unnamed_addr #0 personality ptr @rust_eh_personality {
end_hunk_0
begin_hunk_1
  br i1 %.not.i.i, label %bb.c, label %bb.e, !prof !30

bb.c:                                             ; preds = %bb.b
  tail call void @_RNvNtCsbvkFyIu7lgC_4core9panicking9panic_fmt(ptr noundef nonnull @40, ptr noundef nonnull inttoptr (i64 61 to ptr), ptr noalias noundef readonly align 8 captures(address, read_provenance) dereferenceable(24) @42) #25
  unreachable

bb.d:                                             ; preds = %bb.a
end_hunk_1
begin_hunk_2
  store ptr %0, ptr %i.a, align 8
  %i.b = getelementptr inbounds nuw i8, ptr %i.a, i64 8 ; 3 uses
  store ptr null, ptr %i.b, align 8
  %i.c = invoke noundef zeroext i1 @_RNvNtCsbvkFyIu7lgC_4core3fmt5write(ptr noundef nonnull %i.a, ptr noalias noundef readonly align 8 captures(address, read_provenance) dereferenceable(48) @13, ptr noundef nonnull %1, ptr noundef nonnull %2)
          to label %bb.d unwind label %bb.b

bb.b:                                             ; preds = %bb.h, %bb.a
end_hunk_2
begin_hunk_3
  ret ptr %.sroa.0.0

bb.h:                                             ; preds = %bb.e
  invoke void @_RNvNtCsbvkFyIu7lgC_4core9panicking9panic_fmt(ptr noundef nonnull @14, ptr noundef nonnull inttoptr (i64 173 to ptr), ptr noalias noundef readonly align 8 captures(address, read_provenance) dereferenceable(24) @16) #24
          to label %bb.i unwind label %bb.b

bb.i:                                             ; preds = %bb.h
end_hunk_3
begin_hunk_4
  br i1 %i.cc, label %bb.o, label %bb.m

bb.m:                                             ; preds = %bb.l, %bb.k
  invoke void @_RNvNtCsbvkFyIu7lgC_4core3str16slice_error_fail(ptr noalias noundef nonnull readonly captures(address, read_provenance) %.val112.i, i64 noundef %.val113.i, i64 noundef 0, i64 noundef range(i64 0, 4294967296) %i.bx, ptr noalias noundef readonly align 8 captures(address, read_provenance) dereferenceable(24) @77) #25
          to label %.noexc120.i unwind label %.thread195.i, !noalias !717

.noexc120.i:                                      ; preds = %bb.m
end_hunk_4
begin_hunk_5
  br i1 %i.cu, label %bb.z, label %.thread198.i

bb.z:                                             ; preds = %bb.y
  %2 = load i32, ptr %.val110.i, align 1
  %3 = icmp ne i32 %2, 1701603686
  %4 = zext i1 %3 to i32
  %i.cv = icmp eq i32 %4, 0
  br i1 %i.cv, label %bb.ab, label %.thread198.i

.thread198.i:                                     ; preds = %bb.z, %bb.y, %bb.s
end_hunk_5
begin_hunk_6
  %i.ds = phi ptr [ %.val.i.i, %bb.af ], [ %.val.i.i, %bb.ag ], [ %.val110.i, %bb.v ], [ %.val110.i, %bb.u ]
  %i.dt = phi i64 [ %i.dk, %bb.af ], [ %i.dk, %bb.ag ], [ %.val111.i, %bb.v ], [ %.val111.i, %bb.u ]
  %i.du = phi i64 [ %i.dm, %bb.af ], [ %i.dm, %bb.ag ], [ %i.cm, %bb.v ], [ %i.cm, %bb.u ]
  invoke void @_RNvNtCsbvkFyIu7lgC_4core3str16slice_error_fail(ptr noalias noundef nonnull readonly captures(address, read_provenance) %i.ds, i64 noundef %i.dt, i64 noundef 0, i64 noundef range(i64 0, 4294967296) %i.du, ptr noalias noundef readonly align 8 captures(address, read_provenance) dereferenceable(24) @77) #25
          to label %.cont.i unwind label %bb.x, !noalias !717

.cont.i:                                          ; preds = %.invoke.i
end_hunk_6
begin_hunk_7

bb.aj:                                            ; preds = %bb.ah
  %i.ea = getelementptr inbounds nuw i8, ptr %i.s, i64 8
  %i.eb = load ptr, ptr %i.ea, align 8, !noalias !762, !nonnull !3, !noundef !3 ; 2 uses
  %5 = load i64, ptr %i.eb, align 1
  %6 = xor i64 %5, 8317981851476258668
  %7 = getelementptr i8, ptr %i.eb, i64 8
  %8 = load i8, ptr %7, align 1
  %9 = zext i8 %8 to i64
  %10 = xor i64 %9, 116
  %11 = or i64 %6, %10
  %12 = icmp ne i64 %11, 0
  %13 = zext i1 %12 to i32
  %i.ec = icmp eq i32 %13, 0
  br i1 %i.ec, label %bb.ad, label %bb.ai

bb.ak:                                            ; preds = %_RNCNvXsf_NtNtCsbvkFyIu7lgC_4core5slice3cmpNtNtCs6Po7BT7Nknu_5alloc6string6StringNtB7_13SliceContains14slice_contains0CsgO8S5jLFugx_23deltalake_catalog_unity.exit.backedge.i.i.i
end_hunk_7
begin_hunk_8
  unreachable

bb.ar:                                            ; preds = %bb.ap
  invoke void @_RNvNtCsbvkFyIu7lgC_4core6option13expect_failed(ptr noalias noundef nonnull readonly captures(address, read_provenance) @19, i64 noundef 53, ptr noalias noundef readonly align 8 captures(address, read_provenance) dereferenceable(24) @20) #25
          to label %.noexc134.i unwind label %bb.x, !noalias !717

.noexc134.i:                                      ; preds = %bb.ar
end_hunk_8
begin_hunk_9
  br i1 %.not.i.i131.i, label %.invoke.i.i, label %bb.ax, !prof !30

.invoke.i.i:                                      ; preds = %bb.ay, %bb.aw
  invoke void @_RNvNtCsbvkFyIu7lgC_4core9panicking9panic_fmt(ptr noundef nonnull @60, ptr noundef nonnull inttoptr (i64 19 to ptr), ptr noalias noundef readonly align 8 captures(address, read_provenance) dereferenceable(24) @18) #25
          to label %.cont.i.i unwind label %.loopexit.split-lp.i.i, !noalias !782

.cont.i.i:                                        ; preds = %.invoke.i.i
end_hunk_9
begin_hunk_10
bb.ax:                                            ; preds = %bb.aw
  %i.fp = getelementptr inbounds nuw i8, ptr %.sroa.028.2.i.i285, i64 1 ; 2 uses
  %i.fq = add nsw i64 %.sroa.26.2.i.i286, -1      ; 2 uses
  invoke void @_RINvNtCsbvkFyIu7lgC_4core5slice20copy_from_slice_implINtNtNtB4_3mem12maybe_uninit11MaybeUninithEECsgO8S5jLFugx_23deltalake_catalog_unity(ptr noalias noundef nonnull %.sroa.028.2.i.i285, i64 noundef 1, ptr noalias noundef nonnull readonly captures(address, read_provenance) @21, i64 noundef 1, ptr noalias noundef readonly align 8 captures(address, read_provenance) dereferenceable(24) @18)
          to label %bb.ay unwind label %.loopexit.i.i, !noalias !782

bb.ay:                                            ; preds = %bb.ax
end_hunk_10
begin_hunk_11
  br i1 %.not.i69.i.i, label %.invoke.i.i, label %bb.az, !prof !30

bb.az:                                            ; preds = %bb.ay
  invoke void @_RINvNtCsbvkFyIu7lgC_4core5slice20copy_from_slice_implINtNtNtB4_3mem12maybe_uninit11MaybeUninithEECsgO8S5jLFugx_23deltalake_catalog_unity(ptr noalias noundef nonnull %i.fp, i64 noundef %.sroa.05.1.val67.i.i, ptr noalias noundef nonnull readonly captures(address, read_provenance) %.sroa.05.1.val.i.i, i64 noundef %.sroa.05.1.val67.i.i, ptr noalias noundef readonly align 8 captures(address, read_provenance) dereferenceable(24) @18)
          to label %bb.av unwind label %.loopexit.i.i, !noalias !782

bb.ba:                                            ; preds = %bb.as
end_hunk_11
begin_hunk_12
  store ptr %i.ac, ptr %i.fw, align 8, !noalias !713
  %.sroa.475.0..sroa_idx.i = getelementptr inbounds nuw i8, ptr %i.ab, i64 24
  store ptr @_RNvXsq_NtCs6Po7BT7Nknu_5alloc6stringNtB5_6StringNtNtCsbvkFyIu7lgC_4core3fmt7Display3fmt, ptr %.sroa.475.0..sroa_idx.i, align 8, !noalias !713
  invoke void @_RNvNvNtCs6Po7BT7Nknu_5alloc3fmt6format12format_inner(ptr noalias noundef nonnull sret([24 x i8]) align 8 captures(none) dereferenceable(24) %i.ad, ptr noundef nonnull @22, ptr noundef nonnull %i.ab)
          to label %_RINvMNtCsbvkFyIu7lgC_4core6optionINtB3_6OptionReE11map_or_elseNtNtCs6Po7BT7Nknu_5alloc6string6StringNCNvNtB12_3fmt6format0NvYeNtNtB12_6borrow7ToOwned8to_ownedECsgO8S5jLFugx_23deltalake_catalog_unity.exit.i unwind label %bb.bh, !noalias !717

bb.bh:                                            ; preds = %_RINvNtCs6Po7BT7Nknu_5alloc3str17join_generic_copyehNtNtB4_6string6StringECsgO8S5jLFugx_23deltalake_catalog_unity.exit.i
end_hunk_12
begin_hunk_13
  %.sroa.46.0..sroa_idx.i.i = getelementptr inbounds nuw i8, ptr %i.p, i64 24
  store ptr @_RNvXss_NtCsbvkFyIu7lgC_4core3fmtuNtB5_5Debug3fmt, ptr %.sroa.46.0..sroa_idx.i.i, align 8, !noalias !786
  %i.gf = getelementptr inbounds nuw i8, ptr %i.u, i64 8 ; 2 uses
  invoke void @_RNvNvNtCs6Po7BT7Nknu_5alloc3fmt6format12format_inner(ptr noalias noundef nonnull sret([24 x i8]) align 8 captures(none) dereferenceable(24) %i.gf, ptr noundef nonnull @39, ptr noundef nonnull %i.p)
          to label %bb.bw unwind label %bb.x, !noalias !717

bb.bq:                                            ; preds = %bb.bo
end_hunk_13
begin_hunk_14
  store ptr %i.aa, ptr %i.gr, align 8, !noalias !713
  %.sroa.494.0..sroa_idx.i = getelementptr inbounds nuw i8, ptr %i.x, i64 24
  store ptr @_RNvXs9_NtCseo6ZV82fEK1_3url6parserNtB5_10ParseErrorNtNtCsbvkFyIu7lgC_4core3fmt7Display3fmt, ptr %.sroa.494.0..sroa_idx.i, align 8, !noalias !713
  invoke void @_RNvNvNtCs6Po7BT7Nknu_5alloc3fmt6format12format_inner(ptr noalias noundef nonnull sret([24 x i8]) align 8 captures(none) dereferenceable(24) %i.y, ptr noundef nonnull @23, ptr noundef nonnull %i.x)
          to label %_RINvMNtCsbvkFyIu7lgC_4core6optionINtB3_6OptionReE11map_or_elseNtNtCs6Po7BT7Nknu_5alloc6string6StringNCNvNtB12_3fmt6format0NvYeNtNtB12_6borrow7ToOwned8to_ownedECsgO8S5jLFugx_23deltalake_catalog_unity.exit171.i unwind label %bb.f, !noalias !717

bb.cf:                                            ; preds = %bb.cd
end_hunk_14
begin_hunk_15
  store ptr %i.m, ptr %i.hm, align 8, !noalias !802
  %.sroa.46.0..sroa_idx.i = getelementptr inbounds nuw i8, ptr %i.k, i64 24
  store ptr @_RNvXNtNtCs2pqxYH9ZEk8_3std2io5errorNtB2_5ErrorNtNtCsbvkFyIu7lgC_4core3fmt5Debug3fmt, ptr %.sroa.46.0..sroa_idx.i, align 8, !noalias !802
  invoke void @_RNvNvNtCs6Po7BT7Nknu_5alloc3fmt6format12format_inner(ptr noalias noundef nonnull sret([24 x i8]) align 8 captures(none) dereferenceable(24) %i.l, ptr noundef nonnull @37, ptr noundef nonnull %i.k)
          to label %_RINvMNtCsbvkFyIu7lgC_4core6optionINtB3_6OptionReE11map_or_elseNtNtCs6Po7BT7Nknu_5alloc6string6StringNCNvNtB12_3fmt6format0NvYeNtNtB12_6borrow7ToOwned8to_ownedECsgO8S5jLFugx_23deltalake_catalog_unity.exit.i66 unwind label %bb.cw, !noalias !806

bb.cw:                                            ; preds = %bb.cv
end_hunk_15
begin_hunk_16
  store ptr %i.j, ptr %i.hu, align 8, !noalias !808
  %.sroa.46.0..sroa_idx.i76 = getelementptr inbounds nuw i8, ptr %i.h, i64 24
  store ptr @_RNvXNtNtCs2pqxYH9ZEk8_3std2io5errorNtB2_5ErrorNtNtCsbvkFyIu7lgC_4core3fmt5Debug3fmt, ptr %.sroa.46.0..sroa_idx.i76, align 8, !noalias !808
  invoke void @_RNvNvNtCs6Po7BT7Nknu_5alloc3fmt6format12format_inner(ptr noalias noundef nonnull sret([24 x i8]) align 8 captures(none) dereferenceable(24) %i.i, ptr noundef nonnull @39, ptr noundef nonnull %i.h)
          to label %_RINvMNtCsbvkFyIu7lgC_4core6optionINtB3_6OptionReE11map_or_elseNtNtCs6Po7BT7Nknu_5alloc6string6StringNCNvNtB12_3fmt6format0NvYeNtNtB12_6borrow7ToOwned8to_ownedECsgO8S5jLFugx_23deltalake_catalog_unity.exit.i78 unwind label %bb.dd, !noalias !812

bb.dd:                                            ; preds = %bb.dc
end_hunk_16
begin_hunk_17
  %.sroa.42.0..sroa_idx.i95 = getelementptr inbounds nuw i8, ptr %i.b, i64 8
  store ptr @_RNvXs1i_NtCsbvkFyIu7lgC_4core3fmtReNtB6_7Display3fmtCsgO8S5jLFugx_23deltalake_catalog_unity, ptr %.sroa.42.0..sroa_idx.i95, align 8, !noalias !831
  %i.jh = getelementptr inbounds nuw i8, ptr %i.an, i64 8 ; 2 uses
  call void @_RNvNvNtCs6Po7BT7Nknu_5alloc3fmt6format12format_inner(ptr noalias noundef nonnull sret([24 x i8]) align 8 captures(none) dereferenceable(24) %i.jh, ptr noundef nonnull @38, ptr noundef nonnull %i.b)
  call void @llvm.lifetime.end.p0(ptr nonnull %i.b), !noalias !831
  %.sroa.625.sroa.0.0.copyload = load i64, ptr %i.jh, align 8
  %.sroa.625.sroa.7.0..sroa.625.0..sroa_idx.sroa_idx = getelementptr inbounds nuw i8, ptr %i.an, i64 16
end_hunk_17
begin_hunk_18
  store i16 0, ptr %.sroa.5.0..sroa_idx.i.i, align 2, !noalias !835
  store ptr %i.c, ptr %i.b, align 8, !noalias !835
  %i.g = getelementptr inbounds nuw i8, ptr %i.b, i64 8
  store ptr @70, ptr %i.g, align 8, !noalias !835
  %i.h = invoke noundef zeroext i1 @_RNvXNtCshmPyUV8PP35_6chrono5serdeINtB2_10SerdeErrorxENtNtCsbvkFyIu7lgC_4core3fmt7Display3fmtCsgO8S5jLFugx_23deltalake_catalog_unity(ptr noalias noundef nonnull readonly align 8 captures(address, read_provenance) dereferenceable(8) %i.e, ptr noalias noundef nonnull align 8 dereferenceable(24) %i.b)
          to label %bb.c unwind label %bb.b, !noalias !842

end_hunk_18
begin_hunk_19
  br i1 %i.h, label %bb.d, label %_RNvXsB_NtCs6Po7BT7Nknu_5alloc6stringINtNtCshmPyUV8PP35_6chrono5serde10SerdeErrorxENtB5_8ToString9to_stringCsgO8S5jLFugx_23deltalake_catalog_unity.exit, !prof !30

bb.d:                                             ; preds = %bb.c
  invoke void @_RNvNtCsbvkFyIu7lgC_4core6result13unwrap_failed(ptr noalias noundef nonnull readonly captures(address, read_provenance) @71, i64 noundef 55, ptr noundef nonnull %i.a, ptr noalias noundef readonly align 8 captures(address, read_provenance) dereferenceable(32) @61, ptr noalias noundef readonly align 8 captures(address, read_provenance) dereferenceable(24) @73) #24
          to label %.noexc.i.i unwind label %bb.b, !noalias !842

.noexc.i.i:                                       ; preds = %bb.d
end_hunk_19
begin_hunk_20
  store i16 0, ptr %.sroa.5.0..sroa_idx.i.i, align 2, !noalias !844
  store ptr %i.c, ptr %i.b, align 8, !noalias !844
  %i.g = getelementptr inbounds nuw i8, ptr %i.b, i64 8
  store ptr @70, ptr %i.g, align 8, !noalias !844
  %i.h = invoke noundef zeroext i1 @_RNvXNtCshmPyUV8PP35_6chrono5serdeINtB2_10SerdeErroryENtNtCsbvkFyIu7lgC_4core3fmt7Display3fmtCsgO8S5jLFugx_23deltalake_catalog_unity(ptr noalias noundef nonnull readonly align 8 captures(address, read_provenance) dereferenceable(8) %i.e, ptr noalias noundef nonnull align 8 dereferenceable(24) %i.b)
          to label %bb.c unwind label %bb.b, !noalias !851

end_hunk_20
begin_hunk_21
  br i1 %i.h, label %bb.d, label %_RNvXsB_NtCs6Po7BT7Nknu_5alloc6stringINtNtCshmPyUV8PP35_6chrono5serde10SerdeErroryENtB5_8ToString9to_stringCsgO8S5jLFugx_23deltalake_catalog_unity.exit, !prof !30

bb.d:                                             ; preds = %bb.c
  invoke void @_RNvNtCsbvkFyIu7lgC_4core6result13unwrap_failed(ptr noalias noundef nonnull readonly captures(address, read_provenance) @71, i64 noundef 55, ptr noundef nonnull %i.a, ptr noalias noundef readonly align 8 captures(address, read_provenance) dereferenceable(32) @61, ptr noalias noundef readonly align 8 captures(address, read_provenance) dereferenceable(24) @73) #24
          to label %.noexc.i.i unwind label %bb.b, !noalias !851

.noexc.i.i:                                       ; preds = %bb.d
end_hunk_21
begin_hunk_22
  store i16 0, ptr %.sroa.5.0..sroa_idx.i.i, align 2, !noalias !882
  store ptr %i.c, ptr %i.b, align 8, !noalias !882
  %i.g = getelementptr inbounds nuw i8, ptr %i.b, i64 8
  store ptr @70, ptr %i.g, align 8, !noalias !882
  %i.h = invoke noundef zeroext i1 @_RNvXs1_NtCshmPyUV8PP35_6chrono6formatNtB5_10ParseErrorNtNtCsbvkFyIu7lgC_4core3fmt7Display3fmt(ptr noalias noundef nonnull readonly captures(address, read_provenance) dereferenceable(1) %i.e, ptr noalias noundef nonnull align 8 dereferenceable(24) %i.b)
          to label %bb.c unwind label %bb.b, !noalias !889

end_hunk_22
begin_hunk_23
  br i1 %i.h, label %bb.d, label %_RNvXsB_NtCs6Po7BT7Nknu_5alloc6stringNtNtCshmPyUV8PP35_6chrono6format10ParseErrorNtB5_8ToString9to_stringCsgO8S5jLFugx_23deltalake_catalog_unity.exit, !prof !30

bb.d:                                             ; preds = %bb.c
  invoke void @_RNvNtCsbvkFyIu7lgC_4core6result13unwrap_failed(ptr noalias noundef nonnull readonly captures(address, read_provenance) @71, i64 noundef 55, ptr noundef nonnull %i.a, ptr noalias noundef readonly align 8 captures(address, read_provenance) dereferenceable(32) @61, ptr noalias noundef readonly align 8 captures(address, read_provenance) dereferenceable(24) @73) #24
          to label %.noexc.i.i unwind label %bb.b, !noalias !889

.noexc.i.i:                                       ; preds = %bb.d
end_hunk_23
begin_hunk_24
  store i16 0, ptr %.sroa.5.0..sroa_idx.i.i, align 2, !noalias !891
  store ptr %i.c, ptr %i.b, align 8, !noalias !891
  %i.g = getelementptr inbounds nuw i8, ptr %i.b, i64 8
  store ptr @70, ptr %i.g, align 8, !noalias !891
  %i.h = invoke noundef zeroext i1 @_RNvXs3_NtNtCsbvkFyIu7lgC_4core3num5errorNtB5_13ParseIntErrorNtNtB9_3fmt7Display3fmt(ptr noalias noundef nonnull readonly captures(address, read_provenance) dereferenceable(1) %i.e, ptr noalias noundef nonnull align 8 dereferenceable(24) %i.b)
          to label %bb.c unwind label %bb.b, !noalias !898

end_hunk_24
begin_hunk_25
  br i1 %i.h, label %bb.d, label %_RNvXsB_NtCs6Po7BT7Nknu_5alloc6stringNtNtNtCsbvkFyIu7lgC_4core3num5error13ParseIntErrorNtB5_8ToString9to_stringCsgO8S5jLFugx_23deltalake_catalog_unity.exit, !prof !30

bb.d:                                             ; preds = %bb.c
  invoke void @_RNvNtCsbvkFyIu7lgC_4core6result13unwrap_failed(ptr noalias noundef nonnull readonly captures(address, read_provenance) @71, i64 noundef 55, ptr noundef nonnull %i.a, ptr noalias noundef readonly align 8 captures(address, read_provenance) dereferenceable(32) @61, ptr noalias noundef readonly align 8 captures(address, read_provenance) dereferenceable(24) @73) #24
          to label %.noexc.i.i unwind label %bb.b, !noalias !898

.noexc.i.i:                                       ; preds = %bb.d
end_hunk_25
begin_hunk_26
  br label %bb.h

bb.d:                                             ; preds = %bb.a
  tail call void @_RNvNtNtCsbvkFyIu7lgC_4core9panicking11panic_const28panic_const_async_fn_resumed(ptr noalias noundef readonly align 8 captures(address, read_provenance) dereferenceable(24) @30) #25
  unreachable

bb.e:                                             ; preds = %bb.a
  tail call void @_RNvNtNtCsbvkFyIu7lgC_4core9panicking11panic_const34panic_const_async_fn_resumed_panic(ptr noalias noundef readonly align 8 captures(address, read_provenance) dereferenceable(24) @30) #25
  unreachable

bb.f:                                             ; preds = %bb.h
end_hunk_26
begin_hunk_27
  br label %bb.y

bb.u:                                             ; preds = %bb.q
  invoke void @_RNvNtNtCsbvkFyIu7lgC_4core9panicking11panic_const28panic_const_async_fn_resumed(ptr noalias noundef readonly align 8 captures(address, read_provenance) dereferenceable(24) @33) #25
          to label %.noexc43 unwind label %bb.p

.noexc43:                                         ; preds = %bb.u
  unreachable

bb.v:                                             ; preds = %bb.q
  invoke void @_RNvNtNtCsbvkFyIu7lgC_4core9panicking11panic_const34panic_const_async_fn_resumed_panic(ptr noalias noundef readonly align 8 captures(address, read_provenance) dereferenceable(24) @33) #25
          to label %.noexc44 unwind label %bb.p

.noexc44:                                         ; preds = %bb.v
end_hunk_27
begin_hunk_28
  store ptr %i.k, ptr %i.fc, align 8, !noalias !913
  %.sroa.591.0..sroa_idx.i = getelementptr inbounds nuw i8, ptr %i.j, i64 56
  store ptr @_RNvXs1i_NtCsbvkFyIu7lgC_4core3fmtReNtB6_7Display3fmtCsgO8S5jLFugx_23deltalake_catalog_unity, ptr %.sroa.591.0..sroa_idx.i, align 8, !noalias !913
  invoke void @_RNvNvNtCs6Po7BT7Nknu_5alloc3fmt6format12format_inner(ptr noalias noundef nonnull sret([24 x i8]) align 8 captures(none) dereferenceable(24) %i.o, ptr noundef nonnull @34, ptr noundef nonnull %i.j)
          to label %_RNvNtCs6Po7BT7Nknu_5alloc3fmt6format.exit.i unwind label %bb.ag, !noalias !917

_RNvNtCs6Po7BT7Nknu_5alloc3fmt6format.exit.i:     ; preds = %bb.ah
end_hunk_28
begin_hunk_29
  store i8 0, ptr %i.el, align 1, !noalias !913
  call void @llvm.memcpy.p0.p0.i64(ptr noundef nonnull align 8 dereferenceable(40) %i.i, ptr noundef nonnull align 8 dereferenceable(40) %i.u, i64 40, i1 false), !noalias !913
  call void @llvm.lifetime.start.p0(ptr nonnull %i.g), !noalias !913
  call void @llvm.memcpy.p0.p0.i64(ptr noundef nonnull align 8 dereferenceable(32) %i.g, ptr noundef nonnull align 8 dereferenceable(32) @32, i64 32, i1 false), !noalias !913
  invoke void @_RINvMs2_NtCsjkRrtHEnRPD_18reqwest_middleware6clientNtB6_14RequestBuilder6headerNtNtNtCs4j34XAPZOn0_4http6header4name10HeaderNameNtNtB1j_5value11HeaderValueECsgO8S5jLFugx_23deltalake_catalog_unity(ptr noalias noundef nonnull sret([312 x i8]) align 8 captures(none) dereferenceable(312) %i.r, ptr noalias noundef nonnull align 8 captures(address) dereferenceable(312) %i.q, ptr noalias noundef nonnull align 8 captures(address) dereferenceable(32) %i.g, ptr noalias noundef nonnull align 8 captures(address) dereferenceable(40) %i.i)
          to label %bb.ap unwind label %bb.ao, !noalias !917

end_hunk_29
begin_hunk_30
  br label %bb.bl

bb.bj:                                            ; preds = %bb.bg
  invoke void @_RNvNtNtCsbvkFyIu7lgC_4core9panicking11panic_const28panic_const_async_fn_resumed(ptr noalias noundef readonly align 8 captures(address, read_provenance) dereferenceable(24) @26) #25
          to label %.noexc50.i unwind label %bb.bf, !noalias !917

.noexc50.i:                                       ; preds = %bb.bj
  unreachable

bb.bk:                                            ; preds = %bb.bg
  invoke void @_RNvNtNtCsbvkFyIu7lgC_4core9panicking11panic_const34panic_const_async_fn_resumed_panic(ptr noalias noundef readonly align 8 captures(address, read_provenance) dereferenceable(24) @26) #25
          to label %.noexc51.i unwind label %bb.bf, !noalias !917

.noexc51.i:                                       ; preds = %bb.bk
end_hunk_30
begin_hunk_31
  store ptr %i.aa, ptr %i.z, align 8
  %.sroa.5175.0..sroa_idx = getelementptr inbounds nuw i8, ptr %i.z, i64 8
  store ptr @_RNvXsq_NtCs6Po7BT7Nknu_5alloc6stringNtB5_6StringNtNtCsbvkFyIu7lgC_4core3fmt7Display3fmt, ptr %.sroa.5175.0..sroa_idx, align 8
  invoke void @_RNvNvNtCs6Po7BT7Nknu_5alloc3fmt6format12format_inner(ptr noalias noundef nonnull sret([24 x i8]) align 8 captures(none) dereferenceable(24) %i.ab, ptr noundef nonnull @31, ptr noundef nonnull %i.z)
          to label %_RNvNtCs6Po7BT7Nknu_5alloc3fmt6format.exit unwind label %bb.cq

_RNvNtCs6Po7BT7Nknu_5alloc3fmt6format.exit:       ; preds = %bb.cr
end_hunk_31
begin_hunk_32
  %i.jt = getelementptr inbounds nuw i8, ptr %1, i64 88
  call void @llvm.memcpy.p0.p0.i64(ptr noundef nonnull align 8 dereferenceable(40) %i.y, ptr noundef nonnull align 8 dereferenceable(40) %i.jt, i64 40, i1 false)
  call void @llvm.lifetime.start.p0(ptr nonnull %i.v)
  call void @llvm.memcpy.p0.p0.i64(ptr noundef nonnull align 8 dereferenceable(32) %i.v, ptr noundef nonnull align 8 dereferenceable(32) @32, i64 32, i1 false)
  invoke void @_RINvMs2_NtCsjkRrtHEnRPD_18reqwest_middleware6clientNtB6_14RequestBuilder6headerNtNtNtCs4j34XAPZOn0_4http6header4name10HeaderNameNtNtB1j_5value11HeaderValueECsgO8S5jLFugx_23deltalake_catalog_unity(ptr noalias noundef nonnull sret([312 x i8]) align 8 captures(none) dereferenceable(312) %i.ae, ptr noalias noundef nonnull align 8 captures(address) dereferenceable(312) %i.ad, ptr noalias noundef nonnull align 8 captures(address) dereferenceable(32) %i.v, ptr noalias noundef nonnull align 8 captures(address) dereferenceable(40) %i.y)
          to label %bb.cz unwind label %bb.cy

end_hunk_32
begin_hunk_33
  br label %bb.eg

bb.ee:                                            ; preds = %bb.eb
  invoke void @_RNvNtNtCsbvkFyIu7lgC_4core9panicking11panic_const28panic_const_async_fn_resumed(ptr noalias noundef readonly align 8 captures(address, read_provenance) dereferenceable(24) @26) #25
          to label %.noexc64 unwind label %bb.ea

.noexc64:                                         ; preds = %bb.ee
  unreachable

bb.ef:                                            ; preds = %bb.eb
  invoke void @_RNvNtNtCsbvkFyIu7lgC_4core9panicking11panic_const34panic_const_async_fn_resumed_panic(ptr noalias noundef readonly align 8 captures(address, read_provenance) dereferenceable(24) @26) #25
          to label %.noexc65 unwind label %bb.ea

.noexc65:                                         ; preds = %bb.ef
end_hunk_33
begin_hunk_34
          to label %.body11 unwind label %bb.ab

bb.k:                                             ; preds = %bb.a
  tail call void @_RNvNtNtCsbvkFyIu7lgC_4core9panicking11panic_const28panic_const_async_fn_resumed(ptr noalias noundef readonly align 8 captures(address, read_provenance) dereferenceable(24) @46) #25
  unreachable

bb.l:                                             ; preds = %bb.a
  tail call void @_RNvNtNtCsbvkFyIu7lgC_4core9panicking11panic_const34panic_const_async_fn_resumed_panic(ptr noalias noundef readonly align 8 captures(address, read_provenance) dereferenceable(24) @46) #25
  unreachable

bb.m:                                             ; preds = %bb.h, %bb.i
end_hunk_34
begin_hunk_35
  br label %common.ret

bb.q:                                             ; preds = %bb.a
  tail call void @_RNvNtNtCsbvkFyIu7lgC_4core9panicking11panic_const28panic_const_async_fn_resumed(ptr noalias noundef readonly align 8 captures(address, read_provenance) dereferenceable(24) @48) #25
  unreachable

bb.r:                                             ; preds = %bb.a
  tail call void @_RNvNtNtCsbvkFyIu7lgC_4core9panicking11panic_const34panic_const_async_fn_resumed_panic(ptr noalias noundef readonly align 8 captures(address, read_provenance) dereferenceable(24) @48) #25
  unreachable

bb.s:                                             ; preds = %bb.a
end_hunk_35
begin_hunk_36
  br i1 %i.bm, label %bb.ak, label %bb.aj

bb.x:                                             ; preds = %bb.s
  invoke void @_RNvNtNtCsbvkFyIu7lgC_4core9panicking11panic_const28panic_const_async_fn_resumed(ptr noalias noundef readonly align 8 captures(address, read_provenance) dereferenceable(24) @57) #25
          to label %.noexc unwind label %bb.al

.noexc:                                           ; preds = %bb.x
  unreachable

bb.y:                                             ; preds = %bb.s
  invoke void @_RNvNtNtCsbvkFyIu7lgC_4core9panicking11panic_const34panic_const_async_fn_resumed_panic(ptr noalias noundef readonly align 8 captures(address, read_provenance) dereferenceable(24) @57) #25
          to label %.noexc21 unwind label %bb.al

.noexc21:                                         ; preds = %bb.y
end_hunk_36
begin_hunk_37
  store ptr %i.o, ptr %i.k, align 8
  %.sroa.5.0..sroa_idx = getelementptr inbounds nuw i8, ptr %i.k, i64 8
  store ptr @_RNvXs1i_NtCsbvkFyIu7lgC_4core3fmtRNtNtCs6Po7BT7Nknu_5alloc6string6StringNtB6_7Display3fmtCsgO8S5jLFugx_23deltalake_catalog_unity, ptr %.sroa.5.0..sroa_idx, align 8
  invoke void @_RNvNvNtCs6Po7BT7Nknu_5alloc3fmt6format12format_inner(ptr noalias noundef nonnull sret([24 x i8]) align 8 captures(none) dereferenceable(24) %i.l, ptr noundef nonnull @53, ptr noundef nonnull %i.k)
          to label %bb.f unwind label %bb.c

bb.e:                                             ; preds = %bb.f
end_hunk_37
begin_hunk_38
  br label %bb.u

bb.q:                                             ; preds = %bb.a
  tail call void @_RNvNtNtCsbvkFyIu7lgC_4core9panicking11panic_const28panic_const_async_fn_resumed(ptr noalias noundef readonly align 8 captures(address, read_provenance) dereferenceable(24) @54) #25
  unreachable

bb.r:                                             ; preds = %bb.a
  tail call void @_RNvNtNtCsbvkFyIu7lgC_4core9panicking11panic_const34panic_const_async_fn_resumed_panic(ptr noalias noundef readonly align 8 captures(address, read_provenance) dereferenceable(24) @54) #25
  unreachable

bb.s:                                             ; preds = %bb.y, %bb.x
end_hunk_38
begin_hunk_39
  br label %.thread.i.i

bb.x:                                             ; preds = %bb.t
  invoke void @_RNvNtNtCsbvkFyIu7lgC_4core9panicking11panic_const28panic_const_async_fn_resumed(ptr noalias noundef readonly align 8 captures(address, read_provenance) dereferenceable(24) @36) #25
          to label %.noexc36 unwind label %bb.s

.noexc36:                                         ; preds = %bb.x
  unreachable

bb.y:                                             ; preds = %bb.t
  invoke void @_RNvNtNtCsbvkFyIu7lgC_4core9panicking11panic_const34panic_const_async_fn_resumed_panic(ptr noalias noundef readonly align 8 captures(address, read_provenance) dereferenceable(24) @36) #25
          to label %.noexc37 unwind label %bb.s

.noexc37:                                         ; preds = %bb.y
end_hunk_39
begin_hunk_40
  br label %.thread.i.i.i

bb.ab:                                            ; preds = %bb.aa
  invoke void @_RNvNtNtCsbvkFyIu7lgC_4core9panicking11panic_const28panic_const_async_fn_resumed(ptr noalias noundef readonly align 8 captures(address, read_provenance) dereferenceable(24) @55) #25
          to label %.noexc.i unwind label %bb.z, !noalias !1111

.noexc.i:                                         ; preds = %bb.ab
  unreachable

bb.ac:                                            ; preds = %bb.aa
  invoke void @_RNvNtNtCsbvkFyIu7lgC_4core9panicking11panic_const34panic_const_async_fn_resumed_panic(ptr noalias noundef readonly align 8 captures(address, read_provenance) dereferenceable(24) @55) #25
          to label %.noexc31.i unwind label %bb.z, !noalias !1111

.noexc31.i:                                       ; preds = %bb.ac
end_hunk_40
begin_hunk_41
  br label %.body.i.i

bb.af:                                            ; preds = %bb.ad
  invoke void @_RNvNtNtCsbvkFyIu7lgC_4core9panicking11panic_const28panic_const_async_fn_resumed(ptr noalias noundef readonly align 8 captures(address, read_provenance) dereferenceable(24) @44) #25
          to label %.noexc.i.i unwind label %bb.bd, !noalias !1118

.noexc.i.i:                                       ; preds = %bb.af
  unreachable

bb.ag:                                            ; preds = %bb.ad
  invoke void @_RNvNtNtCsbvkFyIu7lgC_4core9panicking11panic_const34panic_const_async_fn_resumed_panic(ptr noalias noundef readonly align 8 captures(address, read_provenance) dereferenceable(24) @44) #25
          to label %.noexc8.i.i unwind label %bb.bd, !noalias !1118

.noexc8.i.i:                                      ; preds = %bb.ag
end_hunk_41
begin_hunk_42
  br label %bb.ao

bb.ai:                                            ; preds = %bb.ah
  invoke void @_RNvNtNtCsbvkFyIu7lgC_4core9panicking11panic_const28panic_const_async_fn_resumed(ptr noalias noundef readonly align 8 captures(address, read_provenance) dereferenceable(24) @56) #25
          to label %.noexc.i.i.i unwind label %bb.bb, !noalias !1122

.noexc.i.i.i:                                     ; preds = %bb.ai
  unreachable

bb.aj:                                            ; preds = %bb.ah
  invoke void @_RNvNtNtCsbvkFyIu7lgC_4core9panicking11panic_const34panic_const_async_fn_resumed_panic(ptr noalias noundef readonly align 8 captures(address, read_provenance) dereferenceable(24) @56) #25
          to label %.noexc7.i.i.i unwind label %bb.bb, !noalias !1122

.noexc7.i.i.i:                                    ; preds = %bb.aj
end_hunk_42
begin_hunk_43
  ]

bb.al:                                            ; preds = %bb.ak
  invoke void @_RNvNtNtCsbvkFyIu7lgC_4core9panicking11panic_const28panic_const_async_fn_resumed(ptr noalias noundef readonly align 8 captures(address, read_provenance) dereferenceable(24) @59) #25
          to label %.noexc.i.i.i.i unwind label %bb.an, !noalias !1123

.noexc.i.i.i.i:                                   ; preds = %bb.al
  unreachable

bb.am:                                            ; preds = %bb.ak
  invoke void @_RNvNtNtCsbvkFyIu7lgC_4core9panicking11panic_const34panic_const_async_fn_resumed_panic(ptr noalias noundef readonly align 8 captures(address, read_provenance) dereferenceable(24) @59) #25
          to label %.noexc24.i.i.i.i unwind label %bb.an, !noalias !1123

.noexc24.i.i.i.i:                                 ; preds = %bb.am
end_hunk_43
begin_hunk_44
  br i1 %i.eh, label %bb.ba, label %bb.bg

bb.ba:                                            ; preds = %_RINvNtCsbvkFyIu7lgC_4core3ptr13drop_in_placeNtNtNtCskQDtHcQtBkN_5tokio4sync15batch_semaphore7AcquireECsgO8S5jLFugx_23deltalake_catalog_unity.exit.i.i.i.i
  invoke void @_RNvNtCsbvkFyIu7lgC_4core9panicking5panic(ptr noalias noundef nonnull readonly captures(address, read_provenance) @24, i64 noundef 40, ptr noalias noundef readonly align 8 captures(address, read_provenance) dereferenceable(24) @45) #25
          to label %.noexc26.i.i.i.i unwind label %bb.az, !noalias !1111

.noexc26.i.i.i.i:                                 ; preds = %bb.ba
end_hunk_44
begin_hunk_45
  store ptr %i.j, ptr %i.f, align 8
  %.sroa.5114.0..sroa_idx = getelementptr inbounds nuw i8, ptr %i.f, i64 8
  store ptr @_RNvXsq_NtCs6Po7BT7Nknu_5alloc6stringNtB5_6StringNtNtCsbvkFyIu7lgC_4core3fmt7Display3fmt, ptr %.sroa.5114.0..sroa_idx, align 8
  invoke void @_RNvNvNtCs6Po7BT7Nknu_5alloc3fmt6format12format_inner(ptr noalias noundef nonnull sret([24 x i8]) align 8 captures(none) dereferenceable(24) %i.g, ptr noundef nonnull @53, ptr noundef nonnull %i.f)
          to label %bb.cy unwind label %bb.cv

bb.cx:                                            ; preds = %bb.cy
end_hunk_45
begin_hunk_46
  %i.v = getelementptr inbounds nuw i8, ptr %i.h, i64 44
  %i.w = load i32, ptr %i.v, align 4, !noundef !3 ; 3 uses
  %i.x = getelementptr inbounds nuw i8, ptr %i.h, i64 8
  %.val22 = load ptr, ptr %i.x, align 8, !nonnull !3, !noundef !3 ; 7 uses
  %i.y = getelementptr inbounds nuw i8, ptr %i.h, i64 16
  %.val23 = load i64, ptr %i.y, align 8, !noundef !3 ; 3 uses
  %i.z = zext i32 %i.w to i64                     ; 7 uses
end_hunk_46
begin_hunk_47
  br i1 %i.ae, label %bb.j, label %bb.h

bb.h:                                             ; preds = %bb.g, %bb.f
  invoke void @_RNvNtCsbvkFyIu7lgC_4core3str16slice_error_fail(ptr noalias noundef nonnull readonly captures(address, read_provenance) %.val22, i64 noundef %.val23, i64 noundef 0, i64 noundef range(i64 0, 4294967296) %i.z, ptr noalias noundef readonly align 8 captures(address, read_provenance) dereferenceable(24) @77) #25
          to label %.noexc unwind label %bb.i

.noexc:                                           ; preds = %bb.h
end_hunk_47
begin_hunk_48
  ]

bb.k:                                             ; preds = %bb.j
  %2 = load i32, ptr %.val22, align 1
  %3 = xor i32 %2, 1801678707
  %4 = getelementptr i8, ptr %.val22, i64 4
  %5 = load i16, ptr %4, align 1
  %6 = zext i16 %5 to i32
  %7 = xor i32 %6, 13427
  %8 = or i32 %3, %7
  %9 = icmp ne i32 %8, 0
  %10 = zext i1 %9 to i32
  %i.ag = icmp eq i32 %10, 0
  br i1 %i.ag, label %bb.o, label %bb.m

bb.l:                                             ; preds = %bb.j
  %bcmp = call i32 @bcmp(ptr nonnull %.val22, ptr nonnull @62, i64 %i.z)
  %i.ah = icmp eq i32 %bcmp, 0
  br i1 %i.ah, label %bb.o, label %bb.n

bb.m:                                             ; preds = %bb.k
  %bcmp17 = call i32 @bcmp(ptr nonnull %.val22, ptr nonnull @63, i64 %i.z)
  %i.ai = icmp eq i32 %bcmp17, 0
  br i1 %i.ai, label %bb.o, label %.thread

bb.n:                                             ; preds = %bb.l
  %bcmp18 = call i32 @bcmp(ptr nonnull %.val22, ptr nonnull @64, i64 %i.z)
  %i.aj = icmp eq i32 %bcmp18, 0
  br i1 %i.aj, label %bb.o, label %.thread

end_hunk_48
begin_hunk_49
  store ptr %i.f, ptr %i.e, align 8
  %.sroa.48.0..sroa_idx = getelementptr inbounds nuw i8, ptr %i.e, i64 8
  store ptr @_RNvXs1i_NtCsbvkFyIu7lgC_4core3fmtReNtB6_7Display3fmtCsgO8S5jLFugx_23deltalake_catalog_unity, ptr %.sroa.48.0..sroa_idx, align 8
  invoke void @_RNvNvNtCs6Po7BT7Nknu_5alloc3fmt6format12format_inner(ptr noalias noundef nonnull sret([24 x i8]) align 8 captures(none) dereferenceable(24) %i.g, ptr noundef nonnull @65, ptr noundef nonnull %i.e)
          to label %_RINvMNtCsbvkFyIu7lgC_4core6optionINtB3_6OptionReE11map_or_elseNtNtCs6Po7BT7Nknu_5alloc6string6StringNCNvNtB12_3fmt6format0NvYeNtNtB12_6borrow7ToOwned8to_ownedECsgO8S5jLFugx_23deltalake_catalog_unity.exit unwind label %.loopexit.split-lp

_RINvMNtCsbvkFyIu7lgC_4core6optionINtB3_6OptionReE11map_or_elseNtNtCs6Po7BT7Nknu_5alloc6string6StringNCNvNtB12_3fmt6format0NvYeNtNtB12_6borrow7ToOwned8to_ownedECsgO8S5jLFugx_23deltalake_catalog_unity.exit: ; preds = %bb.w
end_hunk_49
begin_hunk_50
  br i1 %i.h, label %._crit_edge, label %bb.b

bb.g:                                             ; preds = %bb.e
  invoke void @_RNvNtCsbvkFyIu7lgC_4core6option13unwrap_failed(ptr noalias noundef readonly align 8 captures(address, read_provenance) dereferenceable(24) @67) #24
          to label %bb.h unwind label %bb.i

bb.h:                                             ; preds = %bb.g
end_hunk_50
begin_hunk_51
  br label %bb.k

bb.m:                                             ; preds = %bb.c
  call void @_RNvNtCsbvkFyIu7lgC_4core6option13expect_failed(ptr noalias noundef nonnull readonly captures(address, read_provenance) @68, i64 noundef 21, ptr noalias noundef readonly align 8 captures(address, read_provenance) dereferenceable(24) @69) #24
  unreachable

.thread44:                                        ; preds = %bb.i
end_hunk_51
begin_hunk_52
  br i1 %i.ax, label %bb.h, label %bb.e, !prof !14

bb.e:                                             ; preds = %_RNvXs9_NtNtCsbvkFyIu7lgC_4core3str6traitsINtNtNtB9_3ops5range9RangeFromjEINtNtNtB9_5slice5index10SliceIndexeE3get.exit.i.i.i.i, %bb.d
  invoke void @_RNvNtCsbvkFyIu7lgC_4core3str16slice_error_fail(ptr noalias noundef nonnull readonly captures(address, read_provenance) %i.ao, i64 noundef %i.aq, i64 noundef 5, i64 noundef %i.aq, ptr noalias noundef readonly align 8 captures(address, read_provenance) dereferenceable(24) @49) #25
          to label %.noexc.i.i unwind label %bb.f, !noalias !1182

.noexc.i.i:                                       ; preds = %bb.e
end_hunk_52
begin_hunk_53
  resume { ptr, i32 } %.pn68.i.i

bb.bd:                                            ; preds = %bb.b
  tail call void @_RNvNtNtCsbvkFyIu7lgC_4core9panicking11panic_const28panic_const_async_fn_resumed(ptr noalias noundef readonly align 8 captures(address, read_provenance) dereferenceable(24) @50) #25, !noalias !1182
  unreachable

bb.be:                                            ; preds = %bb.b
  tail call void @_RNvNtNtCsbvkFyIu7lgC_4core9panicking11panic_const34panic_const_async_fn_resumed_panic(ptr noalias noundef readonly align 8 captures(address, read_provenance) dereferenceable(24) @50) #25, !noalias !1182
  unreachable

bb.bf:                                            ; preds = %bb.bg
end_hunk_53
begin_hunk_54
  %.sroa.13215.0..sroa_idx.i.i = getelementptr inbounds nuw i8, ptr %i.ah, i64 344
  store i64 %i.fh, ptr %.sroa.13215.0..sroa_idx.i.i, align 8, !noalias !1171
  %.sroa.14216.0..sroa_idx.i.i = getelementptr inbounds nuw i8, ptr %i.ah, i64 352
  store ptr @51, ptr %.sroa.14216.0..sroa_idx.i.i, align 8, !noalias !1171
  %.sroa.15217.0..sroa_idx.i.i = getelementptr inbounds nuw i8, ptr %i.ah, i64 360
  store i64 10, ptr %.sroa.15217.0..sroa_idx.i.i, align 8, !noalias !1171
  %.sroa.17.0..sroa_idx.i.i = getelementptr inbounds nuw i8, ptr %i.ah, i64 664
end_hunk_54
begin_hunk_55
  %.sroa.1210.0..sroa_idx.i.i.i = getelementptr inbounds nuw i8, ptr %i.ah, i64 472
  store i64 %i.hh, ptr %.sroa.1210.0..sroa_idx.i.i.i, align 8, !noalias !1253
  %.sroa.1311.0..sroa_idx.i.i.i = getelementptr inbounds nuw i8, ptr %i.ah, i64 480
  store ptr @27, ptr %.sroa.1311.0..sroa_idx.i.i.i, align 8, !noalias !1253
  %.sroa.1412.0..sroa_idx.i.i.i = getelementptr inbounds nuw i8, ptr %i.ah, i64 488
  store i64 4, ptr %.sroa.1412.0..sroa_idx.i.i.i, align 8, !noalias !1253
  %.sroa.16.0..sroa_idx.i.i.i = getelementptr inbounds nuw i8, ptr %i.ah, i64 792
end_hunk_55
begin_hunk_56
  br label %_RINvNtCsbvkFyIu7lgC_4core3ptr13drop_in_placeNCINvMs5_CsgO8S5jLFugx_23deltalake_catalog_unityNtBP_12UnityCatalog26get_temp_table_credentialsReB2d_B2d_E0EBP_.exit.i.i

bb.co:                                            ; preds = %bb.cm
  invoke void @_RNvNtNtCsbvkFyIu7lgC_4core9panicking11panic_const28panic_const_async_fn_resumed(ptr noalias noundef readonly align 8 captures(address, read_provenance) dereferenceable(24) @29) #25
          to label %.noexc113.i.i unwind label %.body111.i.i, !noalias !1182

.noexc113.i.i:                                    ; preds = %bb.co
  unreachable

bb.cp:                                            ; preds = %bb.cm
  invoke void @_RNvNtNtCsbvkFyIu7lgC_4core9panicking11panic_const34panic_const_async_fn_resumed_panic(ptr noalias noundef readonly align 8 captures(address, read_provenance) dereferenceable(24) @29) #25
          to label %.noexc114.i.i unwind label %.body111.i.i, !noalias !1182

.noexc114.i.i:                                    ; preds = %bb.cp
end_hunk_56
begin_hunk_57
  store ptr %i.il, ptr %i.im, align 8, !noalias !1205
  %.sroa.5279.0..sroa_idx.i.i = getelementptr inbounds nuw i8, ptr %i.i, i64 24
  store ptr @_RNvXsq_NtCs6Po7BT7Nknu_5alloc6stringNtB5_6StringNtNtCsbvkFyIu7lgC_4core3fmt7Display3fmt, ptr %.sroa.5279.0..sroa_idx.i.i, align 8, !noalias !1205
  invoke void @_RNvNvNtCs6Po7BT7Nknu_5alloc3fmt6format12format_inner(ptr noalias noundef nonnull sret([24 x i8]) align 8 captures(none) dereferenceable(24) %i.j, ptr noundef nonnull @52, ptr noundef nonnull %i.i)
          to label %bb.dn unwind label %bb.dl, !noalias !1182

bb.dn:                                            ; preds = %bb.dm
end_hunk_57
begin_hunk_58
  %i.m = load ptr, ptr %i.l, align 8, !alias.scope !1278, !noalias !1279, !nonnull !3, !align !15, !noundef !3
  %i.n = getelementptr inbounds nuw i8, ptr %i.m, i64 24
  %i.o = load ptr, ptr %i.n, align 8, !invariant.load !3, !nonnull !3
  %i.p = tail call noundef zeroext i1 %i.o(ptr noundef nonnull %i.k, ptr noalias noundef nonnull readonly captures(address, read_provenance) @75, i64 noundef 2) #27
  br i1 %i.p, label %_RNvXs_NtNtCsbvkFyIu7lgC_4core3ops5rangeINtB4_5RangeyENtNtB8_3fmt5Debug3fmtCsgO8S5jLFugx_23deltalake_catalog_unity.exit, label %bb.f

bb.f:                                             ; preds = %bb.e
end_hunk_58
begin_hunk_59
; Function Attrs: inlinehint nonlazybind uwtable
define internal noundef zeroext i1 @_RNvXsK_NtCsbvkFyIu7lgC_4core3fmtNtB5_5ErrorNtB5_5Debug3fmt(ptr noalias nonnull readonly captures(none) %0, ptr noalias noundef align 8 dereferenceable(24) %1) unnamed_addr #2 {
bb.a:
  %i.a = tail call noundef zeroext i1 @_RNvMsa_NtCsbvkFyIu7lgC_4core3fmtNtB5_9Formatter9write_str(ptr noalias noundef nonnull align 8 dereferenceable(24) %1, ptr noalias noundef nonnull readonly captures(address, read_provenance) @74, i64 noundef 5)
  ret i1 %i.a
}

end_hunk_59
begin_hunk_60
; Function Attrs: inlinehint nonlazybind uwtable
define internal noundef zeroext i1 @_RNvXss_NtCsbvkFyIu7lgC_4core3fmtuNtB5_5Debug3fmt(ptr noalias nonnull readonly captures(none) %0, ptr noalias noundef align 8 dereferenceable(24) %1) unnamed_addr #2 {
bb.a:
  %i.a = tail call noundef zeroext i1 @_RNvMsa_NtCsbvkFyIu7lgC_4core3fmtNtB5_9Formatter3pad(ptr noalias noundef nonnull align 8 dereferenceable(24) %1, ptr noalias noundef nonnull readonly captures(address, read_provenance) @78, i64 noundef 2)
  ret i1 %i.a
}

end_hunk_60
begin_hunk_61
; Function Attrs: nonlazybind uwtable
define internal noundef zeroext i1 @_RNvYINtNvNtCs2pqxYH9ZEk8_3std2io17default_write_fmt7AdapterNtNtNtNtB9_3sys5stdio4unix6StderrENtNtCsbvkFyIu7lgC_4core3fmt5Write9write_fmtCsgO8S5jLFugx_23deltalake_catalog_unity(ptr noalias noundef align 8 dereferenceable(16) %0, ptr noundef nonnull %1, ptr noundef nonnull %2) unnamed_addr #0 personality ptr @rust_eh_personality {
_RNvXs_NvNtNtCsbvkFyIu7lgC_4core3fmt5Write9write_fmtQINtNvNtCs2pqxYH9ZEk8_3std2io17default_write_fmt7AdapterNtNtNtNtBV_3sys5stdio4unix6StderrENtB4_12SpecWriteFmt14spec_write_fmtCsgO8S5jLFugx_23deltalake_catalog_unity.exit:
  %i.a = tail call noundef zeroext i1 @_RNvNtCsbvkFyIu7lgC_4core3fmt5write(ptr noundef nonnull align 8 dereferenceable(16) %0, ptr noalias noundef readonly align 8 captures(address, read_provenance) dereferenceable(48) @13, ptr noundef nonnull %1, ptr noundef nonnull %2)
  ret i1 %i.a
}

; Function Attrs: nonlazybind uwtable
define hidden noundef zeroext i1 @_RNvYNtNtCs6Po7BT7Nknu_5alloc6string6StringNtNtCsbvkFyIu7lgC_4core3fmt5Write9write_fmtCsgO8S5jLFugx_23deltalake_catalog_unity(ptr noalias noundef align 8 dereferenceable(24) %0, ptr noundef nonnull %1, ptr noundef nonnull %2) unnamed_addr #0 {
_RNvXs_NvNtNtCsbvkFyIu7lgC_4core3fmt5Write9write_fmtQNtNtCs6Po7BT7Nknu_5alloc6string6StringNtB4_12SpecWriteFmt14spec_write_fmtCsgO8S5jLFugx_23deltalake_catalog_unity.exit:
  %i.a = tail call noundef zeroext i1 @_RNvNtCsbvkFyIu7lgC_4core3fmt5write(ptr noundef nonnull align 8 dereferenceable(24) %0, ptr noalias noundef readonly align 8 captures(address, read_provenance) dereferenceable(48) @70, ptr noundef nonnull %1, ptr noundef nonnull %2)
  ret i1 %i.a
}

end_hunk_61
begin_hunk_62
  store ptr %i.b, ptr %i.a, align 8
  %.sroa.42.0..sroa_idx = getelementptr inbounds nuw i8, ptr %i.a, i64 8
  store ptr @_RNvXs1i_NtCsbvkFyIu7lgC_4core3fmtReNtB6_7Display3fmtCsgO8S5jLFugx_23deltalake_catalog_unity, ptr %.sroa.42.0..sroa_idx, align 8
  %i.d = call fastcc noundef nonnull align 8 ptr @_RINvXs6_NtCseqDwI8vvjGQ_10serde_json5errorNtB6_5ErrorNtNtCs1gOyXocuPRE_10serde_core2de5Error6customNtNtCsbvkFyIu7lgC_4core3fmt9ArgumentsECsgO8S5jLFugx_23deltalake_catalog_unity(ptr noundef nonnull @79, ptr noundef nonnull %i.a)
  call void @llvm.lifetime.end.p0(ptr nonnull %i.a)
  ret ptr %i.d
}
end_hunk_62
begin_hunk_63
  store ptr %i.b, ptr %i.e, align 8
  %.sroa.46.0..sroa_idx = getelementptr inbounds nuw i8, ptr %i.a, i64 24
  store ptr @_RNvXs1i_NtCsbvkFyIu7lgC_4core3fmtRDNtNtCs1gOyXocuPRE_10serde_core2de8ExpectedEL_NtB6_7Display3fmtCsgO8S5jLFugx_23deltalake_catalog_unity, ptr %.sroa.46.0..sroa_idx, align 8
  %i.f = call fastcc noundef nonnull align 8 ptr @_RINvXs6_NtCseqDwI8vvjGQ_10serde_json5errorNtB6_5ErrorNtNtCs1gOyXocuPRE_10serde_core2de5Error6customNtNtCsbvkFyIu7lgC_4core3fmt9ArgumentsECsgO8S5jLFugx_23deltalake_catalog_unity(ptr noundef nonnull @80, ptr noundef nonnull %i.a)
  call void @llvm.lifetime.end.p0(ptr nonnull %i.a)
  ret ptr %i.f
}
end_hunk_63
begin_hunk_64
  store ptr %i.b, ptr %i.a, align 8
  %.sroa.42.0..sroa_idx = getelementptr inbounds nuw i8, ptr %i.a, i64 8
  store ptr @_RNvXs1i_NtCsbvkFyIu7lgC_4core3fmtReNtB6_7Display3fmtCsgO8S5jLFugx_23deltalake_catalog_unity, ptr %.sroa.42.0..sroa_idx, align 8
  %i.d = call fastcc noundef nonnull align 8 ptr @_RINvXs6_NtCseqDwI8vvjGQ_10serde_json5errorNtB6_5ErrorNtNtCs1gOyXocuPRE_10serde_core2de5Error6customNtNtCsbvkFyIu7lgC_4core3fmt9ArgumentsECsgO8S5jLFugx_23deltalake_catalog_unity(ptr noundef nonnull @81, ptr noundef nonnull %i.a)
  call void @llvm.lifetime.end.p0(ptr nonnull %i.a)
  ret ptr %i.d
}
end_hunk_64
begin_hunk_65
  store ptr %i.d, ptr %i.c, align 8
  %.sroa.43.0..sroa_idx = getelementptr inbounds nuw i8, ptr %i.c, i64 8
  store ptr @_RNvXs1i_NtCsbvkFyIu7lgC_4core3fmtReNtB6_7Display3fmtCsgO8S5jLFugx_23deltalake_catalog_unity, ptr %.sroa.43.0..sroa_idx, align 8
  %i.g = call fastcc noundef nonnull align 8 ptr @_RINvXs6_NtCseqDwI8vvjGQ_10serde_json5errorNtB6_5ErrorNtNtCs1gOyXocuPRE_10serde_core2de5Error6customNtNtCsbvkFyIu7lgC_4core3fmt9ArgumentsECsgO8S5jLFugx_23deltalake_catalog_unity(ptr noundef nonnull @82, ptr noundef nonnull %i.c)
  call void @llvm.lifetime.end.p0(ptr nonnull %i.c)
  br label %bb.d

end_hunk_65
begin_hunk_66
  store ptr %i.b, ptr %i.i, align 8
  %.sroa.411.0..sroa_idx = getelementptr inbounds nuw i8, ptr %i.a, i64 24
  store ptr @_RNvXs6_NtCs1gOyXocuPRE_10serde_core2deNtB5_5OneOfNtNtCsbvkFyIu7lgC_4core3fmt7Display3fmt, ptr %.sroa.411.0..sroa_idx, align 8
  %i.j = call fastcc noundef nonnull align 8 ptr @_RINvXs6_NtCseqDwI8vvjGQ_10serde_json5errorNtB6_5ErrorNtNtCs1gOyXocuPRE_10serde_core2de5Error6customNtNtCsbvkFyIu7lgC_4core3fmt9ArgumentsECsgO8S5jLFugx_23deltalake_catalog_unity(ptr noundef nonnull @83, ptr noundef nonnull %i.a)
  call void @llvm.lifetime.end.p0(ptr nonnull %i.a)
  call void @llvm.lifetime.end.p0(ptr nonnull %i.b)
  br label %bb.d
end_hunk_66
