inline.NumInlined: 7791
inline.NumDeleted: 3011
begin_hunk_0_@_RINvNtCsbvkFyIu7lgC_4core3ptr13drop_in_placeINtNtCs3gpiEk3WpjL_9hashbrown3raw8RawTableTNtNtCs6Po7BT7Nknu_5alloc6string6StringINtNtB1r_4sync3ArcNtNtCs8VI8w5SIoU4_15datafusion_expr3udf9ScalarUDFEEEECs14kWLkQVSKO_14deltalake_core:bb.a

bb.e:                                             ; preds = %_RINvMsa_NtCs3gpiEk3WpjL_9hashbrown3rawNtB6_13RawTableInner13drop_elementsTNtNtCs6Po7BT7Nknu_5alloc6string6StringINtNtB1e_4sync3ArcNtNtCs8VI8w5SIoU4_15datafusion_expr3udf9ScalarUDFEEECs14kWLkQVSKO_14deltalake_core.exit.i.i
  %i.ah = load ptr, ptr %0, align 8, !alias.scope !3690, !nonnull !16, !noundef !16
  %1 = sub nuw nsw i64 -32, %i.aa
  %i.ai = getelementptr inbounds i8, ptr %i.ah, i64 %1
  tail call void @_RNvCs8mYq7K4qqSA_7___rustc14___rust_dealloc(ptr noundef nonnull %i.ai, i64 noundef %i.ad, i64 noundef range(i64 1, -9223372036854775807) 16) #56, !noalias !3690
  br label %_RNvXsg_NtCs3gpiEk3WpjL_9hashbrown3rawINtB5_8RawTableTNtNtCs6Po7BT7Nknu_5alloc6string6StringINtNtBT_4sync3ArcNtNtCs8VI8w5SIoU4_15datafusion_expr3udf9ScalarUDFEEENtNtNtCsbvkFyIu7lgC_4core3ops4drop4Drop4dropCs14kWLkQVSKO_14deltalake_core.exit
end_hunk_0
begin_hunk_1_@_RINvNtCsbvkFyIu7lgC_4core3ptr13drop_in_placeINtNtCs3gpiEk3WpjL_9hashbrown3raw8RawTableTNtNtCs6Po7BT7Nknu_5alloc6string6StringINtNtB1r_4sync3ArcNtNtCs8VI8w5SIoU4_15datafusion_expr4udaf12AggregateUDFEEEECs14kWLkQVSKO_14deltalake_core:bb.a

bb.e:                                             ; preds = %_RINvMsa_NtCs3gpiEk3WpjL_9hashbrown3rawNtB6_13RawTableInner13drop_elementsTNtNtCs6Po7BT7Nknu_5alloc6string6StringINtNtB1e_4sync3ArcNtNtCs8VI8w5SIoU4_15datafusion_expr4udaf12AggregateUDFEEECs14kWLkQVSKO_14deltalake_core.exit.i.i
  %i.ah = load ptr, ptr %0, align 8, !alias.scope !3711, !nonnull !16, !noundef !16
  %1 = sub nuw nsw i64 -32, %i.aa
  %i.ai = getelementptr inbounds i8, ptr %i.ah, i64 %1
  tail call void @_RNvCs8mYq7K4qqSA_7___rustc14___rust_dealloc(ptr noundef nonnull %i.ai, i64 noundef %i.ad, i64 noundef range(i64 1, -9223372036854775807) 16) #56, !noalias !3711
  br label %_RNvXsg_NtCs3gpiEk3WpjL_9hashbrown3rawINtB5_8RawTableTNtNtCs6Po7BT7Nknu_5alloc6string6StringINtNtBT_4sync3ArcNtNtCs8VI8w5SIoU4_15datafusion_expr4udaf12AggregateUDFEEENtNtNtCsbvkFyIu7lgC_4core3ops4drop4Drop4dropCs14kWLkQVSKO_14deltalake_core.exit
end_hunk_1
begin_hunk_2_@_RINvNtCsbvkFyIu7lgC_4core3ptr13drop_in_placeINtNtCs3gpiEk3WpjL_9hashbrown3raw8RawTableTNtNtCs6Po7BT7Nknu_5alloc6string6StringINtNtB1r_4sync3ArcNtNtCs8VI8w5SIoU4_15datafusion_expr4udwf9WindowUDFEEEECs14kWLkQVSKO_14deltalake_core:bb.a

bb.e:                                             ; preds = %_RINvMsa_NtCs3gpiEk3WpjL_9hashbrown3rawNtB6_13RawTableInner13drop_elementsTNtNtCs6Po7BT7Nknu_5alloc6string6StringINtNtB1e_4sync3ArcNtNtCs8VI8w5SIoU4_15datafusion_expr4udwf9WindowUDFEEECs14kWLkQVSKO_14deltalake_core.exit.i.i
  %i.ah = load ptr, ptr %0, align 8, !alias.scope !3732, !nonnull !16, !noundef !16
  %1 = sub nuw nsw i64 -32, %i.aa
  %i.ai = getelementptr inbounds i8, ptr %i.ah, i64 %1
  tail call void @_RNvCs8mYq7K4qqSA_7___rustc14___rust_dealloc(ptr noundef nonnull %i.ai, i64 noundef %i.ad, i64 noundef range(i64 1, -9223372036854775807) 16) #56, !noalias !3732
  br label %_RNvXsg_NtCs3gpiEk3WpjL_9hashbrown3rawINtB5_8RawTableTNtNtCs6Po7BT7Nknu_5alloc6string6StringINtNtBT_4sync3ArcNtNtCs8VI8w5SIoU4_15datafusion_expr4udwf9WindowUDFEEENtNtNtCsbvkFyIu7lgC_4core3ops4drop4Drop4dropCs14kWLkQVSKO_14deltalake_core.exit
end_hunk_2
begin_hunk_3_@_RINvNtCsbvkFyIu7lgC_4core3ptr13drop_in_placeINtNtCs3gpiEk3WpjL_9hashbrown3raw8RawTableTNtNtCs6Po7BT7Nknu_5alloc6string6StringINtNtB1r_4sync3ArcNtNtCsanCXJAiNsO_18datafusion_catalog5table13TableFunctionEEEECs14kWLkQVSKO_14deltalake_core:bb.a

bb.e:                                             ; preds = %_RINvMsa_NtCs3gpiEk3WpjL_9hashbrown3rawNtB6_13RawTableInner13drop_elementsTNtNtCs6Po7BT7Nknu_5alloc6string6StringINtNtB1e_4sync3ArcNtNtCsanCXJAiNsO_18datafusion_catalog5table13TableFunctionEEECs14kWLkQVSKO_14deltalake_core.exit.i.i
  %i.ah = load ptr, ptr %0, align 8, !alias.scope !3753, !nonnull !16, !noundef !16
  %1 = sub nuw nsw i64 -32, %i.aa
  %i.ai = getelementptr inbounds i8, ptr %i.ah, i64 %1
  tail call void @_RNvCs8mYq7K4qqSA_7___rustc14___rust_dealloc(ptr noundef nonnull %i.ai, i64 noundef %i.ad, i64 noundef range(i64 1, -9223372036854775807) 16) #56, !noalias !3753
  br label %_RNvXsg_NtCs3gpiEk3WpjL_9hashbrown3rawINtB5_8RawTableTNtNtCs6Po7BT7Nknu_5alloc6string6StringINtNtBT_4sync3ArcNtNtCsanCXJAiNsO_18datafusion_catalog5table13TableFunctionEEENtNtNtCsbvkFyIu7lgC_4core3ops4drop4Drop4dropCs14kWLkQVSKO_14deltalake_core.exit
end_hunk_3
begin_hunk_4_@_RINvNtCsbvkFyIu7lgC_4core3ptr13drop_in_placeINtNtCs3gpiEk3WpjL_9hashbrown3raw8RawTableTNtNtCs6Po7BT7Nknu_5alloc6string6StringINtNtB1r_4sync3ArcNtNtNtCs8Hz2sPNgbCO_10datafusion9execution13session_state12PreparedPlanEEEECs14kWLkQVSKO_14deltalake_core:bb.a

bb.e:                                             ; preds = %_RINvMsa_NtCs3gpiEk3WpjL_9hashbrown3rawNtB6_13RawTableInner13drop_elementsTNtNtCs6Po7BT7Nknu_5alloc6string6StringINtNtB1e_4sync3ArcNtNtNtCs8Hz2sPNgbCO_10datafusion9execution13session_state12PreparedPlanEEECs14kWLkQVSKO_14deltalake_core.exit.i.i
  %i.ah = load ptr, ptr %0, align 8, !alias.scope !3774, !nonnull !16, !noundef !16
  %1 = sub nuw nsw i64 -32, %i.aa
  %i.ai = getelementptr inbounds i8, ptr %i.ah, i64 %1
  tail call void @_RNvCs8mYq7K4qqSA_7___rustc14___rust_dealloc(ptr noundef nonnull %i.ai, i64 noundef %i.ad, i64 noundef range(i64 1, -9223372036854775807) 16) #56, !noalias !3774
  br label %_RNvXsg_NtCs3gpiEk3WpjL_9hashbrown3rawINtB5_8RawTableTNtNtCs6Po7BT7Nknu_5alloc6string6StringINtNtBT_4sync3ArcNtNtNtCs8Hz2sPNgbCO_10datafusion9execution13session_state12PreparedPlanEEENtNtNtCsbvkFyIu7lgC_4core3ops4drop4Drop4dropCs14kWLkQVSKO_14deltalake_core.exit
end_hunk_4
begin_hunk_5_@_RINvNtCsbvkFyIu7lgC_4core3ptr13drop_in_placeINtNtCs3gpiEk3WpjL_9hashbrown3raw8RawTableTNtNtCs6Po7BT7Nknu_5alloc6string6StringINtNtB1r_4sync3ArcNtNtNtCs8VI8w5SIoU4_15datafusion_expr12logical_plan4plan11LogicalPlanEEEECs14kWLkQVSKO_14deltalake_core:bb.a

bb.e:                                             ; preds = %_RINvMsa_NtCs3gpiEk3WpjL_9hashbrown3rawNtB6_13RawTableInner13drop_elementsTNtNtCs6Po7BT7Nknu_5alloc6string6StringINtNtB1e_4sync3ArcNtNtNtCs8VI8w5SIoU4_15datafusion_expr12logical_plan4plan11LogicalPlanEEECs14kWLkQVSKO_14deltalake_core.exit.i.i
  %i.ah = load ptr, ptr %0, align 8, !alias.scope !3795, !nonnull !16, !noundef !16
  %1 = sub nuw nsw i64 -32, %i.aa
  %i.ai = getelementptr inbounds i8, ptr %i.ah, i64 %1
  tail call void @_RNvCs8mYq7K4qqSA_7___rustc14___rust_dealloc(ptr noundef nonnull %i.ai, i64 noundef %i.ad, i64 noundef range(i64 1, -9223372036854775807) 16) #56, !noalias !3795
  br label %_RNvXsg_NtCs3gpiEk3WpjL_9hashbrown3rawINtB5_8RawTableTNtNtCs6Po7BT7Nknu_5alloc6string6StringINtNtBT_4sync3ArcNtNtNtCs8VI8w5SIoU4_15datafusion_expr12logical_plan4plan11LogicalPlanEEENtNtNtCsbvkFyIu7lgC_4core3ops4drop4Drop4dropCs14kWLkQVSKO_14deltalake_core.exit
end_hunk_5
begin_hunk_6_@_RINvNtCsbvkFyIu7lgC_4core3ptr13drop_in_placeINtNtCs6Po7BT7Nknu_5alloc5boxed3BoxNtNtCs8ulvy0Wg6Ot_12delta_kernel6schema10StructTypeEECs14kWLkQVSKO_14deltalake_core:bb.a
  br i1 %i.ai, label %_RINvNtCsbvkFyIu7lgC_4core3ptr13drop_in_placeNtNtCs8ulvy0Wg6Ot_12delta_kernel6schema10StructTypeECs14kWLkQVSKO_14deltalake_core.exit, label %bb.i

bb.i:                                             ; preds = %_RNvMs1_NtCs3gpiEk3WpjL_9hashbrown3rawNtB5_11TableLayout20calculate_layout_for.exit.i.i.i.i.i.i
  %0 = sub nuw nsw i64 -16, %i.ac
  %i.aj = getelementptr inbounds i8, ptr %.val.i, i64 %0
  tail call void @_RNvCs8mYq7K4qqSA_7___rustc14___rust_dealloc(ptr noundef nonnull %i.aj, i64 noundef %i.af, i64 noundef range(i64 1, -9223372036854775807) 16) #56, !noalias !3982
  br label %_RINvNtCsbvkFyIu7lgC_4core3ptr13drop_in_placeNtNtCs8ulvy0Wg6Ot_12delta_kernel6schema10StructTypeECs14kWLkQVSKO_14deltalake_core.exit
end_hunk_6
begin_hunk_7_@_RINvNtCsbvkFyIu7lgC_4core3ptr13drop_in_placeINtNtNtNtCs2pqxYH9ZEk8_3std11collections4hash3map7HashMapNtNtCs8ulvy0Wg6Ot_12delta_kernel6schema18MetadataColumnSpecjEECs14kWLkQVSKO_14deltalake_core:bb.a
  br i1 %i.h, label %_RINvNtCsbvkFyIu7lgC_4core3ptr13drop_in_placeINtNtCs3gpiEk3WpjL_9hashbrown3map7HashMapNtNtCs8ulvy0Wg6Ot_12delta_kernel6schema18MetadataColumnSpecjNtNtNtCs2pqxYH9ZEk8_3std4hash6random11RandomStateEECs14kWLkQVSKO_14deltalake_core.exit, label %bb.b

bb.b:                                             ; preds = %_RNvMs1_NtCs3gpiEk3WpjL_9hashbrown3rawNtB5_11TableLayout20calculate_layout_for.exit.i.i.i.i
  %0 = sub nuw nsw i64 -16, %i.b
  %i.i = getelementptr inbounds i8, ptr %.0.val, i64 %0
  tail call void @_RNvCs8mYq7K4qqSA_7___rustc14___rust_dealloc(ptr noundef nonnull %i.i, i64 noundef %i.e, i64 noundef range(i64 1, -9223372036854775807) 16) #56, !noalias !4741
  br label %_RINvNtCsbvkFyIu7lgC_4core3ptr13drop_in_placeINtNtCs3gpiEk3WpjL_9hashbrown3map7HashMapNtNtCs8ulvy0Wg6Ot_12delta_kernel6schema18MetadataColumnSpecjNtNtNtCs2pqxYH9ZEk8_3std4hash6random11RandomStateEECs14kWLkQVSKO_14deltalake_core.exit
end_hunk_7
begin_hunk_8_@_RNvXsg_NtCs3gpiEk3WpjL_9hashbrown3rawINtB5_8RawTableTNtNtCs6Po7BT7Nknu_5alloc6string6StringINtNtBT_4sync3ArcNtNtCs8VI8w5SIoU4_15datafusion_expr3udf9ScalarUDFEEENtNtNtCsbvkFyIu7lgC_4core3ops4drop4Drop4dropCs14kWLkQVSKO_14deltalake_core:bb.a

bb.e:                                             ; preds = %_RINvMsa_NtCs3gpiEk3WpjL_9hashbrown3rawNtB6_13RawTableInner13drop_elementsTNtNtCs6Po7BT7Nknu_5alloc6string6StringINtNtB1e_4sync3ArcNtNtCs8VI8w5SIoU4_15datafusion_expr3udf9ScalarUDFEEECs14kWLkQVSKO_14deltalake_core.exit.i
  %i.ah = load ptr, ptr %0, align 8, !alias.scope !21133, !nonnull !16, !noundef !16
  %1 = sub nuw nsw i64 -32, %i.aa
  %i.ai = getelementptr inbounds i8, ptr %i.ah, i64 %1
  tail call void @_RNvCs8mYq7K4qqSA_7___rustc14___rust_dealloc(ptr noundef nonnull %i.ai, i64 noundef %i.ad, i64 noundef range(i64 1, -9223372036854775807) 16) #56, !noalias !21133
  br label %_RINvMsa_NtCs3gpiEk3WpjL_9hashbrown3rawNtB6_13RawTableInner16drop_inner_tableTNtNtCs6Po7BT7Nknu_5alloc6string6StringINtNtB1h_4sync3ArcNtNtCs8VI8w5SIoU4_15datafusion_expr3udf9ScalarUDFEENtNtB1h_5alloc6GlobalECs14kWLkQVSKO_14deltalake_core.exit
end_hunk_8
begin_hunk_9_@_RNvXsg_NtCs3gpiEk3WpjL_9hashbrown3rawINtB5_8RawTableTNtNtCs6Po7BT7Nknu_5alloc6string6StringINtNtBT_4sync3ArcNtNtCs8VI8w5SIoU4_15datafusion_expr4udaf12AggregateUDFEEENtNtNtCsbvkFyIu7lgC_4core3ops4drop4Drop4dropCs14kWLkQVSKO_14deltalake_core:bb.a

bb.e:                                             ; preds = %_RINvMsa_NtCs3gpiEk3WpjL_9hashbrown3rawNtB6_13RawTableInner13drop_elementsTNtNtCs6Po7BT7Nknu_5alloc6string6StringINtNtB1e_4sync3ArcNtNtCs8VI8w5SIoU4_15datafusion_expr4udaf12AggregateUDFEEECs14kWLkQVSKO_14deltalake_core.exit.i
  %i.ah = load ptr, ptr %0, align 8, !alias.scope !21150, !nonnull !16, !noundef !16
  %1 = sub nuw nsw i64 -32, %i.aa
  %i.ai = getelementptr inbounds i8, ptr %i.ah, i64 %1
  tail call void @_RNvCs8mYq7K4qqSA_7___rustc14___rust_dealloc(ptr noundef nonnull %i.ai, i64 noundef %i.ad, i64 noundef range(i64 1, -9223372036854775807) 16) #56, !noalias !21150
  br label %_RINvMsa_NtCs3gpiEk3WpjL_9hashbrown3rawNtB6_13RawTableInner16drop_inner_tableTNtNtCs6Po7BT7Nknu_5alloc6string6StringINtNtB1h_4sync3ArcNtNtCs8VI8w5SIoU4_15datafusion_expr4udaf12AggregateUDFEENtNtB1h_5alloc6GlobalECs14kWLkQVSKO_14deltalake_core.exit
end_hunk_9
begin_hunk_10_@_RNvXsg_NtCs3gpiEk3WpjL_9hashbrown3rawINtB5_8RawTableTNtNtCs6Po7BT7Nknu_5alloc6string6StringINtNtBT_4sync3ArcNtNtCs8VI8w5SIoU4_15datafusion_expr4udwf9WindowUDFEEENtNtNtCsbvkFyIu7lgC_4core3ops4drop4Drop4dropCs14kWLkQVSKO_14deltalake_core:bb.a

bb.e:                                             ; preds = %_RINvMsa_NtCs3gpiEk3WpjL_9hashbrown3rawNtB6_13RawTableInner13drop_elementsTNtNtCs6Po7BT7Nknu_5alloc6string6StringINtNtB1e_4sync3ArcNtNtCs8VI8w5SIoU4_15datafusion_expr4udwf9WindowUDFEEECs14kWLkQVSKO_14deltalake_core.exit.i
  %i.ah = load ptr, ptr %0, align 8, !alias.scope !21167, !nonnull !16, !noundef !16
  %1 = sub nuw nsw i64 -32, %i.aa
  %i.ai = getelementptr inbounds i8, ptr %i.ah, i64 %1
  tail call void @_RNvCs8mYq7K4qqSA_7___rustc14___rust_dealloc(ptr noundef nonnull %i.ai, i64 noundef %i.ad, i64 noundef range(i64 1, -9223372036854775807) 16) #56, !noalias !21167
  br label %_RINvMsa_NtCs3gpiEk3WpjL_9hashbrown3rawNtB6_13RawTableInner16drop_inner_tableTNtNtCs6Po7BT7Nknu_5alloc6string6StringINtNtB1h_4sync3ArcNtNtCs8VI8w5SIoU4_15datafusion_expr4udwf9WindowUDFEENtNtB1h_5alloc6GlobalECs14kWLkQVSKO_14deltalake_core.exit
end_hunk_10
begin_hunk_11_@_RNvXsg_NtCs3gpiEk3WpjL_9hashbrown3rawINtB5_8RawTableTNtNtCs6Po7BT7Nknu_5alloc6string6StringINtNtBT_4sync3ArcNtNtCsanCXJAiNsO_18datafusion_catalog5table13TableFunctionEEENtNtNtCsbvkFyIu7lgC_4core3ops4drop4Drop4dropCs14kWLkQVSKO_14deltalake_core:bb.a

bb.e:                                             ; preds = %_RINvMsa_NtCs3gpiEk3WpjL_9hashbrown3rawNtB6_13RawTableInner13drop_elementsTNtNtCs6Po7BT7Nknu_5alloc6string6StringINtNtB1e_4sync3ArcNtNtCsanCXJAiNsO_18datafusion_catalog5table13TableFunctionEEECs14kWLkQVSKO_14deltalake_core.exit.i
  %i.ah = load ptr, ptr %0, align 8, !alias.scope !21184, !nonnull !16, !noundef !16
  %1 = sub nuw nsw i64 -32, %i.aa
  %i.ai = getelementptr inbounds i8, ptr %i.ah, i64 %1
  tail call void @_RNvCs8mYq7K4qqSA_7___rustc14___rust_dealloc(ptr noundef nonnull %i.ai, i64 noundef %i.ad, i64 noundef range(i64 1, -9223372036854775807) 16) #56, !noalias !21184
  br label %_RINvMsa_NtCs3gpiEk3WpjL_9hashbrown3rawNtB6_13RawTableInner16drop_inner_tableTNtNtCs6Po7BT7Nknu_5alloc6string6StringINtNtB1h_4sync3ArcNtNtCsanCXJAiNsO_18datafusion_catalog5table13TableFunctionEENtNtB1h_5alloc6GlobalECs14kWLkQVSKO_14deltalake_core.exit
end_hunk_11
begin_hunk_12_@_RNvXsg_NtCs3gpiEk3WpjL_9hashbrown3rawINtB5_8RawTableTNtNtCs6Po7BT7Nknu_5alloc6string6StringINtNtBT_4sync3ArcNtNtNtCs8Hz2sPNgbCO_10datafusion9execution13session_state12PreparedPlanEEENtNtNtCsbvkFyIu7lgC_4core3ops4drop4Drop4dropCs14kWLkQVSKO_14deltalake_core:bb.a

bb.e:                                             ; preds = %_RINvMsa_NtCs3gpiEk3WpjL_9hashbrown3rawNtB6_13RawTableInner13drop_elementsTNtNtCs6Po7BT7Nknu_5alloc6string6StringINtNtB1e_4sync3ArcNtNtNtCs8Hz2sPNgbCO_10datafusion9execution13session_state12PreparedPlanEEECs14kWLkQVSKO_14deltalake_core.exit.i
  %i.ah = load ptr, ptr %0, align 8, !alias.scope !21201, !nonnull !16, !noundef !16
  %1 = sub nuw nsw i64 -32, %i.aa
  %i.ai = getelementptr inbounds i8, ptr %i.ah, i64 %1
  tail call void @_RNvCs8mYq7K4qqSA_7___rustc14___rust_dealloc(ptr noundef nonnull %i.ai, i64 noundef %i.ad, i64 noundef range(i64 1, -9223372036854775807) 16) #56, !noalias !21201
  br label %_RINvMsa_NtCs3gpiEk3WpjL_9hashbrown3rawNtB6_13RawTableInner16drop_inner_tableTNtNtCs6Po7BT7Nknu_5alloc6string6StringINtNtB1h_4sync3ArcNtNtNtCs8Hz2sPNgbCO_10datafusion9execution13session_state12PreparedPlanEENtNtB1h_5alloc6GlobalECs14kWLkQVSKO_14deltalake_core.exit
end_hunk_12
begin_hunk_13_@_RNvXsg_NtCs3gpiEk3WpjL_9hashbrown3rawINtB5_8RawTableTNtNtCs6Po7BT7Nknu_5alloc6string6StringINtNtBT_4sync3ArcNtNtNtCs8VI8w5SIoU4_15datafusion_expr12logical_plan4plan11LogicalPlanEEENtNtNtCsbvkFyIu7lgC_4core3ops4drop4Drop4dropCs14kWLkQVSKO_14deltalake_core:bb.a

bb.e:                                             ; preds = %_RINvMsa_NtCs3gpiEk3WpjL_9hashbrown3rawNtB6_13RawTableInner13drop_elementsTNtNtCs6Po7BT7Nknu_5alloc6string6StringINtNtB1e_4sync3ArcNtNtNtCs8VI8w5SIoU4_15datafusion_expr12logical_plan4plan11LogicalPlanEEECs14kWLkQVSKO_14deltalake_core.exit.i
  %i.ah = load ptr, ptr %0, align 8, !alias.scope !21218, !nonnull !16, !noundef !16
  %1 = sub nuw nsw i64 -32, %i.aa
  %i.ai = getelementptr inbounds i8, ptr %i.ah, i64 %1
  tail call void @_RNvCs8mYq7K4qqSA_7___rustc14___rust_dealloc(ptr noundef nonnull %i.ai, i64 noundef %i.ad, i64 noundef range(i64 1, -9223372036854775807) 16) #56, !noalias !21218
  br label %_RINvMsa_NtCs3gpiEk3WpjL_9hashbrown3rawNtB6_13RawTableInner16drop_inner_tableTNtNtCs6Po7BT7Nknu_5alloc6string6StringINtNtB1h_4sync3ArcNtNtNtCs8VI8w5SIoU4_15datafusion_expr12logical_plan4plan11LogicalPlanEENtNtB1h_5alloc6GlobalECs14kWLkQVSKO_14deltalake_core.exit
end_hunk_13
begin_hunk_14_@_RNvXsg_NtCs3gpiEk3WpjL_9hashbrown3rawINtB5_8RawTableTNtNtCs6Po7BT7Nknu_5alloc6string6StringNtNtNtCs8ulvy0Wg6Ot_12delta_kernel11expressions7scalars6ScalarEENtNtNtCsbvkFyIu7lgC_4core3ops4drop4Drop4dropCs14kWLkQVSKO_14deltalake_core:bb.a

bb.j:                                             ; preds = %_RINvMsa_NtCs3gpiEk3WpjL_9hashbrown3rawNtB6_13RawTableInner13drop_elementsTNtNtCs6Po7BT7Nknu_5alloc6string6StringNtNtNtCs8ulvy0Wg6Ot_12delta_kernel11expressions7scalars6ScalarEECs14kWLkQVSKO_14deltalake_core.exit.i
  %i.an = load ptr, ptr %0, align 8, !alias.scope !21467, !nonnull !16, !noundef !16
  %1 = sub nuw nsw i64 -128, %i.ag
  %i.ao = getelementptr inbounds i8, ptr %i.an, i64 %1
  tail call void @_RNvCs8mYq7K4qqSA_7___rustc14___rust_dealloc(ptr noundef nonnull %i.ao, i64 noundef %i.aj, i64 noundef range(i64 1, -9223372036854775807) 16) #56, !noalias !21467
  br label %_RINvMsa_NtCs3gpiEk3WpjL_9hashbrown3rawNtB6_13RawTableInner16drop_inner_tableTNtNtCs6Po7BT7Nknu_5alloc6string6StringNtNtNtCs8ulvy0Wg6Ot_12delta_kernel11expressions7scalars6ScalarENtNtB1h_5alloc6GlobalECs14kWLkQVSKO_14deltalake_core.exit
end_hunk_14
begin_hunk_15_@_RNvXsg_NtCs3gpiEk3WpjL_9hashbrown3rawINtB5_8RawTableTNtNtCs6Po7BT7Nknu_5alloc6string6StringTINtNtCsbpG6u9KFjWn_8indexmap3map8IndexMapBP_NtNtNtCs8ulvy0Wg6Ot_12delta_kernel11expressions7scalars6ScalarENtNtNtCs14kWLkQVSKO_14deltalake_core10operations8optimize8MergeBinEEENtNtNtCsbvkFyIu7lgC_4core3ops4drop4Drop4dropB3h_:bb.a

bb.j:                                             ; preds = %_RINvMsa_NtCs3gpiEk3WpjL_9hashbrown3rawNtB6_13RawTableInner13drop_elementsTNtNtCs6Po7BT7Nknu_5alloc6string6StringTINtNtCsbpG6u9KFjWn_8indexmap3map8IndexMapB1a_NtNtNtCs8ulvy0Wg6Ot_12delta_kernel11expressions7scalars6ScalarENtNtNtCs14kWLkQVSKO_14deltalake_core10operations8optimize8MergeBinEEEB3D_.exit.i
  %i.an = load ptr, ptr %0, align 8, !alias.scope !21535, !nonnull !16, !noundef !16
  %1 = sub nuw nsw i64 -128, %i.ag
  %i.ao = getelementptr inbounds i8, ptr %i.an, i64 %1
  tail call void @_RNvCs8mYq7K4qqSA_7___rustc14___rust_dealloc(ptr noundef nonnull %i.ao, i64 noundef %i.aj, i64 noundef range(i64 1, -9223372036854775807) 16) #56, !noalias !21535
  br label %_RINvMsa_NtCs3gpiEk3WpjL_9hashbrown3rawNtB6_13RawTableInner16drop_inner_tableTNtNtCs6Po7BT7Nknu_5alloc6string6StringTINtNtCsbpG6u9KFjWn_8indexmap3map8IndexMapB1d_NtNtNtCs8ulvy0Wg6Ot_12delta_kernel11expressions7scalars6ScalarENtNtNtCs14kWLkQVSKO_14deltalake_core10operations8optimize8MergeBinEENtNtB1h_5alloc6GlobalEB3G_.exit
end_hunk_15
begin_hunk_16_@_RNvXsg_NtCs3gpiEk3WpjL_9hashbrown3rawINtB5_8RawTableTNtNtCs6Po7BT7Nknu_5alloc6string6StringjEENtNtNtCsbvkFyIu7lgC_4core3ops4drop4Drop4dropCs14kWLkQVSKO_14deltalake_core:bb.a

bb.g:                                             ; preds = %_RINvMsa_NtCs3gpiEk3WpjL_9hashbrown3rawNtB6_13RawTableInner13drop_elementsTNtNtCs6Po7BT7Nknu_5alloc6string6StringjEECs14kWLkQVSKO_14deltalake_core.exit.i
  %i.aj = load ptr, ptr %0, align 8, !alias.scope !21569, !nonnull !16, !noundef !16
  %1 = sub nuw nsw i64 -32, %i.ac
  %i.ak = getelementptr inbounds i8, ptr %i.aj, i64 %1
  tail call void @_RNvCs8mYq7K4qqSA_7___rustc14___rust_dealloc(ptr noundef nonnull %i.ak, i64 noundef %i.af, i64 noundef range(i64 1, -9223372036854775807) 16) #56, !noalias !21569
  br label %_RINvMsa_NtCs3gpiEk3WpjL_9hashbrown3rawNtB6_13RawTableInner16drop_inner_tableTNtNtCs6Po7BT7Nknu_5alloc6string6StringjENtNtB1h_5alloc6GlobalECs14kWLkQVSKO_14deltalake_core.exit
end_hunk_16
begin_hunk_17_@_RNvXsg_NtCs3gpiEk3WpjL_9hashbrown3rawINtB5_8RawTableTNtNtCs8ulvy0Wg6Ot_12delta_kernel6schema18MetadataColumnSpecjEENtNtNtCsbvkFyIu7lgC_4core3ops4drop4Drop4dropCs14kWLkQVSKO_14deltalake_core:bb.a
  br i1 %i.i, label %_RINvMsa_NtCs3gpiEk3WpjL_9hashbrown3rawNtB6_13RawTableInner16drop_inner_tableTNtNtCs8ulvy0Wg6Ot_12delta_kernel6schema18MetadataColumnSpecjENtNtCs6Po7BT7Nknu_5alloc5alloc6GlobalECs14kWLkQVSKO_14deltalake_core.exit, label %bb.b

bb.b:                                             ; preds = %_RNvMs1_NtCs3gpiEk3WpjL_9hashbrown3rawNtB5_11TableLayout20calculate_layout_for.exit.i
  %1 = sub nuw nsw i64 -16, %i.c
  %i.j = getelementptr inbounds i8, ptr %.val, i64 %1
  tail call void @_RNvCs8mYq7K4qqSA_7___rustc14___rust_dealloc(ptr noundef nonnull %i.j, i64 noundef %i.f, i64 noundef range(i64 1, -9223372036854775807) 16) #56
  br label %_RINvMsa_NtCs3gpiEk3WpjL_9hashbrown3rawNtB6_13RawTableInner16drop_inner_tableTNtNtCs8ulvy0Wg6Ot_12delta_kernel6schema18MetadataColumnSpecjENtNtCs6Po7BT7Nknu_5alloc5alloc6GlobalECs14kWLkQVSKO_14deltalake_core.exit
end_hunk_17
begin_hunk_18_@_RNvXsg_NtCs3gpiEk3WpjL_9hashbrown3rawINtB5_8RawTableTNtNtCsbvkFyIu7lgC_4core3any6TypeIdINtNtCs6Po7BT7Nknu_5alloc4sync3ArcDNtBR_3AnyNtNtBT_6marker4SyncNtB27_4SendEL_EEENtNtNtBT_3ops4drop4Drop4dropCs14kWLkQVSKO_14deltalake_core:bb.a

bb.f:                                             ; preds = %_RINvMsa_NtCs3gpiEk3WpjL_9hashbrown3rawNtB6_13RawTableInner13drop_elementsTNtNtCsbvkFyIu7lgC_4core3any6TypeIdINtNtCs6Po7BT7Nknu_5alloc4sync3ArcDNtB1c_3AnyNtNtB1e_6marker4SyncNtB2t_4SendEL_EEECs14kWLkQVSKO_14deltalake_core.exit.i
  %i.ak = load ptr, ptr %0, align 8, !alias.scope !21666, !nonnull !16, !noundef !16
  %1 = sub nuw nsw i64 -32, %i.ad
  %i.al = getelementptr inbounds i8, ptr %i.ak, i64 %1
  tail call void @_RNvCs8mYq7K4qqSA_7___rustc14___rust_dealloc(ptr noundef nonnull %i.al, i64 noundef %i.ag, i64 noundef range(i64 1, -9223372036854775807) 16) #56, !noalias !21666
  br label %_RINvMsa_NtCs3gpiEk3WpjL_9hashbrown3rawNtB6_13RawTableInner16drop_inner_tableTNtNtCsbvkFyIu7lgC_4core3any6TypeIdINtNtCs6Po7BT7Nknu_5alloc4sync3ArcDNtB1f_3AnyNtNtB1h_6marker4SyncNtB2w_4SendEL_EENtNtB1Q_5alloc6GlobalECs14kWLkQVSKO_14deltalake_core.exit
end_hunk_18
begin_hunk_19_@_RNvXsg_NtCs3gpiEk3WpjL_9hashbrown3rawINtB5_8RawTableTNtNtCsbvkFyIu7lgC_4core3any6TypeIdINtNtCs6Po7BT7Nknu_5alloc5boxed3BoxDNtNtCs4j34XAPZOn0_4http10extensions8AnyCloneNtNtBT_6marker4SyncNtB2H_4SendEL_EEENtNtNtBT_3ops4drop4Drop4dropCs14kWLkQVSKO_14deltalake_core:bb.a

bb.h:                                             ; preds = %_RINvMsa_NtCs3gpiEk3WpjL_9hashbrown3rawNtB6_13RawTableInner13drop_elementsTNtNtCsbvkFyIu7lgC_4core3any6TypeIdINtNtCs6Po7BT7Nknu_5alloc5boxed3BoxDNtNtCs4j34XAPZOn0_4http10extensions8AnyCloneNtNtB1e_6marker4SyncNtB32_4SendEL_EEECs14kWLkQVSKO_14deltalake_core.exit.i
  %i.au = load ptr, ptr %0, align 8, !alias.scope !21694, !nonnull !16, !noundef !16
  %1 = sub nuw nsw i64 -32, %i.an
  %i.av = getelementptr inbounds i8, ptr %i.au, i64 %1
  tail call void @_RNvCs8mYq7K4qqSA_7___rustc14___rust_dealloc(ptr noundef nonnull %i.av, i64 noundef %i.aq, i64 noundef range(i64 1, -9223372036854775807) 16) #56, !noalias !21694
  br label %_RINvMsa_NtCs3gpiEk3WpjL_9hashbrown3rawNtB6_13RawTableInner16drop_inner_tableTNtNtCsbvkFyIu7lgC_4core3any6TypeIdINtNtCs6Po7BT7Nknu_5alloc5boxed3BoxDNtNtCs4j34XAPZOn0_4http10extensions8AnyCloneNtNtB1h_6marker4SyncNtB35_4SendEL_EENtNtB1Q_5alloc6GlobalECs14kWLkQVSKO_14deltalake_core.exit
end_hunk_19
begin_hunk_20_@_RNvXsg_NtCs3gpiEk3WpjL_9hashbrown3rawINtB5_8RawTableTNtNtCsjhHCjzi9uUI_17datafusion_common6scalar11ScalarValueuEENtNtNtCsbvkFyIu7lgC_4core3ops4drop4Drop4dropCs14kWLkQVSKO_14deltalake_core:bb.a

bb.e:                                             ; preds = %_RINvMsa_NtCs3gpiEk3WpjL_9hashbrown3rawNtB6_13RawTableInner13drop_elementsTNtNtCsjhHCjzi9uUI_17datafusion_common6scalar11ScalarValueuEECs14kWLkQVSKO_14deltalake_core.exit.i
  %i.ah = load ptr, ptr %0, align 8, !alias.scope !21762, !nonnull !16, !noundef !16
  %1 = sub nuw nsw i64 -64, %i.aa
  %i.ai = getelementptr inbounds i8, ptr %i.ah, i64 %1
  tail call void @_RNvCs8mYq7K4qqSA_7___rustc14___rust_dealloc(ptr noundef nonnull %i.ai, i64 noundef %i.ad, i64 noundef range(i64 1, -9223372036854775807) 16) #56, !noalias !21762
  br label %_RINvMsa_NtCs3gpiEk3WpjL_9hashbrown3rawNtB6_13RawTableInner16drop_inner_tableTNtNtCsjhHCjzi9uUI_17datafusion_common6scalar11ScalarValueuENtNtCs6Po7BT7Nknu_5alloc5alloc6GlobalECs14kWLkQVSKO_14deltalake_core.exit
end_hunk_20
begin_hunk_21_@_RNvXsg_NtCs3gpiEk3WpjL_9hashbrown3rawINtB5_8RawTableTNtNtNtCs14kWLkQVSKO_14deltalake_core5table6config13TablePropertyNtNtCs6Po7BT7Nknu_5alloc6string6StringEENtNtNtCsbvkFyIu7lgC_4core3ops4drop4Drop4dropBV_:bb.a

bb.g:                                             ; preds = %_RINvMsa_NtCs3gpiEk3WpjL_9hashbrown3rawNtB6_13RawTableInner13drop_elementsTNtNtNtCs14kWLkQVSKO_14deltalake_core5table6config13TablePropertyNtNtCs6Po7BT7Nknu_5alloc6string6StringEEB1g_.exit.i
  %i.aj = load ptr, ptr %0, align 8, !alias.scope !21847, !nonnull !16, !noundef !16
  %1 = sub nuw nsw i64 -32, %i.ac
  %i.ak = getelementptr inbounds i8, ptr %i.aj, i64 %1
  tail call void @_RNvCs8mYq7K4qqSA_7___rustc14___rust_dealloc(ptr noundef nonnull %i.ak, i64 noundef %i.af, i64 noundef range(i64 1, -9223372036854775807) 16) #56, !noalias !21847
  br label %_RINvMsa_NtCs3gpiEk3WpjL_9hashbrown3rawNtB6_13RawTableInner16drop_inner_tableTNtNtNtCs14kWLkQVSKO_14deltalake_core5table6config13TablePropertyNtNtCs6Po7BT7Nknu_5alloc6string6StringENtNtB2j_5alloc6GlobalEB1j_.exit
end_hunk_21
begin_hunk_22_@_RNvXsg_NtCs3gpiEk3WpjL_9hashbrown3rawINtB5_8RawTableTNtNtNtCseWCzT31uaQ9_11comfy_table5style5table14TableComponentcEENtNtNtCsbvkFyIu7lgC_4core3ops4drop4Drop4dropCs14kWLkQVSKO_14deltalake_core:bb.a
  br i1 %i.k, label %_RINvMsa_NtCs3gpiEk3WpjL_9hashbrown3rawNtB6_13RawTableInner16drop_inner_tableTNtNtNtCseWCzT31uaQ9_11comfy_table5style5table14TableComponentcENtNtCs6Po7BT7Nknu_5alloc5alloc6GlobalECs14kWLkQVSKO_14deltalake_core.exit, label %bb.b

bb.b:                                             ; preds = %_RNvMs1_NtCs3gpiEk3WpjL_9hashbrown3rawNtB5_11TableLayout20calculate_layout_for.exit.i
  %1 = sub nuw nsw i64 -16, %i.e
  %i.l = getelementptr inbounds i8, ptr %.val, i64 %1
  tail call void @_RNvCs8mYq7K4qqSA_7___rustc14___rust_dealloc(ptr noundef nonnull %i.l, i64 noundef %i.h, i64 noundef range(i64 1, -9223372036854775807) 16) #56
  br label %_RINvMsa_NtCs3gpiEk3WpjL_9hashbrown3rawNtB6_13RawTableInner16drop_inner_tableTNtNtNtCseWCzT31uaQ9_11comfy_table5style5table14TableComponentcENtNtCs6Po7BT7Nknu_5alloc5alloc6GlobalECs14kWLkQVSKO_14deltalake_core.exit
end_hunk_22
begin_hunk_23_@_RNvXsg_NtCs3gpiEk3WpjL_9hashbrown3rawINtB5_8RawTableTRNtNtCs6Po7BT7Nknu_5alloc6string6StringBQ_EENtNtNtCsbvkFyIu7lgC_4core3ops4drop4Drop4dropCs14kWLkQVSKO_14deltalake_core:bb.a

bb.g:                                             ; preds = %_RINvMsa_NtCs3gpiEk3WpjL_9hashbrown3rawNtB6_13RawTableInner13drop_elementsTRNtNtCs6Po7BT7Nknu_5alloc6string6StringB1b_EECs14kWLkQVSKO_14deltalake_core.exit.i
  %i.aj = load ptr, ptr %0, align 8, !alias.scope !21929, !nonnull !16, !noundef !16
  %1 = sub nuw nsw i64 -32, %i.ac
  %i.ak = getelementptr inbounds i8, ptr %i.aj, i64 %1
  tail call void @_RNvCs8mYq7K4qqSA_7___rustc14___rust_dealloc(ptr noundef nonnull %i.ak, i64 noundef %i.af, i64 noundef range(i64 1, -9223372036854775807) 16) #56, !noalias !21929
  br label %_RINvMsa_NtCs3gpiEk3WpjL_9hashbrown3rawNtB6_13RawTableInner16drop_inner_tableTRNtNtCs6Po7BT7Nknu_5alloc6string6StringB1e_ENtNtB1i_5alloc6GlobalECs14kWLkQVSKO_14deltalake_core.exit
end_hunk_23
begin_hunk_24_@_RNvXsg_NtCs3gpiEk3WpjL_9hashbrown3rawINtB5_8RawTableTRNtNtCs6Po7BT7Nknu_5alloc6string6StringuEENtNtNtCsbvkFyIu7lgC_4core3ops4drop4Drop4dropCs14kWLkQVSKO_14deltalake_core:bb.a
  br i1 %i.k, label %_RINvMsa_NtCs3gpiEk3WpjL_9hashbrown3rawNtB6_13RawTableInner16drop_inner_tableTRNtNtCs6Po7BT7Nknu_5alloc6string6StringuENtNtB1i_5alloc6GlobalECs14kWLkQVSKO_14deltalake_core.exit, label %bb.b

bb.b:                                             ; preds = %_RNvMs1_NtCs3gpiEk3WpjL_9hashbrown3rawNtB5_11TableLayout20calculate_layout_for.exit.i
  %1 = sub nuw nsw i64 -16, %i.e
  %i.l = getelementptr inbounds i8, ptr %.val, i64 %1
  tail call void @_RNvCs8mYq7K4qqSA_7___rustc14___rust_dealloc(ptr noundef nonnull %i.l, i64 noundef %i.h, i64 noundef range(i64 1, -9223372036854775807) 16) #56
  br label %_RINvMsa_NtCs3gpiEk3WpjL_9hashbrown3rawNtB6_13RawTableInner16drop_inner_tableTRNtNtCs6Po7BT7Nknu_5alloc6string6StringuENtNtB1i_5alloc6GlobalECs14kWLkQVSKO_14deltalake_core.exit
end_hunk_24
begin_hunk_25_@_RNvXsg_NtCs3gpiEk3WpjL_9hashbrown3rawINtB5_8RawTableTRNtNtCsjhHCjzi9uUI_17datafusion_common6column6ColumnuEENtNtNtCsbvkFyIu7lgC_4core3ops4drop4Drop4dropCs14kWLkQVSKO_14deltalake_core:bb.a
  br i1 %i.k, label %_RINvMsa_NtCs3gpiEk3WpjL_9hashbrown3rawNtB6_13RawTableInner16drop_inner_tableTRNtNtCsjhHCjzi9uUI_17datafusion_common6column6ColumnuENtNtCs6Po7BT7Nknu_5alloc5alloc6GlobalECs14kWLkQVSKO_14deltalake_core.exit, label %bb.b

bb.b:                                             ; preds = %_RNvMs1_NtCs3gpiEk3WpjL_9hashbrown3rawNtB5_11TableLayout20calculate_layout_for.exit.i
  %1 = sub nuw nsw i64 -16, %i.e
  %i.l = getelementptr inbounds i8, ptr %.val, i64 %1
  tail call void @_RNvCs8mYq7K4qqSA_7___rustc14___rust_dealloc(ptr noundef nonnull %i.l, i64 noundef %i.h, i64 noundef range(i64 1, -9223372036854775807) 16) #56
  br label %_RINvMsa_NtCs3gpiEk3WpjL_9hashbrown3rawNtB6_13RawTableInner16drop_inner_tableTRNtNtCsjhHCjzi9uUI_17datafusion_common6column6ColumnuENtNtCs6Po7BT7Nknu_5alloc5alloc6GlobalECs14kWLkQVSKO_14deltalake_core.exit
end_hunk_25
begin_hunk_26_@_RNvXsh_NtCs3gpiEk3WpjL_9hashbrown3rawINtB5_8RawTableTNtNtCs6Po7BT7Nknu_5alloc6string6StringNtNtNtCs8ulvy0Wg6Ot_12delta_kernel11expressions7scalars6ScalarEENtNtNtNtCsbvkFyIu7lgC_4core4iter6traits7collect12IntoIterator9into_iterCs14kWLkQVSKO_14deltalake_core:bb.a
  tail call void @llvm.assume(i1 %i.m)
  %i.n = icmp ult i64 %i.l, 9223372036854775793
  tail call void @llvm.assume(i1 %i.n)
  %2 = sub nuw nsw i64 -128, %i.i
  %i.o = getelementptr inbounds i8, ptr %i.a, i64 %2
  br label %_RNvMs6_NtCs3gpiEk3WpjL_9hashbrown3rawINtB5_8RawTableTNtNtCs6Po7BT7Nknu_5alloc6string6StringNtNtNtCs8ulvy0Wg6Ot_12delta_kernel11expressions7scalars6ScalarEE15into_allocationCs14kWLkQVSKO_14deltalake_core.exit

end_hunk_26
begin_hunk_27_@_RNvXsh_NtCs3gpiEk3WpjL_9hashbrown3rawINtB5_8RawTableTNtNtCs6Po7BT7Nknu_5alloc6string6StringTINtNtCsbpG6u9KFjWn_8indexmap3map8IndexMapBP_NtNtNtCs8ulvy0Wg6Ot_12delta_kernel11expressions7scalars6ScalarENtNtNtCs14kWLkQVSKO_14deltalake_core10operations8optimize8MergeBinEEENtNtNtNtCsbvkFyIu7lgC_4core4iter6traits7collect12IntoIterator9into_iterB3h_:bb.a
  tail call void @llvm.assume(i1 %i.m)
  %i.n = icmp ult i64 %i.l, 9223372036854775793
  tail call void @llvm.assume(i1 %i.n)
  %2 = sub nuw nsw i64 -128, %i.i
  %i.o = getelementptr inbounds i8, ptr %i.a, i64 %2
  br label %_RNvMs6_NtCs3gpiEk3WpjL_9hashbrown3rawINtB5_8RawTableTNtNtCs6Po7BT7Nknu_5alloc6string6StringTINtNtCsbpG6u9KFjWn_8indexmap3map8IndexMapBP_NtNtNtCs8ulvy0Wg6Ot_12delta_kernel11expressions7scalars6ScalarENtNtNtCs14kWLkQVSKO_14deltalake_core10operations8optimize8MergeBinEEE15into_allocationB3h_.exit

end_hunk_27
begin_hunk_28_@_RNvXsh_NtCs3gpiEk3WpjL_9hashbrown3rawINtB5_8RawTableTRNtNtCs6Po7BT7Nknu_5alloc6string6StringBQ_EENtNtNtNtCsbvkFyIu7lgC_4core4iter6traits7collect12IntoIterator9into_iterCs14kWLkQVSKO_14deltalake_core:bb.a
  tail call void @llvm.assume(i1 %i.m)
  %i.n = icmp ult i64 %i.l, 9223372036854775793
  tail call void @llvm.assume(i1 %i.n)
  %2 = sub nuw nsw i64 -32, %i.i
  %i.o = getelementptr inbounds i8, ptr %i.a, i64 %2
  br label %_RNvMs6_NtCs3gpiEk3WpjL_9hashbrown3rawINtB5_8RawTableTRNtNtCs6Po7BT7Nknu_5alloc6string6StringBQ_EE15into_allocationCs14kWLkQVSKO_14deltalake_core.exit

end_hunk_28
begin_hunk_29_@_RNvXsh_NtCs3gpiEk3WpjL_9hashbrown3rawINtB5_8RawTableTRNtNtCsjhHCjzi9uUI_17datafusion_common6column6ColumnuEENtNtNtNtCsbvkFyIu7lgC_4core4iter6traits7collect12IntoIterator9into_iterCs14kWLkQVSKO_14deltalake_core:bb.a
  tail call void @llvm.assume(i1 %i.m)
  %i.n = icmp ult i64 %i.l, 9223372036854775793
  tail call void @llvm.assume(i1 %i.n)
  %2 = sub nuw nsw i64 -16, %i.i
  %i.o = getelementptr inbounds i8, ptr %i.a, i64 %2
  br label %_RNvMs6_NtCs3gpiEk3WpjL_9hashbrown3rawINtB5_8RawTableTRNtNtCsjhHCjzi9uUI_17datafusion_common6column6ColumnuEE15into_allocationCs14kWLkQVSKO_14deltalake_core.exit

end_hunk_29
begin_hunk_30_@_RNvXsh_NtCs3gpiEk3WpjL_9hashbrown3rawINtB5_8RawTableTRNtNtNtCs8ulvy0Wg6Ot_12delta_kernel11expressions12column_names10ColumnNameuEENtNtNtNtCsbvkFyIu7lgC_4core4iter6traits7collect12IntoIterator9into_iterCs14kWLkQVSKO_14deltalake_core:bb.a
  tail call void @llvm.assume(i1 %i.m)
  %i.n = icmp ult i64 %i.l, 9223372036854775793
  tail call void @llvm.assume(i1 %i.n)
  %2 = sub nuw nsw i64 -16, %i.i
  %i.o = getelementptr inbounds i8, ptr %i.a, i64 %2
  br label %_RNvMs6_NtCs3gpiEk3WpjL_9hashbrown3rawINtB5_8RawTableTRNtNtNtCs8ulvy0Wg6Ot_12delta_kernel11expressions12column_names10ColumnNameuEE15into_allocationCs14kWLkQVSKO_14deltalake_core.exit

end_hunk_30
