begin_hunk_0
  %143 = getelementptr inbounds nuw i8, ptr %28, i64 56
  %144 = getelementptr inbounds nuw i8, ptr %28, i64 72
  %145 = load ptr, ptr %141, align 8, !alias.scope !8711, !noalias !8733
  %.fr.i = freeze ptr %145
  %.not.i.i.i.i.i.i.i = icmp eq ptr %.fr.i, null
  %146 = load i64, ptr %142, align 8, !alias.scope !8711, !noalias !8733
  %147 = load ptr, ptr %143, align 8, !alias.scope !8711, !noalias !8733
  %148 = load i64, ptr %144, align 8, !alias.scope !8711, !noalias !8733
end_hunk_0
begin_hunk_1
  %169 = and i8 %168, 7
  %170 = xor i8 %167, -1
  %171 = lshr i8 %170, %169
  %.fr8.i.i.i.i = freeze i8 %171
  %172 = trunc i8 %.fr8.i.i.i.i to i1
  br i1 %172, label %_RNCINvNvXs_NtNtNtCsbvkFyIu7lgC_4core4iter8adapters9enumerateINtB9_9EnumeratepENtNtNtBd_6traits8iterator8Iterator8try_fold9enumerateRmuINtNtNtBf_3ops12control_flow11ControlFlowTjB25_EENCINvNvB1e_4find5checkB2N_NCNvMs_NtNtCs1N9T06jgEdt_11arrow_array5array16dictionary_arrayINtB3s_15DictionaryArrayNtNtB3w_5types10UInt32TypeE7try_new0E0E0Cs14kWLkQVSKO_14deltalake_core.exit.i.i, label %.split.i

_RNCINvNvXs_NtNtNtCsbvkFyIu7lgC_4core4iter8adapters9enumerateINtB9_9EnumeratepENtNtNtBd_6traits8iterator8Iterator8try_fold9enumerateRmuINtNtNtBf_3ops12control_flow11ControlFlowTjB25_EENCINvNvB1e_4find5checkB2N_NCNvMs_NtNtCs1N9T06jgEdt_11arrow_array5array16dictionary_arrayINtB3s_15DictionaryArrayNtNtB3w_5types10UInt32TypeE7try_new0E0E0Cs14kWLkQVSKO_14deltalake_core.exit.i.i: ; preds = %_RNCNvMs_NtNtCs1N9T06jgEdt_11arrow_array5array16dictionary_arrayINtB6_15DictionaryArrayNtNtBa_5types10UInt32TypeE7try_new0Cs14kWLkQVSKO_14deltalake_core.exit.i.i.i.i, %.lr.ph.i.split.i
end_hunk_1
begin_hunk_2
  %143 = getelementptr inbounds nuw i8, ptr %28, i64 56
  %144 = getelementptr inbounds nuw i8, ptr %28, i64 72
  %145 = load ptr, ptr %141, align 8, !alias.scope !8818, !noalias !8840
  %.fr.i = freeze ptr %145
  %.not.i.i.i.i.i.i.i = icmp eq ptr %.fr.i, null
  %146 = load i64, ptr %142, align 8, !alias.scope !8818, !noalias !8840
  %147 = load ptr, ptr %143, align 8, !alias.scope !8818, !noalias !8840
  %148 = load i64, ptr %144, align 8, !alias.scope !8818, !noalias !8840
end_hunk_2
begin_hunk_3
  %167 = and i8 %166, 7
  %168 = xor i8 %165, -1
  %169 = lshr i8 %168, %167
  %.fr8.i.i.i.i = freeze i8 %169
  %170 = trunc i8 %.fr8.i.i.i.i to i1
  br i1 %170, label %_RNCINvNvXs_NtNtNtCsbvkFyIu7lgC_4core4iter8adapters9enumerateINtB9_9EnumeratepENtNtNtBd_6traits8iterator8Iterator8try_fold9enumerateRyuINtNtNtBf_3ops12control_flow11ControlFlowTjB25_EENCINvNvB1e_4find5checkB2N_NCNvMs_NtNtCs1N9T06jgEdt_11arrow_array5array16dictionary_arrayINtB3s_15DictionaryArrayNtNtB3w_5types10UInt64TypeE7try_new0E0E0Cs14kWLkQVSKO_14deltalake_core.exit.i.i, label %.split.i

_RNCINvNvXs_NtNtNtCsbvkFyIu7lgC_4core4iter8adapters9enumerateINtB9_9EnumeratepENtNtNtBd_6traits8iterator8Iterator8try_fold9enumerateRyuINtNtNtBf_3ops12control_flow11ControlFlowTjB25_EENCINvNvB1e_4find5checkB2N_NCNvMs_NtNtCs1N9T06jgEdt_11arrow_array5array16dictionary_arrayINtB3s_15DictionaryArrayNtNtB3w_5types10UInt64TypeE7try_new0E0E0Cs14kWLkQVSKO_14deltalake_core.exit.i.i: ; preds = %_RNCNvMs_NtNtCs1N9T06jgEdt_11arrow_array5array16dictionary_arrayINtB6_15DictionaryArrayNtNtBa_5types10UInt64TypeE7try_new0Cs14kWLkQVSKO_14deltalake_core.exit.i.i.i.i, %.lr.ph.i.split.i
end_hunk_3
begin_hunk_4
  %143 = getelementptr inbounds nuw i8, ptr %28, i64 56
  %144 = getelementptr inbounds nuw i8, ptr %28, i64 72
  %145 = load ptr, ptr %141, align 8, !alias.scope !8925, !noalias !8947
  %.fr.i = freeze ptr %145
  %.not.i.i.i.i.i.i.i = icmp eq ptr %.fr.i, null
  %146 = load i64, ptr %142, align 8, !alias.scope !8925, !noalias !8947
  %147 = load ptr, ptr %143, align 8, !alias.scope !8925, !noalias !8947
  %148 = load i64, ptr %144, align 8, !alias.scope !8925, !noalias !8947
end_hunk_4
begin_hunk_5
  %171 = and i8 %170, 7
  %172 = xor i8 %169, -1
  %173 = lshr i8 %172, %171
  %.fr8.i.i.i.i = freeze i8 %173
  %174 = trunc i8 %.fr8.i.i.i.i to i1
  br i1 %174, label %_RNCINvNvXs_NtNtNtCsbvkFyIu7lgC_4core4iter8adapters9enumerateINtB9_9EnumeratepENtNtNtBd_6traits8iterator8Iterator8try_fold9enumerateRauINtNtNtBf_3ops12control_flow11ControlFlowTjB25_EENCINvNvB1e_4find5checkB2N_NCNvMs_NtNtCs1N9T06jgEdt_11arrow_array5array16dictionary_arrayINtB3s_15DictionaryArrayNtNtB3w_5types8Int8TypeE7try_new0E0E0Cs14kWLkQVSKO_14deltalake_core.exit.i.i, label %.split.i

_RNCINvNvXs_NtNtNtCsbvkFyIu7lgC_4core4iter8adapters9enumerateINtB9_9EnumeratepENtNtNtBd_6traits8iterator8Iterator8try_fold9enumerateRauINtNtNtBf_3ops12control_flow11ControlFlowTjB25_EENCINvNvB1e_4find5checkB2N_NCNvMs_NtNtCs1N9T06jgEdt_11arrow_array5array16dictionary_arrayINtB3s_15DictionaryArrayNtNtB3w_5types8Int8TypeE7try_new0E0E0Cs14kWLkQVSKO_14deltalake_core.exit.i.i: ; preds = %_RNCNvMs_NtNtCs1N9T06jgEdt_11arrow_array5array16dictionary_arrayINtB6_15DictionaryArrayNtNtBa_5types8Int8TypeE7try_new0Cs14kWLkQVSKO_14deltalake_core.exit.i.i.i.i, %.lr.ph.i.split.i
end_hunk_5
begin_hunk_6
  %143 = getelementptr inbounds nuw i8, ptr %28, i64 56
  %144 = getelementptr inbounds nuw i8, ptr %28, i64 72
  %145 = load ptr, ptr %141, align 8, !alias.scope !9032, !noalias !9054
  %.fr.i = freeze ptr %145
  %.not.i.i.i.i.i.i.i = icmp eq ptr %.fr.i, null
  %146 = load i64, ptr %142, align 8, !alias.scope !9032, !noalias !9054
  %147 = load ptr, ptr %143, align 8, !alias.scope !9032, !noalias !9054
  %148 = load i64, ptr %144, align 8, !alias.scope !9032, !noalias !9054
end_hunk_6
begin_hunk_7
  %171 = and i8 %170, 7
  %172 = xor i8 %169, -1
  %173 = lshr i8 %172, %171
  %.fr8.i.i.i.i = freeze i8 %173
  %174 = trunc i8 %.fr8.i.i.i.i to i1
  br i1 %174, label %_RNCINvNvXs_NtNtNtCsbvkFyIu7lgC_4core4iter8adapters9enumerateINtB9_9EnumeratepENtNtNtBd_6traits8iterator8Iterator8try_fold9enumerateRsuINtNtNtBf_3ops12control_flow11ControlFlowTjB25_EENCINvNvB1e_4find5checkB2N_NCNvMs_NtNtCs1N9T06jgEdt_11arrow_array5array16dictionary_arrayINtB3s_15DictionaryArrayNtNtB3w_5types9Int16TypeE7try_new0E0E0Cs14kWLkQVSKO_14deltalake_core.exit.i.i, label %.split.i

_RNCINvNvXs_NtNtNtCsbvkFyIu7lgC_4core4iter8adapters9enumerateINtB9_9EnumeratepENtNtNtBd_6traits8iterator8Iterator8try_fold9enumerateRsuINtNtNtBf_3ops12control_flow11ControlFlowTjB25_EENCINvNvB1e_4find5checkB2N_NCNvMs_NtNtCs1N9T06jgEdt_11arrow_array5array16dictionary_arrayINtB3s_15DictionaryArrayNtNtB3w_5types9Int16TypeE7try_new0E0E0Cs14kWLkQVSKO_14deltalake_core.exit.i.i: ; preds = %_RNCNvMs_NtNtCs1N9T06jgEdt_11arrow_array5array16dictionary_arrayINtB6_15DictionaryArrayNtNtBa_5types9Int16TypeE7try_new0Cs14kWLkQVSKO_14deltalake_core.exit.i.i.i.i, %.lr.ph.i.split.i
end_hunk_7
begin_hunk_8
  %143 = getelementptr inbounds nuw i8, ptr %28, i64 56
  %144 = getelementptr inbounds nuw i8, ptr %28, i64 72
  %145 = load ptr, ptr %141, align 8, !alias.scope !9139, !noalias !9161
  %.fr.i = freeze ptr %145
  %.not.i.i.i.i.i.i.i = icmp eq ptr %.fr.i, null
  %146 = load i64, ptr %142, align 8, !alias.scope !9139, !noalias !9161
  %147 = load ptr, ptr %143, align 8, !alias.scope !9139, !noalias !9161
  %148 = load i64, ptr %144, align 8, !alias.scope !9139, !noalias !9161
end_hunk_8
begin_hunk_9
  %171 = and i8 %170, 7
  %172 = xor i8 %169, -1
  %173 = lshr i8 %172, %171
  %.fr8.i.i.i.i = freeze i8 %173
  %174 = trunc i8 %.fr8.i.i.i.i to i1
  br i1 %174, label %_RNCINvNvXs_NtNtNtCsbvkFyIu7lgC_4core4iter8adapters9enumerateINtB9_9EnumeratepENtNtNtBd_6traits8iterator8Iterator8try_fold9enumerateRluINtNtNtBf_3ops12control_flow11ControlFlowTjB25_EENCINvNvB1e_4find5checkB2N_NCNvMs_NtNtCs1N9T06jgEdt_11arrow_array5array16dictionary_arrayINtB3s_15DictionaryArrayNtNtB3w_5types9Int32TypeE7try_new0E0E0Cs14kWLkQVSKO_14deltalake_core.exit.i.i, label %.split.i

_RNCINvNvXs_NtNtNtCsbvkFyIu7lgC_4core4iter8adapters9enumerateINtB9_9EnumeratepENtNtNtBd_6traits8iterator8Iterator8try_fold9enumerateRluINtNtNtBf_3ops12control_flow11ControlFlowTjB25_EENCINvNvB1e_4find5checkB2N_NCNvMs_NtNtCs1N9T06jgEdt_11arrow_array5array16dictionary_arrayINtB3s_15DictionaryArrayNtNtB3w_5types9Int32TypeE7try_new0E0E0Cs14kWLkQVSKO_14deltalake_core.exit.i.i: ; preds = %_RNCNvMs_NtNtCs1N9T06jgEdt_11arrow_array5array16dictionary_arrayINtB6_15DictionaryArrayNtNtBa_5types9Int32TypeE7try_new0Cs14kWLkQVSKO_14deltalake_core.exit.i.i.i.i, %.lr.ph.i.split.i
end_hunk_9
begin_hunk_10
  %143 = getelementptr inbounds nuw i8, ptr %28, i64 56
  %144 = getelementptr inbounds nuw i8, ptr %28, i64 72
  %145 = load ptr, ptr %141, align 8, !alias.scope !9246, !noalias !9268
  %.fr.i = freeze ptr %145
  %.not.i.i.i.i.i.i.i = icmp eq ptr %.fr.i, null
  %146 = load i64, ptr %142, align 8, !alias.scope !9246, !noalias !9268
  %147 = load ptr, ptr %143, align 8, !alias.scope !9246, !noalias !9268
  %148 = load i64, ptr %144, align 8, !alias.scope !9246, !noalias !9268
end_hunk_10
begin_hunk_11
  %169 = and i8 %168, 7
  %170 = xor i8 %167, -1
  %171 = lshr i8 %170, %169
  %.fr8.i.i.i.i = freeze i8 %171
  %172 = trunc i8 %.fr8.i.i.i.i to i1
  br i1 %172, label %_RNCINvNvXs_NtNtNtCsbvkFyIu7lgC_4core4iter8adapters9enumerateINtB9_9EnumeratepENtNtNtBd_6traits8iterator8Iterator8try_fold9enumerateRxuINtNtNtBf_3ops12control_flow11ControlFlowTjB25_EENCINvNvB1e_4find5checkB2N_NCNvMs_NtNtCs1N9T06jgEdt_11arrow_array5array16dictionary_arrayINtB3s_15DictionaryArrayNtNtB3w_5types9Int64TypeE7try_new0E0E0Cs14kWLkQVSKO_14deltalake_core.exit.i.i, label %.split.i

_RNCINvNvXs_NtNtNtCsbvkFyIu7lgC_4core4iter8adapters9enumerateINtB9_9EnumeratepENtNtNtBd_6traits8iterator8Iterator8try_fold9enumerateRxuINtNtNtBf_3ops12control_flow11ControlFlowTjB25_EENCINvNvB1e_4find5checkB2N_NCNvMs_NtNtCs1N9T06jgEdt_11arrow_array5array16dictionary_arrayINtB3s_15DictionaryArrayNtNtB3w_5types9Int64TypeE7try_new0E0E0Cs14kWLkQVSKO_14deltalake_core.exit.i.i: ; preds = %_RNCNvMs_NtNtCs1N9T06jgEdt_11arrow_array5array16dictionary_arrayINtB6_15DictionaryArrayNtNtBa_5types9Int64TypeE7try_new0Cs14kWLkQVSKO_14deltalake_core.exit.i.i.i.i, %.lr.ph.i.split.i
end_hunk_11
begin_hunk_12
  %143 = getelementptr inbounds nuw i8, ptr %28, i64 56
  %144 = getelementptr inbounds nuw i8, ptr %28, i64 72
  %145 = load ptr, ptr %141, align 8, !alias.scope !9353, !noalias !9375
  %.fr.i = freeze ptr %145
  %.not.i.i.i.i.i.i.i = icmp eq ptr %.fr.i, null
  %146 = load i64, ptr %142, align 8, !alias.scope !9353, !noalias !9375
  %147 = load ptr, ptr %143, align 8, !alias.scope !9353, !noalias !9375
  %148 = load i64, ptr %144, align 8, !alias.scope !9353, !noalias !9375
end_hunk_12
begin_hunk_13
  %169 = and i8 %168, 7
  %170 = xor i8 %167, -1
  %171 = lshr i8 %170, %169
  %.fr8.i.i.i.i = freeze i8 %171
  %172 = trunc i8 %.fr8.i.i.i.i to i1
  br i1 %172, label %_RNCINvNvXs_NtNtNtCsbvkFyIu7lgC_4core4iter8adapters9enumerateINtB9_9EnumeratepENtNtNtBd_6traits8iterator8Iterator8try_fold9enumerateRhuINtNtNtBf_3ops12control_flow11ControlFlowTjB25_EENCINvNvB1e_4find5checkB2N_NCNvMs_NtNtCs1N9T06jgEdt_11arrow_array5array16dictionary_arrayINtB3s_15DictionaryArrayNtNtB3w_5types9UInt8TypeE7try_new0E0E0Cs14kWLkQVSKO_14deltalake_core.exit.i.i, label %.split.i

_RNCINvNvXs_NtNtNtCsbvkFyIu7lgC_4core4iter8adapters9enumerateINtB9_9EnumeratepENtNtNtBd_6traits8iterator8Iterator8try_fold9enumerateRhuINtNtNtBf_3ops12control_flow11ControlFlowTjB25_EENCINvNvB1e_4find5checkB2N_NCNvMs_NtNtCs1N9T06jgEdt_11arrow_array5array16dictionary_arrayINtB3s_15DictionaryArrayNtNtB3w_5types9UInt8TypeE7try_new0E0E0Cs14kWLkQVSKO_14deltalake_core.exit.i.i: ; preds = %_RNCNvMs_NtNtCs1N9T06jgEdt_11arrow_array5array16dictionary_arrayINtB6_15DictionaryArrayNtNtBa_5types9UInt8TypeE7try_new0Cs14kWLkQVSKO_14deltalake_core.exit.i.i.i.i, %.lr.ph.i.split.i
end_hunk_13
begin_hunk_14
  %58 = getelementptr inbounds nuw i8, ptr %1, i64 56
  %59 = getelementptr inbounds nuw i8, ptr %1, i64 72
  %60 = load ptr, ptr %56, align 8
  %.fr = freeze ptr %60
  %.not.i.i.i.i.i.i = icmp eq ptr %.fr, null
  %61 = load i64, ptr %57, align 8
  %62 = load ptr, ptr %58, align 8
  %63 = load i64, ptr %59, align 8
end_hunk_14
begin_hunk_15
  %84 = and i8 %83, 7
  %85 = xor i8 %82, -1
  %86 = lshr i8 %85, %84
  %.fr8.i.i.i = freeze i8 %86
  %87 = trunc i8 %.fr8.i.i.i to i1
  br i1 %87, label %_RNCINvNvXs_NtNtNtCsbvkFyIu7lgC_4core4iter8adapters9enumerateINtB9_9EnumeratepENtNtNtBd_6traits8iterator8Iterator8try_fold9enumerateRtuINtNtNtBf_3ops12control_flow11ControlFlowTjB25_EENCINvNvB1e_4find5checkB2N_NCNvMs_NtNtCs1N9T06jgEdt_11arrow_array5array16dictionary_arrayINtB3s_15DictionaryArrayNtNtB3w_5types10UInt16TypeE7try_new0E0E0Cs14kWLkQVSKO_14deltalake_core.exit.i, label %.split

_RNCINvNvXs_NtNtNtCsbvkFyIu7lgC_4core4iter8adapters9enumerateINtB9_9EnumeratepENtNtNtBd_6traits8iterator8Iterator8try_fold9enumerateRtuINtNtNtBf_3ops12control_flow11ControlFlowTjB25_EENCINvNvB1e_4find5checkB2N_NCNvMs_NtNtCs1N9T06jgEdt_11arrow_array5array16dictionary_arrayINtB3s_15DictionaryArrayNtNtB3w_5types10UInt16TypeE7try_new0E0E0Cs14kWLkQVSKO_14deltalake_core.exit.i: ; preds = %_RNCNvMs_NtNtCs1N9T06jgEdt_11arrow_array5array16dictionary_arrayINtB6_15DictionaryArrayNtNtBa_5types10UInt16TypeE7try_new0Cs14kWLkQVSKO_14deltalake_core.exit.i.i.i, %.lr.ph.i.split
end_hunk_15
