inline.NumInlined: 101
inline.NumDeleted: 67
begin_hunk_0_@_ZN4absl12lts_2025051213base_internalL23ReadMonotonicClockNanosEv:bb.a
bb.d:                                             ; preds = %bb.c
  %i.d = load atomic ptr, ptr @_ZN4absl12lts_2025051216raw_log_internal21internal_log_functionB5cxx11E acquire, align 8
  invoke void %i.d(i32 noundef 3, ptr noundef nonnull @.str.3, i32 noundef 248, ptr noundef nonnull align 8 dereferenceable(32) %1)
          to label %_ZNK4absl12lts_2025051213base_internal10AtomicHookIPFvNS0_11LogSeverityEPKciRKNSt7__cxx1112basic_stringIcSt11char_traitsIcESaIcEEEEEclIJS3_RKS5_iSB_EEEvDpOT_.exit unwind label %bb.g, !inline_history !23

_ZNK4absl12lts_2025051213base_internal10AtomicHookIPFvNS0_11LogSeverityEPKciRKNSt7__cxx1112basic_stringIcSt11char_traitsIcESaIcEEEEEclIJS3_RKS5_iSB_EEEvDpOT_.exit: ; preds = %bb.d
  call void @_ZNSt7__cxx1112basic_stringIcSt11char_traitsIcESaIcEED2Ev(ptr noundef nonnull align 8 dead_on_return(32) dereferenceable(32) %1) #19
end_hunk_0
begin_hunk_1_@_ZN4absl12lts_2025051213base_internalL23ReadMonotonicClockNanosEv:bb.a
bb.g:                                             ; preds = %bb.d
  %i.g = landingpad { ptr, i32 }
          cleanup                                 ; 2 uses
  %i.h = load ptr, ptr %1, align 8, !tbaa !24     ; 2 uses
  %i.i = getelementptr inbounds nuw i8, ptr %1, i64 16 ; 2 uses
  %i.j = icmp eq ptr %i.h, %i.i
  br i1 %i.j, label %_ZNSt7__cxx1112basic_stringIcSt11char_traitsIcESaIcEED2Ev.exit, label %_ZNKSt7__cxx1112basic_stringIcSt11char_traitsIcESaIcEE11_M_is_localEv.exit.i.i
end_hunk_1
begin_hunk_2_@_ZN4absl12lts_2025051213base_internalL23ReadMonotonicClockNanosEv:bb.a

_ZNSt7__cxx1112basic_stringIcSt11char_traitsIcESaIcEED2Ev.exit: ; preds = %bb.g, %_ZNKSt7__cxx1112basic_stringIcSt11char_traitsIcESaIcEE11_M_is_localEv.exit.i.i, %bb.f
  %.pn = phi { ptr, i32 } [ %i.f, %bb.f ], [ %i.g, %_ZNKSt7__cxx1112basic_stringIcSt11char_traitsIcESaIcEE11_M_is_localEv.exit.i.i ], [ %i.g, %bb.g ] ; 2 uses
  %i.m = load ptr, ptr %2, align 8, !tbaa !24     ; 2 uses
  %i.n = getelementptr inbounds nuw i8, ptr %2, i64 16 ; 2 uses
  %i.o = icmp eq ptr %i.m, %i.n
  br i1 %i.o, label %_ZNSt7__cxx1112basic_stringIcSt11char_traitsIcESaIcEED2Ev.exit8, label %_ZNKSt7__cxx1112basic_stringIcSt11char_traitsIcESaIcEE11_M_is_localEv.exit.i.i6
end_hunk_2
begin_hunk_3_@_ZN4absl12lts_2025051213base_internalL23ReadMonotonicClockNanosEv:bb.a

_ZNSt7__cxx1112basic_stringIcSt11char_traitsIcESaIcEED2Ev.exit8: ; preds = %_ZNSt7__cxx1112basic_stringIcSt11char_traitsIcESaIcEED2Ev.exit, %_ZNKSt7__cxx1112basic_stringIcSt11char_traitsIcESaIcEE11_M_is_localEv.exit.i.i6, %bb.e
  %.pn.pn = phi { ptr, i32 } [ %i.e, %bb.e ], [ %.pn, %_ZNKSt7__cxx1112basic_stringIcSt11char_traitsIcESaIcEE11_M_is_localEv.exit.i.i6 ], [ %.pn, %_ZNSt7__cxx1112basic_stringIcSt11char_traitsIcESaIcEED2Ev.exit ]
  %i.r = load ptr, ptr %3, align 8, !tbaa !24     ; 2 uses
  %i.s = getelementptr inbounds nuw i8, ptr %3, i64 16 ; 2 uses
  %i.t = icmp eq ptr %i.r, %i.s
  br i1 %i.t, label %_ZNSt7__cxx1112basic_stringIcSt11char_traitsIcESaIcEED2Ev.exit11, label %_ZNKSt7__cxx1112basic_stringIcSt11char_traitsIcESaIcEE11_M_is_localEv.exit.i.i9
end_hunk_3
begin_hunk_4_@_ZStplIcSt11char_traitsIcESaIcEENSt7__cxx1112basic_stringIT_T0_T1_EEOS8_PKS5_:bb.a
bb.a:
  %i.a = tail call noundef i64 @strlen(ptr noundef nonnull dereferenceable(1) %2) #19 ; 2 uses
  %i.b = getelementptr inbounds nuw i8, ptr %1, i64 8
  %i.c = load i64, ptr %i.b, align 8, !tbaa !27
  %i.d = sub i64 4611686018427387903, %i.c
  %i.e = icmp ult i64 %i.d, %i.a
  br i1 %i.e, label %bb.b, label %_ZNSt7__cxx1112basic_stringIcSt11char_traitsIcESaIcEE6appendEPKc.exit
end_hunk_4
begin_hunk_5_@_ZStplIcSt11char_traitsIcESaIcEENSt7__cxx1112basic_stringIT_T0_T1_EEOS8_PKS5_:bb.a
_ZNSt7__cxx1112basic_stringIcSt11char_traitsIcESaIcEE6appendEPKc.exit: ; preds = %bb.a
  %i.f = tail call noundef nonnull align 8 dereferenceable(32) ptr @_ZNSt7__cxx1112basic_stringIcSt11char_traitsIcESaIcEE9_M_appendEPKcm(ptr noundef nonnull align 8 dereferenceable(32) %1, ptr noundef nonnull %2, i64 noundef %i.a) ; 6 uses
  %i.g = getelementptr inbounds nuw i8, ptr %0, i64 16 ; 3 uses
  store ptr %i.g, ptr %0, align 8, !tbaa !28
  %i.h = load ptr, ptr %i.f, align 8, !tbaa !24   ; 2 uses
  %i.i = getelementptr inbounds nuw i8, ptr %i.f, i64 16 ; 5 uses
  %i.j = icmp eq ptr %i.h, %i.i
  br i1 %i.j, label %bb.c, label %_ZNKSt7__cxx1112basic_stringIcSt11char_traitsIcESaIcEE11_M_is_localEv.exit.i

bb.c:                                             ; preds = %_ZNSt7__cxx1112basic_stringIcSt11char_traitsIcESaIcEE6appendEPKc.exit
  %i.k = getelementptr inbounds nuw i8, ptr %i.f, i64 8
  %i.l = load i64, ptr %i.k, align 8, !tbaa !27   ; 3 uses
  %i.m = icmp ult i64 %i.l, 16
  tail call void @llvm.assume(i1 %i.m)
  %i.n = add nuw nsw i64 %i.l, 1
end_hunk_5
begin_hunk_6_@_ZStplIcSt11char_traitsIcESaIcEENSt7__cxx1112basic_stringIT_T0_T1_EEOS8_PKS5_:bb.a
  br label %_ZNSt7__cxx1112basic_stringIcSt11char_traitsIcESaIcEEC2EOS4_.exit

_ZNKSt7__cxx1112basic_stringIcSt11char_traitsIcESaIcEE11_M_is_localEv.exit.i: ; preds = %_ZNSt7__cxx1112basic_stringIcSt11char_traitsIcESaIcEE6appendEPKc.exit
  store ptr %i.h, ptr %0, align 8, !tbaa !24
  %i.o = load i64, ptr %i.i, align 8, !tbaa !13
  store i64 %i.o, ptr %i.g, align 8, !tbaa !13
  %.phi.trans.insert = getelementptr inbounds nuw i8, ptr %i.f, i64 8
  %.pre = load i64, ptr %.phi.trans.insert, align 8, !tbaa !27
  br label %_ZNSt7__cxx1112basic_stringIcSt11char_traitsIcESaIcEEC2EOS4_.exit

_ZNSt7__cxx1112basic_stringIcSt11char_traitsIcESaIcEEC2EOS4_.exit: ; preds = %bb.c, %_ZNKSt7__cxx1112basic_stringIcSt11char_traitsIcESaIcEE11_M_is_localEv.exit.i
  %i.p = phi i64 [ %i.l, %bb.c ], [ %.pre, %_ZNKSt7__cxx1112basic_stringIcSt11char_traitsIcESaIcEE11_M_is_localEv.exit.i ]
  %i.q = getelementptr inbounds nuw i8, ptr %i.f, i64 8
  %i.r = getelementptr inbounds nuw i8, ptr %0, i64 8
  store i64 %i.p, ptr %i.r, align 8, !tbaa !27
  store ptr %i.i, ptr %i.f, align 8, !tbaa !24
  store i64 0, ptr %i.q, align 8, !tbaa !27
  store i8 0, ptr %i.i, align 8, !tbaa !13
  ret void
}
end_hunk_6
begin_hunk_7_@_ZStplIcSt11char_traitsIcESaIcEENSt7__cxx1112basic_stringIT_T0_T1_EEPKS5_OS8_:bb.a
  %i.a = tail call noundef i64 @strlen(ptr noundef nonnull dereferenceable(1) %1) #19
  %i.b = tail call noundef nonnull align 8 dereferenceable(32) ptr @_ZNSt7__cxx1112basic_stringIcSt11char_traitsIcESaIcEE10_M_replaceEmmPKcm(ptr noundef nonnull align 8 dereferenceable(32) %2, i64 noundef 0, i64 noundef 0, ptr noundef nonnull %1, i64 noundef %i.a) ; 6 uses
  %i.c = getelementptr inbounds nuw i8, ptr %0, i64 16 ; 3 uses
  store ptr %i.c, ptr %0, align 8, !tbaa !28
  %i.d = load ptr, ptr %i.b, align 8, !tbaa !24   ; 2 uses
  %i.e = getelementptr inbounds nuw i8, ptr %i.b, i64 16 ; 5 uses
  %i.f = icmp eq ptr %i.d, %i.e
  br i1 %i.f, label %bb.b, label %_ZNKSt7__cxx1112basic_stringIcSt11char_traitsIcESaIcEE11_M_is_localEv.exit.i

bb.b:                                             ; preds = %bb.a
  %i.g = getelementptr inbounds nuw i8, ptr %i.b, i64 8
  %i.h = load i64, ptr %i.g, align 8, !tbaa !27   ; 3 uses
  %i.i = icmp ult i64 %i.h, 16
  tail call void @llvm.assume(i1 %i.i)
  %i.j = add nuw nsw i64 %i.h, 1
end_hunk_7
begin_hunk_8_@_ZStplIcSt11char_traitsIcESaIcEENSt7__cxx1112basic_stringIT_T0_T1_EEPKS5_OS8_:bb.a
  br label %_ZNSt7__cxx1112basic_stringIcSt11char_traitsIcESaIcEEC2EOS4_.exit

_ZNKSt7__cxx1112basic_stringIcSt11char_traitsIcESaIcEE11_M_is_localEv.exit.i: ; preds = %bb.a
  store ptr %i.d, ptr %0, align 8, !tbaa !24
  %i.k = load i64, ptr %i.e, align 8, !tbaa !13
  store i64 %i.k, ptr %i.c, align 8, !tbaa !13
  %.phi.trans.insert = getelementptr inbounds nuw i8, ptr %i.b, i64 8
  %.pre = load i64, ptr %.phi.trans.insert, align 8, !tbaa !27
  br label %_ZNSt7__cxx1112basic_stringIcSt11char_traitsIcESaIcEEC2EOS4_.exit

_ZNSt7__cxx1112basic_stringIcSt11char_traitsIcESaIcEEC2EOS4_.exit: ; preds = %bb.b, %_ZNKSt7__cxx1112basic_stringIcSt11char_traitsIcESaIcEE11_M_is_localEv.exit.i
  %i.l = phi i64 [ %i.h, %bb.b ], [ %.pre, %_ZNKSt7__cxx1112basic_stringIcSt11char_traitsIcESaIcEE11_M_is_localEv.exit.i ]
  %i.m = getelementptr inbounds nuw i8, ptr %i.b, i64 8
  %i.n = getelementptr inbounds nuw i8, ptr %0, i64 8
  store i64 %i.l, ptr %i.n, align 8, !tbaa !27
  store ptr %i.e, ptr %i.b, align 8, !tbaa !24
  store i64 0, ptr %i.m, align 8, !tbaa !27
  store i8 0, ptr %i.e, align 8, !tbaa !13
  ret void
}
end_hunk_8
begin_hunk_9_@_ZNSt7__cxx119to_stringEi:bb.a
  %i.i = udiv i32 %.02230.i, 10000
  %i.j = add i32 %.02329.i, 4                     ; 2 uses
  %i.k = icmp ult i32 %.02230.i, 100000
  br i1 %i.k, label %_ZNSt8__detail14__to_chars_lenIjEEjT_i.exit, label %.lr.ph.i, !llvm.loop !29

_ZNSt8__detail14__to_chars_lenIjEEjT_i.exit:      ; preds = %bb.g, %bb.a, %bb.b, %bb.d, %bb.f
  %.0.i = phi i32 [ %i.h, %bb.f ], [ %i.d, %bb.b ], [ %i.f, %bb.d ], [ 1, %bb.a ], [ %i.j, %bb.g ] ; 2 uses
end_hunk_9
begin_hunk_10_@_ZNSt7__cxx119to_stringEi:bb.a
  %i.l = add i32 %.0.i, %.lobit
  %i.m = zext i32 %i.l to i64
  %i.n = getelementptr inbounds nuw i8, ptr %0, i64 16
  store ptr %i.n, ptr %0, align 8, !tbaa !28
  invoke void @_ZNSt7__cxx1112basic_stringIcSt11char_traitsIcESaIcEE12_M_constructEmc(ptr noundef nonnull align 8 dereferenceable(32) %0, i64 noundef %i.m, i8 noundef signext 45)
          to label %_ZNSt7__cxx1112basic_stringIcSt11char_traitsIcESaIcEEC2IS3_EEmcRKS3_.exit unwind label %bb.j

_ZNSt7__cxx1112basic_stringIcSt11char_traitsIcESaIcEEC2IS3_EEmcRKS3_.exit: ; preds = %_ZNSt8__detail14__to_chars_lenIjEEjT_i.exit
  %i.o = zext nneg i32 %.lobit to i64
  %i.p = load ptr, ptr %0, align 8, !tbaa !24
  %i.q = getelementptr inbounds nuw i8, ptr %i.p, i64 %i.o ; 4 uses
  %i.r = icmp ugt i32 %i.a, 99
  br i1 %i.r, label %.lr.ph.preheader.i, label %._crit_edge.i
end_hunk_10
begin_hunk_11_@_ZNSt7__cxx119to_stringEi:bb.a
  store i8 %i.ac, ptr %i.af, align 1, !tbaa !13
  %i.ag = add i32 %.01819.i, -2
  %i.ah = icmp ugt i32 %.020.i, 9999
  br i1 %i.ah, label %.lr.ph.i11, label %._crit_edge.i, !llvm.loop !30

._crit_edge.i:                                    ; preds = %.lr.ph.i11, %_ZNSt7__cxx1112basic_stringIcSt11char_traitsIcESaIcEEC2IS3_EEmcRKS3_.exit
  %.0.lcssa.i = phi i32 [ %i.a, %_ZNSt7__cxx1112basic_stringIcSt11char_traitsIcESaIcEEC2IS3_EEmcRKS3_.exit ], [ %i.v, %.lr.ph.i11 ] ; 3 uses
end_hunk_11
begin_hunk_12_@llvm.smin.i64
!20 = !{!18, !19, i64 8}
!21 = distinct !{!21, !12}
!22 = !{i64 4259735}
!23 = distinct !{null}
!24 = !{!25, !15, i64 0}
!25 = !{!"_ZTSNSt7__cxx1112basic_stringIcSt11char_traitsIcESaIcEEE", !26, i64 0, !19, i64 8, !5, i64 16}
!26 = !{!"_ZTSNSt7__cxx1112basic_stringIcSt11char_traitsIcESaIcEE12_Alloc_hiderE", !15, i64 0}
!27 = !{!25, !19, i64 8}
!28 = !{!26, !15, i64 0}
!29 = distinct !{!29, !12}
!30 = distinct !{!30, !12}
end_hunk_12
