begin_hunk_0
  resume { ptr, i32 } %i.e

_ZNSt8functionIFNSt7__cxx1112basic_stringIcSt11char_traitsIcESaIcEEESt17basic_string_viewIcS3_EEEaSIPS8_EENSt9enable_ifIXsr9_CallableIT_EE5valueERS9_E4typeEOSD_.exit: ; preds = %_ZN4absl12lts_2025051214flags_internal12_GLOBAL__N_122CustomUsageConfigMutexEv.exit
  store <2 x i64> <i64 ptrtoint (ptr @_ZN4absl12lts_2025051214flags_internal12_GLOBAL__N_122ContainsHelpshortFlagsESt17basic_string_viewIcSt11char_traitsIcEE to i64), i64 0>, ptr %0, align 8, !tbaa !14
  %i.h = getelementptr inbounds nuw i8, ptr %0, i64 16
  store ptr @_ZNSt17_Function_handlerIFbSt17basic_string_viewIcSt11char_traitsIcEEEPS4_E10_M_managerERSt9_Any_dataRKS7_St18_Manager_operation, ptr %i.h, align 8, !tbaa !15
  %i.i = getelementptr inbounds nuw i8, ptr %0, i64 24
  store ptr @_ZNSt17_Function_handlerIFbSt17basic_string_viewIcSt11char_traitsIcEEEPS4_E9_M_invokeERKSt9_Any_dataOS3_, ptr %i.i, align 8, !tbaa !15
  %i.j = getelementptr inbounds nuw i8, ptr %0, i64 32
  store <2 x i64> <i64 ptrtoint (ptr @_ZN4absl12lts_2025051214flags_internal12_GLOBAL__N_124ContainsHelppackageFlagsESt17basic_string_viewIcSt11char_traitsIcEE to i64), i64 0>, ptr %i.j, align 8, !tbaa !14
  %i.k = getelementptr inbounds nuw i8, ptr %0, i64 48
  store ptr @_ZNSt17_Function_handlerIFbSt17basic_string_viewIcSt11char_traitsIcEEEPS4_E10_M_managerERSt9_Any_dataRKS7_St18_Manager_operation, ptr %i.k, align 8, !tbaa !15
  %i.l = getelementptr inbounds nuw i8, ptr %0, i64 56
  store ptr @_ZNSt17_Function_handlerIFbSt17basic_string_viewIcSt11char_traitsIcEEEPS4_E9_M_invokeERKSt9_Any_dataOS3_, ptr %i.l, align 8, !tbaa !15
  %i.m = getelementptr inbounds nuw i8, ptr %0, i64 64
  store <2 x i64> <i64 ptrtoint (ptr @_ZN4absl12lts_2025051214flags_internal12_GLOBAL__N_124ContainsHelppackageFlagsESt17basic_string_viewIcSt11char_traitsIcEE to i64), i64 0>, ptr %i.m, align 8, !tbaa !14
  %i.n = getelementptr inbounds nuw i8, ptr %0, i64 80
  store ptr @_ZNSt17_Function_handlerIFbSt17basic_string_viewIcSt11char_traitsIcEEEPS4_E10_M_managerERSt9_Any_dataRKS7_St18_Manager_operation, ptr %i.n, align 8, !tbaa !15
  %i.o = getelementptr inbounds nuw i8, ptr %0, i64 88
  store ptr @_ZNSt17_Function_handlerIFbSt17basic_string_viewIcSt11char_traitsIcEEEPS4_E9_M_invokeERKSt9_Any_dataOS3_, ptr %i.o, align 8, !tbaa !15
  %i.p = getelementptr inbounds nuw i8, ptr %0, i64 96
  store <2 x i64> <i64 ptrtoint (ptr @_ZN4absl12lts_2025051214flags_internal12_GLOBAL__N_113VersionStringB5cxx11Ev to i64), i64 0>, ptr %i.p, align 8, !tbaa !14
  %i.q = getelementptr inbounds nuw i8, ptr %0, i64 112
  store ptr @_ZNSt17_Function_handlerIFNSt7__cxx1112basic_stringIcSt11char_traitsIcESaIcEEEvEPS6_E10_M_managerERSt9_Any_dataRKS9_St18_Manager_operation, ptr %i.q, align 8, !tbaa !15
  %i.r = getelementptr inbounds nuw i8, ptr %0, i64 120
  store ptr @_ZNSt17_Function_handlerIFNSt7__cxx1112basic_stringIcSt11char_traitsIcESaIcEEEvEPS6_E9_M_invokeERKSt9_Any_data, ptr %i.r, align 8, !tbaa !15
  %i.s = getelementptr inbounds nuw i8, ptr %0, i64 128
  store <2 x i64> <i64 ptrtoint (ptr @_ZN4absl12lts_2025051214flags_internal12_GLOBAL__N_117NormalizeFilenameB5cxx11ESt17basic_string_viewIcSt11char_traitsIcEE to i64), i64 0>, ptr %i.s, align 8, !tbaa !14
  %i.t = getelementptr inbounds nuw i8, ptr %0, i64 144
  store ptr @_ZNSt17_Function_handlerIFNSt7__cxx1112basic_stringIcSt11char_traitsIcESaIcEEESt17basic_string_viewIcS3_EEPS8_E10_M_managerERSt9_Any_dataRKSB_St18_Manager_operation, ptr %i.t, align 8, !tbaa !15
  %i.u = getelementptr inbounds nuw i8, ptr %0, i64 152
  store ptr @_ZNSt17_Function_handlerIFNSt7__cxx1112basic_stringIcSt11char_traitsIcESaIcEEESt17basic_string_viewIcS3_EEPS8_E9_M_invokeERKSt9_Any_dataOS7_, ptr %i.u, align 8, !tbaa !15
  br label %bb.g

bb.g:                                             ; preds = %bb.d, %_ZNSt8functionIFNSt7__cxx1112basic_stringIcSt11char_traitsIcESaIcEEESt17basic_string_viewIcS3_EEEaSIPS8_EENSt9enable_ifIXsr9_CallableIT_EE5valueERS9_E4typeEOSD_.exit
end_hunk_0
begin_hunk_1
  %i.a = getelementptr inbounds nuw i8, ptr %0, i64 16 ; 3 uses
  %i.b = getelementptr inbounds nuw i8, ptr %1, i64 16 ; 2 uses
  tail call void @llvm.memset.p0.i64(ptr noundef nonnull align 8 dereferenceable(32) %0, i8 0, i64 32, i1 false)
  %i.c = load ptr, ptr %i.b, align 8, !tbaa !16   ; 2 uses
  %.not.i.i.not.i = icmp eq ptr %i.c, null
  br i1 %.not.i.i.not.i, label %_ZNSt8functionIFbSt17basic_string_viewIcSt11char_traitsIcEEEEC2ERKS5_.exit, label %bb.b

end_hunk_1
begin_hunk_2
          to label %bb.c unwind label %bb.d       ; 0 uses

bb.c:                                             ; preds = %bb.b
  %i.e = load <2 x ptr>, ptr %i.b, align 8, !tbaa !15
  store <2 x ptr> %i.e, ptr %i.a, align 8, !tbaa !15
  br label %_ZNSt8functionIFbSt17basic_string_viewIcSt11char_traitsIcEEEEC2ERKS5_.exit

bb.d:                                             ; preds = %bb.b
  %i.f = landingpad { ptr, i32 }
          cleanup                                 ; 2 uses
  %i.g = load ptr, ptr %i.a, align 8, !tbaa !16   ; 2 uses
  %.not.i.i = icmp eq ptr %i.g, null
  br i1 %.not.i.i, label %common.resume, label %bb.e

end_hunk_2
begin_hunk_3
  %i.l = getelementptr inbounds nuw i8, ptr %0, i64 48 ; 3 uses
  %i.m = getelementptr inbounds nuw i8, ptr %1, i64 48 ; 2 uses
  tail call void @llvm.memset.p0.i64(ptr noundef nonnull align 8 dereferenceable(32) %i.k, i8 0, i64 32, i1 false)
  %i.n = load ptr, ptr %i.m, align 8, !tbaa !16   ; 2 uses
  %.not.i.i.not.i13 = icmp eq ptr %i.n, null
  br i1 %.not.i.i.not.i13, label %_ZNSt8functionIFbSt17basic_string_viewIcSt11char_traitsIcEEEEC2ERKS5_.exit16, label %bb.g

end_hunk_3
begin_hunk_4
          to label %bb.h unwind label %bb.i       ; 0 uses

bb.h:                                             ; preds = %bb.g
  %i.q = load <2 x ptr>, ptr %i.m, align 8, !tbaa !15
  store <2 x ptr> %i.q, ptr %i.l, align 8, !tbaa !15
  br label %_ZNSt8functionIFbSt17basic_string_viewIcSt11char_traitsIcEEEEC2ERKS5_.exit16

bb.i:                                             ; preds = %bb.g
  %i.r = landingpad { ptr, i32 }
          cleanup                                 ; 2 uses
  %i.s = load ptr, ptr %i.l, align 8, !tbaa !16   ; 2 uses
  %.not.i.i14 = icmp eq ptr %i.s, null
  br i1 %.not.i.i14, label %.body, label %bb.j

end_hunk_4
begin_hunk_5
  %i.x = getelementptr inbounds nuw i8, ptr %0, i64 80 ; 3 uses
  %i.y = getelementptr inbounds nuw i8, ptr %1, i64 80 ; 2 uses
  tail call void @llvm.memset.p0.i64(ptr noundef nonnull align 8 dereferenceable(32) %i.w, i8 0, i64 32, i1 false)
  %i.z = load ptr, ptr %i.y, align 8, !tbaa !16   ; 2 uses
  %.not.i.i.not.i17 = icmp eq ptr %i.z, null
  br i1 %.not.i.i.not.i17, label %_ZNSt8functionIFbSt17basic_string_viewIcSt11char_traitsIcEEEEC2ERKS5_.exit22, label %bb.l

end_hunk_5
begin_hunk_6
          to label %bb.m unwind label %bb.n       ; 0 uses

bb.m:                                             ; preds = %bb.l
  %i.ac = load <2 x ptr>, ptr %i.y, align 8, !tbaa !15
  store <2 x ptr> %i.ac, ptr %i.x, align 8, !tbaa !15
  br label %_ZNSt8functionIFbSt17basic_string_viewIcSt11char_traitsIcEEEEC2ERKS5_.exit22

bb.n:                                             ; preds = %bb.l
  %i.ad = landingpad { ptr, i32 }
          cleanup                                 ; 2 uses
  %i.ae = load ptr, ptr %i.x, align 8, !tbaa !16  ; 2 uses
  %.not.i.i18 = icmp eq ptr %i.ae, null
  br i1 %.not.i.i18, label %.body20, label %bb.o

end_hunk_6
begin_hunk_7
  %i.aj = getelementptr inbounds nuw i8, ptr %0, i64 112 ; 3 uses
  %i.ak = getelementptr inbounds nuw i8, ptr %1, i64 112 ; 2 uses
  tail call void @llvm.memset.p0.i64(ptr noundef nonnull align 8 dereferenceable(32) %i.ai, i8 0, i64 32, i1 false)
  %i.al = load ptr, ptr %i.ak, align 8, !tbaa !16 ; 2 uses
  %.not.i.i.not.i23 = icmp eq ptr %i.al, null
  br i1 %.not.i.i.not.i23, label %_ZNSt8functionIFNSt7__cxx1112basic_stringIcSt11char_traitsIcESaIcEEEvEEC2ERKS7_.exit, label %bb.q

end_hunk_7
begin_hunk_8
          to label %bb.r unwind label %bb.s       ; 0 uses

bb.r:                                             ; preds = %bb.q
  %i.ao = load <2 x ptr>, ptr %i.ak, align 8, !tbaa !15
  store <2 x ptr> %i.ao, ptr %i.aj, align 8, !tbaa !15
  br label %_ZNSt8functionIFNSt7__cxx1112basic_stringIcSt11char_traitsIcESaIcEEEvEEC2ERKS7_.exit

bb.s:                                             ; preds = %bb.q
  %i.ap = landingpad { ptr, i32 }
          cleanup                                 ; 2 uses
  %i.aq = load ptr, ptr %i.aj, align 8, !tbaa !16 ; 2 uses
  %.not.i.i24 = icmp eq ptr %i.aq, null
  br i1 %.not.i.i24, label %.body26, label %bb.t

end_hunk_8
begin_hunk_9
  %i.av = getelementptr inbounds nuw i8, ptr %0, i64 144 ; 2 uses
  %i.aw = getelementptr inbounds nuw i8, ptr %1, i64 144 ; 2 uses
  tail call void @llvm.memset.p0.i64(ptr noundef nonnull align 8 dereferenceable(32) %i.au, i8 0, i64 32, i1 false)
  %i.ax = load ptr, ptr %i.aw, align 8, !tbaa !16 ; 2 uses
  %.not.i.i.not.i28 = icmp eq ptr %i.ax, null
  br i1 %.not.i.i.not.i28, label %_ZNSt8functionIFNSt7__cxx1112basic_stringIcSt11char_traitsIcESaIcEEESt17basic_string_viewIcS3_EEEC2ERKS9_.exit, label %bb.v

end_hunk_9
begin_hunk_10
          to label %bb.w unwind label %bb.x       ; 0 uses

bb.w:                                             ; preds = %bb.v
  %i.ba = load <2 x ptr>, ptr %i.aw, align 8, !tbaa !15
  store <2 x ptr> %i.ba, ptr %i.av, align 8, !tbaa !15
  br label %_ZNSt8functionIFNSt7__cxx1112basic_stringIcSt11char_traitsIcESaIcEEESt17basic_string_viewIcS3_EEEC2ERKS9_.exit

bb.x:                                             ; preds = %bb.v
  %i.bb = landingpad { ptr, i32 }
          cleanup                                 ; 2 uses
  %i.bc = load ptr, ptr %i.av, align 8, !tbaa !16 ; 2 uses
  %.not.i.i29 = icmp eq ptr %i.bc, null
  br i1 %.not.i.i29, label %.body31, label %bb.y

end_hunk_10
begin_hunk_11
  ret void

.body31:                                          ; preds = %bb.x, %bb.y
  %i.bg = load ptr, ptr %i.aj, align 8, !tbaa !16 ; 2 uses
  %.not.i = icmp eq ptr %i.bg, null
  br i1 %.not.i, label %.body26, label %bb.aa

end_hunk_11
begin_hunk_12

.body26:                                          ; preds = %bb.aa, %.body31, %bb.t, %bb.s
  %.pn = phi { ptr, i32 } [ %i.ap, %bb.s ], [ %i.bb, %bb.aa ], [ %i.ap, %bb.t ], [ %i.bb, %.body31 ] ; 2 uses
  %i.bk = load ptr, ptr %i.x, align 8, !tbaa !16  ; 2 uses
  %.not.i33 = icmp eq ptr %i.bk, null
  br i1 %.not.i33, label %.body20, label %bb.ac

end_hunk_12
begin_hunk_13

.body20:                                          ; preds = %bb.ac, %.body26, %bb.o, %bb.n
  %.pn.pn = phi { ptr, i32 } [ %i.ad, %bb.n ], [ %.pn, %bb.ac ], [ %i.ad, %bb.o ], [ %.pn, %.body26 ] ; 2 uses
  %i.bo = load ptr, ptr %i.l, align 8, !tbaa !16  ; 2 uses
  %.not.i35 = icmp eq ptr %i.bo, null
  br i1 %.not.i35, label %.body, label %bb.ae

end_hunk_13
begin_hunk_14

.body:                                            ; preds = %bb.ae, %.body20, %bb.j, %bb.i
  %.pn.pn.pn = phi { ptr, i32 } [ %i.r, %bb.i ], [ %.pn.pn, %bb.ae ], [ %i.r, %bb.j ], [ %.pn.pn, %.body20 ] ; 2 uses
  %i.bs = load ptr, ptr %i.a, align 8, !tbaa !16  ; 2 uses
  %.not.i37 = icmp eq ptr %i.bs, null
  br i1 %.not.i37, label %common.resume, label %bb.ag

end_hunk_14
begin_hunk_15
  %.1.i.i.in.i = phi i64 [ %.1.i.i.i, %bb.b ], [ %0, %bb.a ] ; 5 uses
  %.1.i.i.i = add i64 %.1.i.i.in.i, -1            ; 3 uses
  %i.a = getelementptr inbounds nuw i8, ptr %1, i64 %.1.i.i.i
  %i.b = load i8, ptr %i.a, align 1, !tbaa !14
  switch i8 %i.b, label %bb.b [
    i8 92, label %_ZNKSt17basic_string_viewIcSt11char_traitsIcEE12find_last_ofEPKcm.exit.i
    i8 47, label %_ZNKSt17basic_string_viewIcSt11char_traitsIcEE12find_last_ofEPKcm.exit.i
end_hunk_15
begin_hunk_16
  br label %_ZNSt7__cxx1112basic_stringIcSt11char_traitsIcESaIcEED2Ev.exit

_ZNKSt7__cxx1112basic_stringIcSt11char_traitsIcESaIcEE11_M_is_localEv.exit.i.i: ; preds = %_ZN4absl12lts_2025051210StartsWithESt17basic_string_viewIcSt11char_traitsIcEES4_.exit19
  %i.v = load i64, ptr %i.s, align 8, !tbaa !14
  %i.w = add i64 %i.v, 1
  call void @_ZdlPvm(ptr noundef %i.f, i64 noundef %i.w) #17
  br label %_ZNSt7__cxx1112basic_stringIcSt11char_traitsIcESaIcEED2Ev.exit
end_hunk_16
begin_hunk_17
  br i1 %i.h, label %_ZNSt7__cxx1112basic_stringIcSt11char_traitsIcESaIcEED2Ev.exit, label %_ZNKSt7__cxx1112basic_stringIcSt11char_traitsIcESaIcEE11_M_is_localEv.exit.i.i

_ZNKSt7__cxx1112basic_stringIcSt11char_traitsIcESaIcEE11_M_is_localEv.exit.i.i: ; preds = %bb.c
  %i.i = load i64, ptr %i.g, align 8, !tbaa !14
  %i.j = add i64 %i.i, 1
  tail call void @_ZdlPvm(ptr noundef %i.f, i64 noundef %i.j) #17
  br label %_ZNSt7__cxx1112basic_stringIcSt11char_traitsIcESaIcEED2Ev.exit
end_hunk_17
begin_hunk_18
_ZNSt11char_traitsIcE4findEPKcmRS1_.exit.i.i:     ; preds = %bb.a, %bb.b
  %.0710.i.i = phi i64 [ %i.d, %bb.b ], [ 0, %bb.a ] ; 5 uses
  %i.b = getelementptr inbounds nuw i8, ptr %2, i64 %.0710.i.i
  %i.c = load i8, ptr %i.b, align 1, !tbaa !14
  switch i8 %i.c, label %_ZNKSt17basic_string_viewIcSt11char_traitsIcEE17find_first_not_ofEPKcm.exit [
    i8 92, label %bb.b
    i8 47, label %bb.b
end_hunk_18
begin_hunk_19
  store ptr %i.g, ptr %0, align 8, !tbaa !26
  %i.h = getelementptr inbounds nuw i8, ptr %0, i64 8
  store i64 0, ptr %i.h, align 8, !tbaa !24
  store i8 0, ptr %i.g, align 8, !tbaa !14
  br label %bb.g

bb.c:                                             ; preds = %_ZNKSt17basic_string_viewIcSt11char_traitsIcEE17find_first_not_ofEPKcm.exit
end_hunk_19
begin_hunk_20
  %i.l = call noundef ptr @_ZNSt7__cxx1112basic_stringIcSt11char_traitsIcESaIcEE9_M_createERmm(ptr noundef nonnull align 8 dereferenceable(32) %0, ptr noundef nonnull align 8 dereferenceable(8) %i.a, i64 noundef 0) ; 2 uses
  store ptr %i.l, ptr %0, align 8, !tbaa !20
  %i.m = load i64, ptr %i.a, align 8, !tbaa !27
  store i64 %i.m, ptr %i.j, align 8, !tbaa !14
  br label %._crit_edge.i.i.i.i

._crit_edge.i.i.i.i:                              ; preds = %.noexc.i.i.i, %bb.c
end_hunk_20
begin_hunk_21
  ]

bb.d:                                             ; preds = %._crit_edge.i.i.i.i
  %i.o = load i8, ptr %i.e, align 1, !tbaa !14
  store i8 %i.o, ptr %i.n, align 1, !tbaa !14
  br label %bb.f

bb.e:                                             ; preds = %._crit_edge.i.i.i.i
end_hunk_21
begin_hunk_22
  store i64 %i.p, ptr %i.q, align 8, !tbaa !24
  %i.r = load ptr, ptr %0, align 8, !tbaa !20
  %i.s = getelementptr inbounds nuw i8, ptr %i.r, i64 %i.p
  store i8 0, ptr %i.s, align 1, !tbaa !14
  call void @llvm.lifetime.end.p0(ptr nonnull %i.a) #14
  br label %bb.g

end_hunk_22
begin_hunk_23

bb.c:                                             ; preds = %_ZSt13__check_facetISt5ctypeIcEERKT_PS3_.exit.i.i
  %i.k = getelementptr inbounds nuw i8, ptr %i.h, i64 67
  %i.l = load i8, ptr %i.k, align 1, !tbaa !14
  br label %_ZSt4endlIcSt11char_traitsIcEERSt13basic_ostreamIT_T0_ES6_.exit

bb.d:                                             ; preds = %_ZSt13__check_facetISt5ctypeIcEERKT_PS3_.exit.i.i
end_hunk_23
begin_hunk_24
_ZN4absl12lts_2025051214flags_internal12_GLOBAL__N_122CustomUsageConfigMutexEv.exit: ; preds = %bb.a, %bb.b, %bb.c
  tail call void @_ZN4absl12lts_202505125Mutex4LockEv(ptr noundef nonnull align 8 dereferenceable(8) @_ZZN4absl12lts_2025051214flags_internal12_GLOBAL__N_122CustomUsageConfigMutexEvE5mutex)
  %i.d = getelementptr inbounds nuw i8, ptr %0, i64 16 ; 2 uses
  %i.e = load ptr, ptr %i.d, align 8, !tbaa !16
  %.not.i.i.not = icmp eq ptr %i.e, null
  br i1 %.not.i.i.not, label %_ZNSt8functionIFbSt17basic_string_viewIcSt11char_traitsIcEEEEaSIRS4_EENSt9enable_ifIXsr9_CallableIT_EE5valueERS5_E4typeEOS9_.exit, label %bb.d

_ZNSt8functionIFbSt17basic_string_viewIcSt11char_traitsIcEEEEaSIRS4_EENSt9enable_ifIXsr9_CallableIT_EE5valueERS5_E4typeEOS9_.exit: ; preds = %_ZN4absl12lts_2025051214flags_internal12_GLOBAL__N_122CustomUsageConfigMutexEv.exit
  store <2 x i64> <i64 ptrtoint (ptr @_ZN4absl12lts_2025051214flags_internal12_GLOBAL__N_122ContainsHelpshortFlagsESt17basic_string_viewIcSt11char_traitsIcEE to i64), i64 0>, ptr %0, align 8, !tbaa !14
  store ptr @_ZNSt17_Function_handlerIFbSt17basic_string_viewIcSt11char_traitsIcEEEPS4_E10_M_managerERSt9_Any_dataRKS7_St18_Manager_operation, ptr %i.d, align 8, !tbaa !15
  %i.f = getelementptr inbounds nuw i8, ptr %0, i64 24
  store ptr @_ZNSt17_Function_handlerIFbSt17basic_string_viewIcSt11char_traitsIcEEEPS4_E9_M_invokeERKSt9_Any_dataOS3_, ptr %i.f, align 8, !tbaa !15
  br label %bb.d

bb.d:                                             ; preds = %_ZNSt8functionIFbSt17basic_string_viewIcSt11char_traitsIcEEEEaSIRS4_EENSt9enable_ifIXsr9_CallableIT_EE5valueERS5_E4typeEOS9_.exit, %_ZN4absl12lts_2025051214flags_internal12_GLOBAL__N_122CustomUsageConfigMutexEv.exit
  %i.g = getelementptr inbounds nuw i8, ptr %0, i64 48 ; 2 uses
  %i.h = load ptr, ptr %i.g, align 8, !tbaa !16
  %.not.i.i5.not = icmp eq ptr %i.h, null
  br i1 %.not.i.i5.not, label %_ZNSt8functionIFbSt17basic_string_viewIcSt11char_traitsIcEEEEaSIRS4_EENSt9enable_ifIXsr9_CallableIT_EE5valueERS5_E4typeEOS9_.exit8, label %bb.e

_ZNSt8functionIFbSt17basic_string_viewIcSt11char_traitsIcEEEEaSIRS4_EENSt9enable_ifIXsr9_CallableIT_EE5valueERS5_E4typeEOS9_.exit8: ; preds = %bb.d
  %i.i = getelementptr inbounds nuw i8, ptr %0, i64 32
  store <2 x i64> <i64 ptrtoint (ptr @_ZN4absl12lts_2025051214flags_internal12_GLOBAL__N_124ContainsHelppackageFlagsESt17basic_string_viewIcSt11char_traitsIcEE to i64), i64 0>, ptr %i.i, align 8, !tbaa !14
  store ptr @_ZNSt17_Function_handlerIFbSt17basic_string_viewIcSt11char_traitsIcEEEPS4_E10_M_managerERSt9_Any_dataRKS7_St18_Manager_operation, ptr %i.g, align 8, !tbaa !15
  %i.j = getelementptr inbounds nuw i8, ptr %0, i64 56
  store ptr @_ZNSt17_Function_handlerIFbSt17basic_string_viewIcSt11char_traitsIcEEEPS4_E9_M_invokeERKSt9_Any_dataOS3_, ptr %i.j, align 8, !tbaa !15
  br label %bb.e

bb.e:                                             ; preds = %_ZNSt8functionIFbSt17basic_string_viewIcSt11char_traitsIcEEEEaSIRS4_EENSt9enable_ifIXsr9_CallableIT_EE5valueERS5_E4typeEOS9_.exit8, %bb.d
  %i.k = getelementptr inbounds nuw i8, ptr %0, i64 80 ; 2 uses
  %i.l = load ptr, ptr %i.k, align 8, !tbaa !16
  %.not.i.i9.not = icmp eq ptr %i.l, null
  br i1 %.not.i.i9.not, label %_ZNSt8functionIFbSt17basic_string_viewIcSt11char_traitsIcEEEEaSIRS4_EENSt9enable_ifIXsr9_CallableIT_EE5valueERS5_E4typeEOS9_.exit12, label %bb.f

_ZNSt8functionIFbSt17basic_string_viewIcSt11char_traitsIcEEEEaSIRS4_EENSt9enable_ifIXsr9_CallableIT_EE5valueERS5_E4typeEOS9_.exit12: ; preds = %bb.e
  %i.m = getelementptr inbounds nuw i8, ptr %0, i64 64
  store <2 x i64> <i64 ptrtoint (ptr @_ZN4absl12lts_2025051214flags_internal12_GLOBAL__N_124ContainsHelppackageFlagsESt17basic_string_viewIcSt11char_traitsIcEE to i64), i64 0>, ptr %i.m, align 8, !tbaa !14
  store ptr @_ZNSt17_Function_handlerIFbSt17basic_string_viewIcSt11char_traitsIcEEEPS4_E10_M_managerERSt9_Any_dataRKS7_St18_Manager_operation, ptr %i.k, align 8, !tbaa !15
  %i.n = getelementptr inbounds nuw i8, ptr %0, i64 88
  store ptr @_ZNSt17_Function_handlerIFbSt17basic_string_viewIcSt11char_traitsIcEEEPS4_E9_M_invokeERKSt9_Any_dataOS3_, ptr %i.n, align 8, !tbaa !15
  br label %bb.f

bb.f:                                             ; preds = %_ZNSt8functionIFbSt17basic_string_viewIcSt11char_traitsIcEEEEaSIRS4_EENSt9enable_ifIXsr9_CallableIT_EE5valueERS5_E4typeEOS9_.exit12, %bb.e
  %i.o = getelementptr inbounds nuw i8, ptr %0, i64 112 ; 2 uses
  %i.p = load ptr, ptr %i.o, align 8, !tbaa !16
  %.not.i.i13.not = icmp eq ptr %i.p, null
  br i1 %.not.i.i13.not, label %_ZNSt8functionIFNSt7__cxx1112basic_stringIcSt11char_traitsIcESaIcEEEvEEaSIRS6_EENSt9enable_ifIXsr9_CallableIT_EE5valueERS7_E4typeEOSB_.exit, label %bb.g

_ZNSt8functionIFNSt7__cxx1112basic_stringIcSt11char_traitsIcESaIcEEEvEEaSIRS6_EENSt9enable_ifIXsr9_CallableIT_EE5valueERS7_E4typeEOSB_.exit: ; preds = %bb.f
  %i.q = getelementptr inbounds nuw i8, ptr %0, i64 96
  store <2 x i64> <i64 ptrtoint (ptr @_ZN4absl12lts_2025051214flags_internal12_GLOBAL__N_113VersionStringB5cxx11Ev to i64), i64 0>, ptr %i.q, align 8, !tbaa !14
  store ptr @_ZNSt17_Function_handlerIFNSt7__cxx1112basic_stringIcSt11char_traitsIcESaIcEEEvEPS6_E10_M_managerERSt9_Any_dataRKS9_St18_Manager_operation, ptr %i.o, align 8, !tbaa !15
  %i.r = getelementptr inbounds nuw i8, ptr %0, i64 120
  store ptr @_ZNSt17_Function_handlerIFNSt7__cxx1112basic_stringIcSt11char_traitsIcESaIcEEEvEPS6_E9_M_invokeERKSt9_Any_data, ptr %i.r, align 8, !tbaa !15
  br label %bb.g

bb.g:                                             ; preds = %_ZNSt8functionIFNSt7__cxx1112basic_stringIcSt11char_traitsIcESaIcEEEvEEaSIRS6_EENSt9enable_ifIXsr9_CallableIT_EE5valueERS7_E4typeEOSB_.exit, %bb.f
  %i.s = getelementptr inbounds nuw i8, ptr %0, i64 144 ; 2 uses
  %i.t = load ptr, ptr %i.s, align 8, !tbaa !16
  %.not.i.i16.not = icmp eq ptr %i.t, null
  br i1 %.not.i.i16.not, label %_ZNSt8functionIFNSt7__cxx1112basic_stringIcSt11char_traitsIcESaIcEEESt17basic_string_viewIcS3_EEEaSIRS8_EENSt9enable_ifIXsr9_CallableIT_EE5valueERS9_E4typeEOSD_.exit, label %bb.h

_ZNSt8functionIFNSt7__cxx1112basic_stringIcSt11char_traitsIcESaIcEEESt17basic_string_viewIcS3_EEEaSIRS8_EENSt9enable_ifIXsr9_CallableIT_EE5valueERS9_E4typeEOSD_.exit: ; preds = %bb.g
  %i.u = getelementptr inbounds nuw i8, ptr %0, i64 128
  store <2 x i64> <i64 ptrtoint (ptr @_ZN4absl12lts_2025051214flags_internal12_GLOBAL__N_117NormalizeFilenameB5cxx11ESt17basic_string_viewIcSt11char_traitsIcEE to i64), i64 0>, ptr %i.u, align 8, !tbaa !14
  store ptr @_ZNSt17_Function_handlerIFNSt7__cxx1112basic_stringIcSt11char_traitsIcESaIcEEESt17basic_string_viewIcS3_EEPS8_E10_M_managerERSt9_Any_dataRKSB_St18_Manager_operation, ptr %i.s, align 8, !tbaa !15
  %i.v = getelementptr inbounds nuw i8, ptr %0, i64 152
  store ptr @_ZNSt17_Function_handlerIFNSt7__cxx1112basic_stringIcSt11char_traitsIcESaIcEEESt17basic_string_viewIcS3_EEPS8_E9_M_invokeERKSt9_Any_dataOS7_, ptr %i.v, align 8, !tbaa !15
  br label %bb.h

bb.h:                                             ; preds = %_ZNSt8functionIFNSt7__cxx1112basic_stringIcSt11char_traitsIcESaIcEEESt17basic_string_viewIcS3_EEEaSIRS8_EENSt9enable_ifIXsr9_CallableIT_EE5valueERS9_E4typeEOSD_.exit, %bb.g
end_hunk_24
begin_hunk_25
; Function Attrs: inlinehint mustprogress uwtable
define linkonce_odr noundef nonnull align 8 dereferenceable(160) ptr @_ZN4absl12lts_2025051216FlagsUsageConfigaSERKS1_(ptr noundef nonnull align 8 dereferenceable(160) %0, ptr noundef nonnull align 8 dereferenceable(160) %1) local_unnamed_addr #2 comdat align 2 personality ptr @__gxx_personality_v0 {
bb.a:
  %2 = alloca %"class.std::function.2", align 16  ; 11 uses
  %3 = alloca %"class.std::function.0", align 16  ; 11 uses
  %4 = alloca %"class.std::function", align 16    ; 11 uses
  %5 = alloca %"class.std::function", align 16    ; 11 uses
  %6 = alloca %"class.std::function", align 16    ; 11 uses
  call void @llvm.lifetime.start.p0(ptr nonnull %6) #14
  %i.a = getelementptr inbounds nuw i8, ptr %6, i64 16 ; 2 uses
  %i.b = getelementptr inbounds nuw i8, ptr %1, i64 16 ; 2 uses
  call void @llvm.memset.p0.i64(ptr noundef nonnull align 16 dereferenceable(32) %6, i8 0, i64 32, i1 false)
  %i.c = load ptr, ptr %i.b, align 8, !tbaa !16   ; 2 uses
  %.not.i.i.not.i.i = icmp eq ptr %i.c, null
  br i1 %.not.i.i.not.i.i, label %_ZNSt8functionIFbSt17basic_string_viewIcSt11char_traitsIcEEEEC2ERKS5_.exit.i, label %bb.b

end_hunk_25
begin_hunk_26
          to label %bb.c unwind label %bb.d       ; 0 uses

bb.c:                                             ; preds = %bb.b
  %i.e = load <2 x ptr>, ptr %i.b, align 8, !tbaa !15
  %.sroa.0.0.copyload.i.i.pre.i = load <2 x i64>, ptr %6, align 16, !tbaa !14
  br label %_ZNSt8functionIFbSt17basic_string_viewIcSt11char_traitsIcEEEEC2ERKS5_.exit.i

bb.d:                                             ; preds = %bb.b
  %i.f = landingpad { ptr, i32 }
          cleanup                                 ; 2 uses
  %i.g = load ptr, ptr %i.a, align 16, !tbaa !16  ; 2 uses
  %.not.i.i.i = icmp eq ptr %i.g, null
  br i1 %.not.i.i.i, label %common.resume, label %bb.e

end_hunk_26
begin_hunk_27
  resume { ptr, i32 } %common.resume.op

_ZNSt8functionIFbSt17basic_string_viewIcSt11char_traitsIcEEEEC2ERKS5_.exit.i: ; preds = %bb.c, %bb.a
  %.sroa.0.0.copyload.i.i.i = phi <2 x i64> [ zeroinitializer, %bb.a ], [ %.sroa.0.0.copyload.i.i.pre.i, %bb.c ]
  %7 = phi <2 x ptr> [ zeroinitializer, %bb.a ], [ %i.e, %bb.c ]
  call void @llvm.memcpy.p0.p0.i64(ptr noundef nonnull align 16 dereferenceable(32) %6, ptr noundef nonnull align 8 dereferenceable(32) %0, i64 16, i1 false), !tbaa.struct !52
  store <2 x i64> %.sroa.0.0.copyload.i.i.i, ptr %0, align 8, !tbaa !14
  %i.k = getelementptr inbounds nuw i8, ptr %0, i64 16 ; 3 uses
  %i.l = load <2 x ptr>, ptr %i.k, align 8, !tbaa !15
  %i.m = load ptr, ptr %i.k, align 8, !tbaa !15   ; 2 uses
  store <2 x ptr> %i.l, ptr %i.a, align 16, !tbaa !15
  store <2 x ptr> %7, ptr %i.k, align 8, !tbaa !15
  %.not.i.i = icmp eq ptr %i.m, null
  br i1 %.not.i.i, label %_ZNSt8functionIFbSt17basic_string_viewIcSt11char_traitsIcEEEEaSERKS5_.exit, label %bb.g

end_hunk_27
begin_hunk_28
  call void @llvm.lifetime.start.p0(ptr nonnull %5) #14
  %i.r = getelementptr inbounds nuw i8, ptr %5, i64 16 ; 2 uses
  %i.s = getelementptr inbounds nuw i8, ptr %1, i64 48 ; 2 uses
  call void @llvm.memset.p0.i64(ptr noundef nonnull align 16 dereferenceable(32) %5, i8 0, i64 32, i1 false)
  %i.t = load ptr, ptr %i.s, align 8, !tbaa !16   ; 2 uses
  %.not.i.i.not.i.i7 = icmp eq ptr %i.t, null
  br i1 %.not.i.i.not.i.i7, label %_ZNSt8functionIFbSt17basic_string_viewIcSt11char_traitsIcEEEEC2ERKS5_.exit.i10, label %bb.i

end_hunk_28
begin_hunk_29
          to label %bb.j unwind label %bb.k       ; 0 uses

bb.j:                                             ; preds = %bb.i
  %i.w = load <2 x ptr>, ptr %i.s, align 8, !tbaa !15
  %.sroa.0.0.copyload.i.i.pre.i9 = load <2 x i64>, ptr %5, align 16, !tbaa !14
  br label %_ZNSt8functionIFbSt17basic_string_viewIcSt11char_traitsIcEEEEC2ERKS5_.exit.i10

bb.k:                                             ; preds = %bb.i
  %i.x = landingpad { ptr, i32 }
          cleanup                                 ; 2 uses
  %i.y = load ptr, ptr %i.r, align 16, !tbaa !16  ; 2 uses
  %.not.i.i.i8 = icmp eq ptr %i.y, null
  br i1 %.not.i.i.i8, label %common.resume, label %bb.l

end_hunk_29
begin_hunk_30
  unreachable

_ZNSt8functionIFbSt17basic_string_viewIcSt11char_traitsIcEEEEC2ERKS5_.exit.i10: ; preds = %bb.j, %_ZNSt8functionIFbSt17basic_string_viewIcSt11char_traitsIcEEEEaSERKS5_.exit
  %.sroa.0.0.copyload.i.i.i11 = phi <2 x i64> [ zeroinitializer, %_ZNSt8functionIFbSt17basic_string_viewIcSt11char_traitsIcEEEEaSERKS5_.exit ], [ %.sroa.0.0.copyload.i.i.pre.i9, %bb.j ]
  %8 = phi <2 x ptr> [ zeroinitializer, %_ZNSt8functionIFbSt17basic_string_viewIcSt11char_traitsIcEEEEaSERKS5_.exit ], [ %i.w, %bb.j ]
  call void @llvm.memcpy.p0.p0.i64(ptr noundef nonnull align 16 dereferenceable(32) %5, ptr noundef nonnull align 8 dereferenceable(32) %i.q, i64 16, i1 false), !tbaa.struct !52
  store <2 x i64> %.sroa.0.0.copyload.i.i.i11, ptr %i.q, align 8, !tbaa !14
  %i.ac = getelementptr inbounds nuw i8, ptr %0, i64 48 ; 3 uses
  %i.ad = load <2 x ptr>, ptr %i.ac, align 8, !tbaa !15
  %i.ae = load ptr, ptr %i.ac, align 8, !tbaa !15 ; 2 uses
  store <2 x ptr> %i.ad, ptr %i.r, align 16, !tbaa !15
  store <2 x ptr> %8, ptr %i.ac, align 8, !tbaa !15
  %.not.i.i11 = icmp eq ptr %i.ae, null
  br i1 %.not.i.i11, label %_ZNSt8functionIFbSt17basic_string_viewIcSt11char_traitsIcEEEEaSERKS5_.exit12, label %bb.n

end_hunk_30
begin_hunk_31
  call void @llvm.lifetime.start.p0(ptr nonnull %4) #14
  %i.aj = getelementptr inbounds nuw i8, ptr %4, i64 16 ; 2 uses
  %i.ak = getelementptr inbounds nuw i8, ptr %1, i64 80 ; 2 uses
  call void @llvm.memset.p0.i64(ptr noundef nonnull align 16 dereferenceable(32) %4, i8 0, i64 32, i1 false)
  %i.al = load ptr, ptr %i.ak, align 8, !tbaa !16 ; 2 uses
  %.not.i.i.not.i.i14 = icmp eq ptr %i.al, null
  br i1 %.not.i.i.not.i.i14, label %_ZNSt8functionIFbSt17basic_string_viewIcSt11char_traitsIcEEEEC2ERKS5_.exit.i17, label %bb.p

end_hunk_31
begin_hunk_32
          to label %bb.q unwind label %bb.r       ; 0 uses

bb.q:                                             ; preds = %bb.p
  %i.ao = load <2 x ptr>, ptr %i.ak, align 8, !tbaa !15
  %.sroa.0.0.copyload.i.i.pre.i17 = load <2 x i64>, ptr %4, align 16, !tbaa !14
  br label %_ZNSt8functionIFbSt17basic_string_viewIcSt11char_traitsIcEEEEC2ERKS5_.exit.i17

bb.r:                                             ; preds = %bb.p
  %i.ap = landingpad { ptr, i32 }
          cleanup                                 ; 2 uses
  %i.aq = load ptr, ptr %i.aj, align 16, !tbaa !16 ; 2 uses
  %.not.i.i.i15 = icmp eq ptr %i.aq, null
  br i1 %.not.i.i.i15, label %common.resume, label %bb.s

end_hunk_32
begin_hunk_33
  unreachable

_ZNSt8functionIFbSt17basic_string_viewIcSt11char_traitsIcEEEEC2ERKS5_.exit.i17: ; preds = %bb.q, %_ZNSt8functionIFbSt17basic_string_viewIcSt11char_traitsIcEEEEaSERKS5_.exit12
  %.sroa.0.0.copyload.i.i.i19 = phi <2 x i64> [ zeroinitializer, %_ZNSt8functionIFbSt17basic_string_viewIcSt11char_traitsIcEEEEaSERKS5_.exit12 ], [ %.sroa.0.0.copyload.i.i.pre.i17, %bb.q ]
  %9 = phi <2 x ptr> [ zeroinitializer, %_ZNSt8functionIFbSt17basic_string_viewIcSt11char_traitsIcEEEEaSERKS5_.exit12 ], [ %i.ao, %bb.q ]
  call void @llvm.memcpy.p0.p0.i64(ptr noundef nonnull align 16 dereferenceable(32) %4, ptr noundef nonnull align 8 dereferenceable(32) %i.ai, i64 16, i1 false), !tbaa.struct !52
  store <2 x i64> %.sroa.0.0.copyload.i.i.i19, ptr %i.ai, align 8, !tbaa !14
  %i.au = getelementptr inbounds nuw i8, ptr %0, i64 80 ; 3 uses
  %i.av = load <2 x ptr>, ptr %i.au, align 8, !tbaa !15
  %i.aw = load ptr, ptr %i.au, align 8, !tbaa !15 ; 2 uses
  store <2 x ptr> %i.av, ptr %i.aj, align 16, !tbaa !15
  store <2 x ptr> %9, ptr %i.au, align 8, !tbaa !15
  %.not.i.i18 = icmp eq ptr %i.aw, null
  br i1 %.not.i.i18, label %_ZNSt8functionIFbSt17basic_string_viewIcSt11char_traitsIcEEEEaSERKS5_.exit19, label %bb.u

end_hunk_33
begin_hunk_34
  call void @llvm.lifetime.start.p0(ptr nonnull %3) #14
  %i.bb = getelementptr inbounds nuw i8, ptr %3, i64 16 ; 2 uses
  %i.bc = getelementptr inbounds nuw i8, ptr %1, i64 112 ; 2 uses
  call void @llvm.memset.p0.i64(ptr noundef nonnull align 16 dereferenceable(32) %3, i8 0, i64 32, i1 false)
  %i.bd = load ptr, ptr %i.bc, align 8, !tbaa !16 ; 2 uses
  %.not.i.i.not.i.i21 = icmp eq ptr %i.bd, null
  br i1 %.not.i.i.not.i.i21, label %_ZNSt8functionIFNSt7__cxx1112basic_stringIcSt11char_traitsIcESaIcEEEvEEC2ERKS7_.exit.i, label %bb.w

end_hunk_34
begin_hunk_35
          to label %bb.x unwind label %bb.y       ; 0 uses

bb.x:                                             ; preds = %bb.w
  %i.bg = load <2 x ptr>, ptr %i.bc, align 8, !tbaa !15
  %.sroa.0.0.copyload.i.i.pre.i25 = load <2 x i64>, ptr %3, align 16, !tbaa !14
  br label %_ZNSt8functionIFNSt7__cxx1112basic_stringIcSt11char_traitsIcESaIcEEEvEEC2ERKS7_.exit.i

bb.y:                                             ; preds = %bb.w
  %i.bh = landingpad { ptr, i32 }
          cleanup                                 ; 2 uses
  %i.bi = load ptr, ptr %i.bb, align 16, !tbaa !16 ; 2 uses
  %.not.i.i.i22 = icmp eq ptr %i.bi, null
  br i1 %.not.i.i.i22, label %common.resume, label %bb.z

end_hunk_35
begin_hunk_36
  unreachable

_ZNSt8functionIFNSt7__cxx1112basic_stringIcSt11char_traitsIcESaIcEEEvEEC2ERKS7_.exit.i: ; preds = %bb.x, %_ZNSt8functionIFbSt17basic_string_viewIcSt11char_traitsIcEEEEaSERKS5_.exit19
  %.sroa.0.0.copyload.i.i.i26 = phi <2 x i64> [ zeroinitializer, %_ZNSt8functionIFbSt17basic_string_viewIcSt11char_traitsIcEEEEaSERKS5_.exit19 ], [ %.sroa.0.0.copyload.i.i.pre.i25, %bb.x ]
  %10 = phi <2 x ptr> [ zeroinitializer, %_ZNSt8functionIFbSt17basic_string_viewIcSt11char_traitsIcEEEEaSERKS5_.exit19 ], [ %i.bg, %bb.x ]
  call void @llvm.memcpy.p0.p0.i64(ptr noundef nonnull align 16 dereferenceable(32) %3, ptr noundef nonnull align 8 dereferenceable(32) %i.ba, i64 16, i1 false), !tbaa.struct !52
  store <2 x i64> %.sroa.0.0.copyload.i.i.i26, ptr %i.ba, align 8, !tbaa !14
  %i.bm = getelementptr inbounds nuw i8, ptr %0, i64 112 ; 3 uses
  %i.bn = load <2 x ptr>, ptr %i.bm, align 8, !tbaa !15
  %i.bo = load ptr, ptr %i.bm, align 8, !tbaa !15 ; 2 uses
  store <2 x ptr> %i.bn, ptr %i.bb, align 16, !tbaa !15
  store <2 x ptr> %10, ptr %i.bm, align 8, !tbaa !15
  %.not.i.i24 = icmp eq ptr %i.bo, null
  br i1 %.not.i.i24, label %_ZNSt8functionIFNSt7__cxx1112basic_stringIcSt11char_traitsIcESaIcEEEvEEaSERKS7_.exit, label %bb.ab

end_hunk_36
begin_hunk_37
  call void @llvm.lifetime.start.p0(ptr nonnull %2) #14
  %i.bt = getelementptr inbounds nuw i8, ptr %2, i64 16 ; 2 uses
  %i.bu = getelementptr inbounds nuw i8, ptr %1, i64 144 ; 2 uses
  call void @llvm.memset.p0.i64(ptr noundef nonnull align 16 dereferenceable(32) %2, i8 0, i64 32, i1 false)
  %i.bv = load ptr, ptr %i.bu, align 8, !tbaa !16 ; 2 uses
  %.not.i.i.not.i.i26 = icmp eq ptr %i.bv, null
  br i1 %.not.i.i.not.i.i26, label %_ZNSt8functionIFNSt7__cxx1112basic_stringIcSt11char_traitsIcESaIcEEESt17basic_string_viewIcS3_EEEC2ERKS9_.exit.i, label %bb.ad

end_hunk_37
begin_hunk_38
          to label %bb.ae unwind label %bb.af     ; 0 uses

bb.ae:                                            ; preds = %bb.ad
  %i.by = load <2 x ptr>, ptr %i.bu, align 8, !tbaa !15
  %.sroa.0.0.copyload.i.i.pre.i31 = load <2 x i64>, ptr %2, align 16, !tbaa !14
  br label %_ZNSt8functionIFNSt7__cxx1112basic_stringIcSt11char_traitsIcESaIcEEESt17basic_string_viewIcS3_EEEC2ERKS9_.exit.i

bb.af:                                            ; preds = %bb.ad
  %i.bz = landingpad { ptr, i32 }
          cleanup                                 ; 2 uses
  %i.ca = load ptr, ptr %i.bt, align 16, !tbaa !16 ; 2 uses
  %.not.i.i.i27 = icmp eq ptr %i.ca, null
  br i1 %.not.i.i.i27, label %common.resume, label %bb.ag

end_hunk_38
begin_hunk_39
  unreachable

_ZNSt8functionIFNSt7__cxx1112basic_stringIcSt11char_traitsIcESaIcEEESt17basic_string_viewIcS3_EEEC2ERKS9_.exit.i: ; preds = %bb.ae, %_ZNSt8functionIFNSt7__cxx1112basic_stringIcSt11char_traitsIcESaIcEEEvEEaSERKS7_.exit
  %.sroa.0.0.copyload.i.i.i32 = phi <2 x i64> [ zeroinitializer, %_ZNSt8functionIFNSt7__cxx1112basic_stringIcSt11char_traitsIcESaIcEEEvEEaSERKS7_.exit ], [ %.sroa.0.0.copyload.i.i.pre.i31, %bb.ae ]
  %11 = phi <2 x ptr> [ zeroinitializer, %_ZNSt8functionIFNSt7__cxx1112basic_stringIcSt11char_traitsIcESaIcEEEvEEaSERKS7_.exit ], [ %i.by, %bb.ae ]
  call void @llvm.memcpy.p0.p0.i64(ptr noundef nonnull align 16 dereferenceable(32) %2, ptr noundef nonnull align 8 dereferenceable(32) %i.bs, i64 16, i1 false), !tbaa.struct !52
  store <2 x i64> %.sroa.0.0.copyload.i.i.i32, ptr %i.bs, align 8, !tbaa !14
  %i.ce = getelementptr inbounds nuw i8, ptr %0, i64 144 ; 3 uses
  %i.cf = load <2 x ptr>, ptr %i.ce, align 8, !tbaa !15
  %i.cg = load ptr, ptr %i.ce, align 8, !tbaa !15 ; 2 uses
  store <2 x ptr> %i.cf, ptr %i.bt, align 16, !tbaa !15
  store <2 x ptr> %11, ptr %i.ce, align 8, !tbaa !15
  %.not.i.i29 = icmp eq ptr %i.cg, null
  br i1 %.not.i.i29, label %_ZNSt8functionIFNSt7__cxx1112basic_stringIcSt11char_traitsIcESaIcEEESt17basic_string_viewIcS3_EEEaSERKS9_.exit, label %bb.ai

end_hunk_39
begin_hunk_40
; Function Attrs: mustprogress uwtable
define linkonce_odr noundef zeroext i1 @_ZNSt17_Function_handlerIFbSt17basic_string_viewIcSt11char_traitsIcEEEPS4_E9_M_invokeERKSt9_Any_dataOS3_(ptr noundef nonnull align 8 dereferenceable(16) %0, ptr noundef nonnull align 8 dereferenceable(16) %1) #0 comdat align 2 {
bb.a:
  %i.a = load ptr, ptr %0, align 8, !tbaa !15
  %.sroa.0.0.copyload.i.i = load i64, ptr %1, align 8, !tbaa !27
  %.sroa.2.0..sroa_idx.i.i = getelementptr inbounds nuw i8, ptr %1, i64 8
  %.sroa.2.0.copyload.i.i = load ptr, ptr %.sroa.2.0..sroa_idx.i.i, align 8, !tbaa !53
end_hunk_40
begin_hunk_41
  br label %_ZNSt14_Function_base13_Base_managerIPFbSt17basic_string_viewIcSt11char_traitsIcEEEE10_M_managerERSt9_Any_dataRKS8_St18_Manager_operation.exit.sink.split

.sink.split.i:                                    ; preds = %bb.a
  %i.a = load ptr, ptr %1, align 8, !tbaa !15
  br label %_ZNSt14_Function_base13_Base_managerIPFbSt17basic_string_viewIcSt11char_traitsIcEEEE10_M_managerERSt9_Any_dataRKS8_St18_Manager_operation.exit.sink.split

_ZNSt14_Function_base13_Base_managerIPFbSt17basic_string_viewIcSt11char_traitsIcEEEE10_M_managerERSt9_Any_dataRKS8_St18_Manager_operation.exit.sink.split: ; preds = %bb.a, %bb.b, %.sink.split.i
  %.sink = phi ptr [ %i.a, %.sink.split.i ], [ %1, %bb.b ], [ @_ZTIPFbSt17basic_string_viewIcSt11char_traitsIcEEE, %bb.a ]
  store ptr %.sink, ptr %0, align 8, !tbaa !15
  br label %_ZNSt14_Function_base13_Base_managerIPFbSt17basic_string_viewIcSt11char_traitsIcEEEE10_M_managerERSt9_Any_dataRKS8_St18_Manager_operation.exit

_ZNSt14_Function_base13_Base_managerIPFbSt17basic_string_viewIcSt11char_traitsIcEEEE10_M_managerERSt9_Any_dataRKS8_St18_Manager_operation.exit: ; preds = %_ZNSt14_Function_base13_Base_managerIPFbSt17basic_string_viewIcSt11char_traitsIcEEEE10_M_managerERSt9_Any_dataRKS8_St18_Manager_operation.exit.sink.split, %bb.a
end_hunk_41
begin_hunk_42
; Function Attrs: mustprogress uwtable
define linkonce_odr void @_ZNSt17_Function_handlerIFNSt7__cxx1112basic_stringIcSt11char_traitsIcESaIcEEEvEPS6_E9_M_invokeERKSt9_Any_data(ptr dead_on_unwind noalias writable sret(%"class.std::__cxx11::basic_string") align 8 %0, ptr noundef nonnull align 8 dereferenceable(16) %1) #0 comdat align 2 {
bb.a:
  %i.a = load ptr, ptr %1, align 8, !tbaa !15, !noalias !54
  tail call void %i.a(ptr dead_on_unwind writable sret(%"class.std::__cxx11::basic_string") align 8 %0)
  ret void
}
end_hunk_42
begin_hunk_43
  br label %_ZNSt14_Function_base13_Base_managerIPFNSt7__cxx1112basic_stringIcSt11char_traitsIcESaIcEEEvEE10_M_managerERSt9_Any_dataRKSA_St18_Manager_operation.exit.sink.split

.sink.split.i:                                    ; preds = %bb.a
  %i.a = load ptr, ptr %1, align 8, !tbaa !15
  br label %_ZNSt14_Function_base13_Base_managerIPFNSt7__cxx1112basic_stringIcSt11char_traitsIcESaIcEEEvEE10_M_managerERSt9_Any_dataRKSA_St18_Manager_operation.exit.sink.split

_ZNSt14_Function_base13_Base_managerIPFNSt7__cxx1112basic_stringIcSt11char_traitsIcESaIcEEEvEE10_M_managerERSt9_Any_dataRKSA_St18_Manager_operation.exit.sink.split: ; preds = %bb.a, %bb.b, %.sink.split.i
  %.sink = phi ptr [ %i.a, %.sink.split.i ], [ %1, %bb.b ], [ @_ZTIPFNSt7__cxx1112basic_stringIcSt11char_traitsIcESaIcEEEvE, %bb.a ]
  store ptr %.sink, ptr %0, align 8, !tbaa !15
  br label %_ZNSt14_Function_base13_Base_managerIPFNSt7__cxx1112basic_stringIcSt11char_traitsIcESaIcEEEvEE10_M_managerERSt9_Any_dataRKSA_St18_Manager_operation.exit

_ZNSt14_Function_base13_Base_managerIPFNSt7__cxx1112basic_stringIcSt11char_traitsIcESaIcEEEvEE10_M_managerERSt9_Any_dataRKSA_St18_Manager_operation.exit: ; preds = %_ZNSt14_Function_base13_Base_managerIPFNSt7__cxx1112basic_stringIcSt11char_traitsIcESaIcEEEvEE10_M_managerERSt9_Any_dataRKSA_St18_Manager_operation.exit.sink.split, %bb.a
end_hunk_43
begin_hunk_44
; Function Attrs: mustprogress uwtable
define linkonce_odr void @_ZNSt17_Function_handlerIFNSt7__cxx1112basic_stringIcSt11char_traitsIcESaIcEEESt17basic_string_viewIcS3_EEPS8_E9_M_invokeERKSt9_Any_dataOS7_(ptr dead_on_unwind noalias writable sret(%"class.std::__cxx11::basic_string") align 8 %0, ptr noundef nonnull align 8 dereferenceable(16) %1, ptr noundef nonnull align 8 dereferenceable(16) %2) #0 comdat align 2 {
bb.a:
  %i.a = load ptr, ptr %1, align 8, !tbaa !15, !noalias !59
  %.sroa.0.0.copyload.i.i = load i64, ptr %2, align 8, !tbaa !27, !noalias !59
  %.sroa.2.0..sroa_idx.i.i = getelementptr inbounds nuw i8, ptr %2, i64 8
  %.sroa.2.0.copyload.i.i = load ptr, ptr %.sroa.2.0..sroa_idx.i.i, align 8, !tbaa !53, !noalias !59
end_hunk_44
begin_hunk_45
  br label %_ZNSt14_Function_base13_Base_managerIPFNSt7__cxx1112basic_stringIcSt11char_traitsIcESaIcEEESt17basic_string_viewIcS4_EEE10_M_managerERSt9_Any_dataRKSC_St18_Manager_operation.exit.sink.split

.sink.split.i:                                    ; preds = %bb.a
  %i.a = load ptr, ptr %1, align 8, !tbaa !15
  br label %_ZNSt14_Function_base13_Base_managerIPFNSt7__cxx1112basic_stringIcSt11char_traitsIcESaIcEEESt17basic_string_viewIcS4_EEE10_M_managerERSt9_Any_dataRKSC_St18_Manager_operation.exit.sink.split

_ZNSt14_Function_base13_Base_managerIPFNSt7__cxx1112basic_stringIcSt11char_traitsIcESaIcEEESt17basic_string_viewIcS4_EEE10_M_managerERSt9_Any_dataRKSC_St18_Manager_operation.exit.sink.split: ; preds = %bb.a, %bb.b, %.sink.split.i
  %.sink = phi ptr [ %i.a, %.sink.split.i ], [ %1, %bb.b ], [ @_ZTIPFNSt7__cxx1112basic_stringIcSt11char_traitsIcESaIcEEESt17basic_string_viewIcS2_EE, %bb.a ]
  store ptr %.sink, ptr %0, align 8, !tbaa !15
  br label %_ZNSt14_Function_base13_Base_managerIPFNSt7__cxx1112basic_stringIcSt11char_traitsIcESaIcEEESt17basic_string_viewIcS4_EEE10_M_managerERSt9_Any_dataRKSC_St18_Manager_operation.exit

_ZNSt14_Function_base13_Base_managerIPFNSt7__cxx1112basic_stringIcSt11char_traitsIcESaIcEEESt17basic_string_viewIcS4_EEE10_M_managerERSt9_Any_dataRKSC_St18_Manager_operation.exit: ; preds = %_ZNSt14_Function_base13_Base_managerIPFNSt7__cxx1112basic_stringIcSt11char_traitsIcESaIcEEESt17basic_string_viewIcS4_EEE10_M_managerERSt9_Any_dataRKSC_St18_Manager_operation.exit.sink.split, %bb.a
end_hunk_45
begin_hunk_46
!11 = !{!12, !12, i64 0}
!12 = !{!"p1 _ZTSN4absl12lts_2025051216FlagsUsageConfigE", !13, i64 0}
!13 = !{!"any pointer", !5, i64 0}
!14 = !{!5, !5, i64 0}
!15 = !{!13, !13, i64 0}
!16 = !{!17, !13, i64 16}
!17 = !{!"_ZTSSt14_Function_base", !5, i64 0, !13, i64 16}
!18 = distinct !{!18, !19}
!19 = !{!"llvm.loop.mustprogress"}
!20 = !{!21, !23, i64 0}
end_hunk_46
begin_hunk_47
!49 = !{!"p1 _ZTS15__locale_struct", !13, i64 0}
!50 = !{!"p1 int", !13, i64 0}
!51 = !{!"p1 short", !13, i64 0}
!52 = !{i64 0, i64 16, !14}
!53 = !{!23, !23, i64 0}
!54 = !{!55, !57}
!55 = distinct !{!55, !56, !"_ZSt13__invoke_implINSt7__cxx1112basic_stringIcSt11char_traitsIcESaIcEEERPFS5_vEJEET_St14__invoke_otherOT0_DpOT1_: argument 0"}
end_hunk_47
